

Microchip Technology PIC PRO Macro Assembler V1.35 build -356382666 
                                                                                               Mon Aug 26 14:56:15 2019

Microchip Technology Omniscient Code Generator v1.35 (PRO mode) build 201507080246
     1                           	processor	16F1527
     2                           	opt	pw 120
     3                           	opt	pm
     4                           	psect	idataBANK0,global,class=CODE,delta=2
     5                           	psect	stringtext,global,class=STRCODE,delta=2
     6                           	psect	cinit,global,class=CODE,merge=1,delta=2
     7                           	psect	bitbssBANK0,global,bit,class=BANK0,space=1,delta=1
     8                           	psect	bssBANK0,global,class=BANK0,space=1,delta=1
     9                           	psect	dataBANK0,global,class=BANK0,space=1,delta=1
    10                           	psect	clrtext,global,class=CODE,delta=2
    11                           	psect	cstackCOMMON,global,class=COMMON,space=1,delta=1
    12                           	psect	cstackBANK0,global,class=BANK0,space=1,delta=1
    13                           	psect	maintext,global,class=CODE,merge=1,split=1,delta=2
    14                           	psect	text1,local,class=CODE,merge=1,delta=2
    15                           	psect	text3,local,class=CODE,merge=1,delta=2
    16                           	psect	swtext1,local,class=CONST,delta=2
    17                           	psect	swtext2,local,class=CONST,delta=2
    18                           	psect	text20,local,class=CODE,merge=1,delta=2
    19                           	psect	text21,local,class=CODE,merge=1,delta=2
    20                           	psect	text26,local,class=CODE,merge=1,delta=2
    21                           	psect	text27,local,class=CODE,merge=1,delta=2
    22                           	psect	text28,local,class=CODE,merge=1,delta=2
    23                           	psect	text29,local,class=CODE,merge=1,delta=2
    24                           	psect	intentry,global,class=CODE,delta=2
    25                           	psect	swtext3,local,class=CONST,delta=2
    26                           	psect	pa_nodes,global,class=CODE,delta=2
    27                           	psect	maintext_split_1,global,class=CODE,merge=1,split=1,delta=2
    28                           	psect	maintext_split_2,global,class=CODE,merge=1,split=1,delta=2
    29                           	psect	maintext_split_3,global,class=CODE,merge=1,split=1,delta=2
    30                           	psect	maintext_split_4,global,class=CODE,merge=1,split=1,delta=2
    31                           	psect	maintext_split_5,global,class=CODE,merge=1,split=1,delta=2
    32                           	psect	maintext_split_6,global,class=CODE,merge=1,split=1,delta=2
    33                           	psect	maintext_split_7,global,class=CODE,merge=1,split=1,delta=2
    34                           	psect	maintext_split_8,global,class=CODE,merge=1,split=1,delta=2
    35                           	dabs	1,0x7E,2
    36  0000                     	;# 
    37  0001                     	;# 
    38  0002                     	;# 
    39  0003                     	;# 
    40  0004                     	;# 
    41  0005                     	;# 
    42  0006                     	;# 
    43  0007                     	;# 
    44  0008                     	;# 
    45  0009                     	;# 
    46  000A                     	;# 
    47  000B                     	;# 
    48  000C                     	;# 
    49  000D                     	;# 
    50  000E                     	;# 
    51  000F                     	;# 
    52  0010                     	;# 
    53  0011                     	;# 
    54  0012                     	;# 
    55  0013                     	;# 
    56  0014                     	;# 
    57  0015                     	;# 
    58  0016                     	;# 
    59  0016                     	;# 
    60  0017                     	;# 
    61  0018                     	;# 
    62  0019                     	;# 
    63  001A                     	;# 
    64  001B                     	;# 
    65  001C                     	;# 
    66  008C                     	;# 
    67  008D                     	;# 
    68  008E                     	;# 
    69  008F                     	;# 
    70  0090                     	;# 
    71  0091                     	;# 
    72  0092                     	;# 
    73  0093                     	;# 
    74  0094                     	;# 
    75  0095                     	;# 
    76  0096                     	;# 
    77  0097                     	;# 
    78  0099                     	;# 
    79  009A                     	;# 
    80  009B                     	;# 
    81  009B                     	;# 
    82  009C                     	;# 
    83  009D                     	;# 
    84  009E                     	;# 
    85  010C                     	;# 
    86  010D                     	;# 
    87  010E                     	;# 
    88  010F                     	;# 
    89  0110                     	;# 
    90  0116                     	;# 
    91  0117                     	;# 
    92  011D                     	;# 
    93  018C                     	;# 
    94  018D                     	;# 
    95  018F                     	;# 
    96  0190                     	;# 
    97  0191                     	;# 
    98  0191                     	;# 
    99  0192                     	;# 
   100  0193                     	;# 
   101  0193                     	;# 
   102  0194                     	;# 
   103  0195                     	;# 
   104  0196                     	;# 
   105  0197                     	;# 
   106  0199                     	;# 
   107  0199                     	;# 
   108  0199                     	;# 
   109  019A                     	;# 
   110  019A                     	;# 
   111  019A                     	;# 
   112  019B                     	;# 
   113  019B                     	;# 
   114  019B                     	;# 
   115  019B                     	;# 
   116  019B                     	;# 
   117  019C                     	;# 
   118  019C                     	;# 
   119  019C                     	;# 
   120  019D                     	;# 
   121  019D                     	;# 
   122  019D                     	;# 
   123  019E                     	;# 
   124  019E                     	;# 
   125  019E                     	;# 
   126  019F                     	;# 
   127  019F                     	;# 
   128  019F                     	;# 
   129  020D                     	;# 
   130  020F                     	;# 
   131  0210                     	;# 
   132  0211                     	;# 
   133  0211                     	;# 
   134  0212                     	;# 
   135  0212                     	;# 
   136  0213                     	;# 
   137  0213                     	;# 
   138  0214                     	;# 
   139  0214                     	;# 
   140  0215                     	;# 
   141  0215                     	;# 
   142  0215                     	;# 
   143  0216                     	;# 
   144  0216                     	;# 
   145  0217                     	;# 
   146  0217                     	;# 
   147  0219                     	;# 
   148  021A                     	;# 
   149  021B                     	;# 
   150  021C                     	;# 
   151  021D                     	;# 
   152  021E                     	;# 
   153  021F                     	;# 
   154  028C                     	;# 
   155  028D                     	;# 
   156  0291                     	;# 
   157  0291                     	;# 
   158  0292                     	;# 
   159  0293                     	;# 
   160  0298                     	;# 
   161  0298                     	;# 
   162  0299                     	;# 
   163  029A                     	;# 
   164  029D                     	;# 
   165  029E                     	;# 
   166  029F                     	;# 
   167  030C                     	;# 
   168  030D                     	;# 
   169  0311                     	;# 
   170  0311                     	;# 
   171  0312                     	;# 
   172  0313                     	;# 
   173  0318                     	;# 
   174  0318                     	;# 
   175  0319                     	;# 
   176  031A                     	;# 
   177  031C                     	;# 
   178  031C                     	;# 
   179  031D                     	;# 
   180  031E                     	;# 
   181  038C                     	;# 
   182  038D                     	;# 
   183  0394                     	;# 
   184  0395                     	;# 
   185  0396                     	;# 
   186  040C                     	;# 
   187  040D                     	;# 
   188  0411                     	;# 
   189  0411                     	;# 
   190  0412                     	;# 
   191  0413                     	;# 
   192  0414                     	;# 
   193  0415                     	;# 
   194  0416                     	;# 
   195  0417                     	;# 
   196  0418                     	;# 
   197  0418                     	;# 
   198  0419                     	;# 
   199  041A                     	;# 
   200  041B                     	;# 
   201  041C                     	;# 
   202  041D                     	;# 
   203  041E                     	;# 
   204  048D                     	;# 
   205  0491                     	;# 
   206  0491                     	;# 
   207  0492                     	;# 
   208  0492                     	;# 
   209  0493                     	;# 
   210  0493                     	;# 
   211  0493                     	;# 
   212  0494                     	;# 
   213  0494                     	;# 
   214  0495                     	;# 
   215  0495                     	;# 
   216  0496                     	;# 
   217  0496                     	;# 
   218  0497                     	;# 
   219  0497                     	;# 
   220  0595                     	;# 
   221  0596                     	;# 
   222  0597                     	;# 
   223  059C                     	;# 
   224  059D                     	;# 
   225  059E                     	;# 
   226  0611                     	;# 
   227  0611                     	;# 
   228  0612                     	;# 
   229  0613                     	;# 
   230  0614                     	;# 
   231  0614                     	;# 
   232  0615                     	;# 
   233  0616                     	;# 
   234  0617                     	;# 
   235  0617                     	;# 
   236  0618                     	;# 
   237  0619                     	;# 
   238  061A                     	;# 
   239  061A                     	;# 
   240  061B                     	;# 
   241  061C                     	;# 
   242  061D                     	;# 
   243  061D                     	;# 
   244  061E                     	;# 
   245  061F                     	;# 
   246  0FE4                     	;# 
   247  0FE5                     	;# 
   248  0FE6                     	;# 
   249  0FE7                     	;# 
   250  0FE8                     	;# 
   251  0FE9                     	;# 
   252  0FEA                     	;# 
   253  0FEB                     	;# 
   254  0FED                     	;# 
   255  0FEE                     	;# 
   256  0FEF                     	;# 
   257                           
   258                           	psect	idataBANK0
   259  0000                     __pidataBANK0:	
   260  000B                     _INTCONbits	set	11
   261  0011                     _PIR1bits	set	17
   262  000C                     _PORTA	set	12
   263  000D                     _PORTB	set	13
   264  000E                     _PORTC	set	14
   265  000F                     _PORTD	set	15
   266  0010                     _PORTE	set	16
   267  001B                     _PR2	set	27
   268  001C                     _T2CON	set	28
   269  0015                     _TMR0	set	21
   270  005F                     _GIE	set	95
   271  0060                     _RA0	set	96
   272  0061                     _RA1	set	97
   273  0064                     _RA4	set	100
   274  0065                     _RA5	set	101
   275  00A5                     _RC2IF	set	165
   276  0080                     _RE0	set	128
   277  0084                     _RE4	set	132
   278  0085                     _RE5	set	133
   279  005D                     _TMR0IE	set	93
   280  005A                     _TMR0IF	set	90
   281  009D                     _ADCON0	set	157
   282  009D                     _ADCON0bits	set	157
   283  009E                     _ADCON1	set	158
   284  009C                     _ADRESH	set	156
   285  009B                     _ADRESL	set	155
   286  0095                     _OPTION_REG	set	149
   287  0099                     _OSCCON	set	153
   288  0091                     _PIE1bits	set	145
   289  008C                     _TRISA	set	140
   290  008D                     _TRISB	set	141
   291  008E                     _TRISC	set	142
   292  008F                     _TRISD	set	143
   293  0090                     _TRISE	set	144
   294  0473                     _TRISC3	set	1139
   295  0474                     _TRISC4	set	1140
   296  0117                     _FVRCON	set	279
   297  0866                     _LATA6	set	2150
   298  0867                     _LATA7	set	2151
   299  086C                     _LATB4	set	2156
   300  086D                     _LATB5	set	2157
   301  086E                     _LATB6	set	2158
   302  086F                     _LATB7	set	2159
   303  0875                     _LATC5	set	2165
   304  0877                     _LATC7	set	2167
   305  087A                     _LATD2	set	2170
   306  087C                     _LATD4	set	2172
   307  087D                     _LATD5	set	2173
   308  087E                     _LATD6	set	2174
   309  087F                     _LATD7	set	2175
   310  018C                     _ANSELA	set	396
   311  018D                     _ANSELB	set	397
   312  018F                     _ANSELD	set	399
   313  0190                     _ANSELE	set	400
   314  019F                     _BAUD1CON	set	415
   315  019D                     _RC1STA	set	413
   316  019C                     _SP1BRGH	set	412
   317  019B                     _SP1BRGL	set	411
   318  019E                     _TX1STA	set	414
   319  0212                     _SSP1ADD	set	530
   320  0211                     _SSP1BUF	set	529
   321  0215                     _SSP1CON1	set	533
   322  0216                     _SSP1CON2	set	534
   323  0216                     _SSP1CON2bits	set	534
   324  0214                     _SSP1STAT	set	532
   325  0214                     _SSP1STATbits	set	532
   326  020D                     _WPUB	set	525
   327  020F                     _WPUD	set	527
   328  0210                     _WPUE	set	528
   329  029F                     _CCPTMRS2	set	671
   330  028C                     _PORTF	set	652
   331  028D                     _PORTG	set	653
   332  1465                     _RF5	set	5221
   333  030C                     _TRISF	set	780
   334  030D                     _TRISG	set	781
   335  1C64                     _LATF4	set	7268
   336  1C67                     _LATF7	set	7271
   337  1C68                     _LATG0	set	7272
   338  1C6B                     _LATG3	set	7275
   339  1C6C                     _LATG4	set	7276
   340  040C                     _ANSELF	set	1036
   341  040D                     _ANSELG	set	1037
   342  0497                     _BAUD2CON	set	1175
   343  0491                     _RC2REG	set	1169
   344  0495                     _RC2STA	set	1173
   345  0495                     _RC2STAbits	set	1173
   346  0494                     _SP2BRGH	set	1172
   347  0493                     _SP2BRGL	set	1171
   348  0492                     _TX2REG	set	1170
   349  0496                     _TX2STA	set	1174
   350  0496                     _TX2STAbits	set	1174
   351  0596                     _PR8	set	1430
   352  0597                     _T8CON	set	1431
   353  061C                     _CCP9CON	set	1564
   354  061A                     _CCPR9L	set	1562
   355                           
   356                           	psect	stringtext
   357  1000                     __pstringtext:	
   358  1000                     STR_8:	
   359  1000  342D               	retlw	45	;'-'
   360  1001  343E               	retlw	62	;'>'
   361  1002  3420               	retlw	32	;' '
   362  1003  3449               	retlw	73	;'I'
   363  1004  346E               	retlw	110	;'n'
   364  1005  3473               	retlw	115	;'s'
   365  1006  3465               	retlw	101	;'e'
   366  1007  3472               	retlw	114	;'r'
   367  1008  3474               	retlw	116	;'t'
   368  1009  3420               	retlw	32	;' '
   369  100A  3450               	retlw	80	;'P'
   370  100B  3443               	retlw	67	;'C'
   371  100C  3442               	retlw	66	;'B'
   372  100D  3420               	retlw	32	;' '
   373  100E  3426               	retlw	38	;'&'
   374  100F  3420               	retlw	32	;' '
   375  1010  3453               	retlw	83	;'S'
   376  1011  3474               	retlw	116	;'t'
   377  1012  3461               	retlw	97	;'a'
   378  1013  3472               	retlw	114	;'r'
   379  1014  3474               	retlw	116	;'t'
   380  1015  3400               	retlw	0
   381  1016                     STR_153:	
   382  1016  3444               	retlw	68	;'D'
   383  1017  3443               	retlw	67	;'C'
   384  1018  3442               	retlw	66	;'B'
   385  1019  3441               	retlw	65	;'A'
   386  101A  3420               	retlw	32	;' '
   387  101B  3452               	retlw	82	;'R'
   388  101C  346F               	retlw	111	;'o'
   389  101D  346C               	retlw	108	;'l'
   390  101E  346C               	retlw	108	;'l'
   391  101F  342D               	retlw	45	;'-'
   392  1020  3475               	retlw	117	;'u'
   393  1021  3470               	retlw	112	;'p'
   394  1022  3420               	retlw	32	;' '
   395  1023  3450               	retlw	80	;'P'
   396  1024  3461               	retlw	97	;'a'
   397  1025  3473               	retlw	115	;'s'
   398  1026  3473               	retlw	115	;'s'
   399  1027  3400               	retlw	0
   400  1028                     STR_157:	
   401  1028  3449               	retlw	73	;'I'
   402  1029  346E               	retlw	110	;'n'
   403  102A  3473               	retlw	115	;'s'
   404  102B  3465               	retlw	101	;'e'
   405  102C  3472               	retlw	114	;'r'
   406  102D  3474               	retlw	116	;'t'
   407  102E  3420               	retlw	32	;' '
   408  102F  344E               	retlw	78	;'N'
   409  1030  3465               	retlw	101	;'e'
   410  1031  3477               	retlw	119	;'w'
   411  1032  3420               	retlw	32	;' '
   412  1033  3442               	retlw	66	;'B'
   413  1034  346F               	retlw	111	;'o'
   414  1035  3461               	retlw	97	;'a'
   415  1036  3472               	retlw	114	;'r'
   416  1037  3464               	retlw	100	;'d'
   417  1038  3400               	retlw	0
   418  1039                     STR_6:	
   419  1039  3454               	retlw	84	;'T'
   420  103A  3465               	retlw	101	;'e'
   421  103B  3473               	retlw	115	;'s'
   422  103C  3474               	retlw	116	;'t'
   423  103D  342D               	retlw	45	;'-'
   424  103E  344A               	retlw	74	;'J'
   425  103F  3469               	retlw	105	;'i'
   426  1040  3467               	retlw	103	;'g'
   427  1041  347C               	retlw	124	;'|'
   428  1042  3453               	retlw	83	;'S'
   429  1043  3474               	retlw	116	;'t'
   430  1044  3461               	retlw	97	;'a'
   431  1045  3472               	retlw	114	;'r'
   432  1046  3474               	retlw	116	;'t'
   433  1047  3475               	retlw	117	;'u'
   434  1048  3470               	retlw	112	;'p'
   435  1049  3400               	retlw	0
   436  104A                     STR_158:	
   437  104A  3454               	retlw	84	;'T'
   438  104B  3468               	retlw	104	;'h'
   439  104C  3465               	retlw	101	;'e'
   440  104D  346E               	retlw	110	;'n'
   441  104E  3420               	retlw	32	;' '
   442  104F  3450               	retlw	80	;'P'
   443  1050  3472               	retlw	114	;'r'
   444  1051  3465               	retlw	101	;'e'
   445  1052  3473               	retlw	115	;'s'
   446  1053  3473               	retlw	115	;'s'
   447  1054  3420               	retlw	32	;' '
   448  1055  3453               	retlw	83	;'S'
   449  1056  3474               	retlw	116	;'t'
   450  1057  3461               	retlw	97	;'a'
   451  1058  3472               	retlw	114	;'r'
   452  1059  3474               	retlw	116	;'t'
   453  105A  3400               	retlw	0
   454  105B                     STR_178:	
   455  105B  3420               	retlw	32	;' '
   456  105C  3474               	retlw	116	;'t'
   457  105D  346F               	retlw	111	;'o'
   458  105E  3420               	retlw	32	;' '
   459  105F  3472               	retlw	114	;'r'
   460  1060  3465               	retlw	101	;'e'
   461  1061  3473               	retlw	115	;'s'
   462  1062  3474               	retlw	116	;'t'
   463  1063  3461               	retlw	97	;'a'
   464  1064  3472               	retlw	114	;'r'
   465  1065  3474               	retlw	116	;'t'
   466  1066  3420               	retlw	32	;' '
   467  1067  3474               	retlw	116	;'t'
   468  1068  3465               	retlw	101	;'e'
   469  1069  3473               	retlw	115	;'s'
   470  106A  3474               	retlw	116	;'t'
   471  106B  3400               	retlw	0
   472  106C                     STR_7:	
   473  106C  3444               	retlw	68	;'D'
   474  106D  3443               	retlw	67	;'C'
   475  106E  3442               	retlw	66	;'B'
   476  106F  3441               	retlw	65	;'A'
   477  1070  3420               	retlw	32	;' '
   478  1071  3452               	retlw	82	;'R'
   479  1072  346F               	retlw	111	;'o'
   480  1073  346C               	retlw	108	;'l'
   481  1074  346C               	retlw	108	;'l'
   482  1075  342D               	retlw	45	;'-'
   483  1076  3475               	retlw	117	;'u'
   484  1077  3470               	retlw	112	;'p'
   485  1078  3420               	retlw	32	;' '
   486  1079  3454               	retlw	84	;'T'
   487  107A  344A               	retlw	74	;'J'
   488  107B  3400               	retlw	0
   489  107C                     STR_56:	
   490  107C  3456               	retlw	86	;'V'
   491  107D  346F               	retlw	111	;'o'
   492  107E  346C               	retlw	108	;'l'
   493  107F  3474               	retlw	116	;'t'
   494  1080  3461               	retlw	97	;'a'
   495  1081  3467               	retlw	103	;'g'
   496  1082  3465               	retlw	101	;'e'
   497  1083  3420               	retlw	32	;' '
   498  1084  3474               	retlw	116	;'t'
   499  1085  346F               	retlw	111	;'o'
   500  1086  3420               	retlw	32	;' '
   501  1087  3448               	retlw	72	;'H'
   502  1088  3469               	retlw	105	;'i'
   503  1089  3467               	retlw	103	;'g'
   504  108A  3468               	retlw	104	;'h'
   505  108B  3400               	retlw	0
   506  108C                     STR_135:	
   507  108C  3454               	retlw	84	;'T'
   508  108D  3465               	retlw	101	;'e'
   509  108E  3473               	retlw	115	;'s'
   510  108F  3474               	retlw	116	;'t'
   511  1090  3469               	retlw	105	;'i'
   512  1091  346E               	retlw	110	;'n'
   513  1092  3467               	retlw	103	;'g'
   514  1093  3420               	retlw	32	;' '
   515  1094  3443               	retlw	67	;'C'
   516  1095  3468               	retlw	104	;'h'
   517  1096  3461               	retlw	97	;'a'
   518  1097  3472               	retlw	114	;'r'
   519  1098  3467               	retlw	103	;'g'
   520  1099  3465               	retlw	101	;'e'
   521  109A  3472               	retlw	114	;'r'
   522  109B  3400               	retlw	0
   523  109C                     STR_151:	
   524  109C  344D               	retlw	77	;'M'
   525  109D  3465               	retlw	101	;'e'
   526  109E  346D               	retlw	109	;'m'
   527  109F  345F               	retlw	95	;'_'
   528  10A0  3443               	retlw	67	;'C'
   529  10A1  346F               	retlw	111	;'o'
   530  10A2  3470               	retlw	112	;'p'
   531  10A3  3469               	retlw	105	;'i'
   532  10A4  3465               	retlw	101	;'e'
   533  10A5  3472               	retlw	114	;'r'
   534  10A6  3420               	retlw	32	;' '
   535  10A7  3450               	retlw	80	;'P'
   536  10A8  3461               	retlw	97	;'a'
   537  10A9  3473               	retlw	115	;'s'
   538  10AA  3473               	retlw	115	;'s'
   539  10AB  3400               	retlw	0
   540  10AC                     STR_100:	
   541  10AC  3450               	retlw	80	;'P'
   542  10AD  3472               	retlw	114	;'r'
   543  10AE  3465               	retlw	101	;'e'
   544  10AF  3473               	retlw	115	;'s'
   545  10B0  3473               	retlw	115	;'s'
   546  10B1  3420               	retlw	32	;' '
   547  10B2  3444               	retlw	68	;'D'
   548  10B3  346F               	retlw	111	;'o'
   549  10B4  3477               	retlw	119	;'w'
   550  10B5  346E               	retlw	110	;'n'
   551  10B6  3420               	retlw	32	;' '
   552  10B7  3442               	retlw	66	;'B'
   553  10B8  3475               	retlw	117	;'u'
   554  10B9  3474               	retlw	116	;'t'
   555  10BA  3474               	retlw	116	;'t'
   556  10BB  3400               	retlw	0
   557  10BC                     STR_82:	
   558  10BC  3442               	retlw	66	;'B'
   559  10BD  3475               	retlw	117	;'u'
   560  10BE  3474               	retlw	116	;'t'
   561  10BF  3474               	retlw	116	;'t'
   562  10C0  3420               	retlw	32	;' '
   563  10C1  3444               	retlw	68	;'D'
   564  10C2  346F               	retlw	111	;'o'
   565  10C3  3477               	retlw	119	;'w'
   566  10C4  346E               	retlw	110	;'n'
   567  10C5  3420               	retlw	32	;' '
   568  10C6  3449               	retlw	73	;'I'
   569  10C7  346E               	retlw	110	;'n'
   570  10C8  3470               	retlw	112	;'p'
   571  10C9  3475               	retlw	117	;'u'
   572  10CA  3474               	retlw	116	;'t'
   573  10CB  3400               	retlw	0
   574  10CC                     STR_13:	
   575  10CC  3450               	retlw	80	;'P'
   576  10CD  346F               	retlw	111	;'o'
   577  10CE  3477               	retlw	119	;'w'
   578  10CF  3465               	retlw	101	;'e'
   579  10D0  3472               	retlw	114	;'r'
   580  10D1  3469               	retlw	105	;'i'
   581  10D2  346E               	retlw	110	;'n'
   582  10D3  3467               	retlw	103	;'g'
   583  10D4  3420               	retlw	32	;' '
   584  10D5  3442               	retlw	66	;'B'
   585  10D6  346F               	retlw	111	;'o'
   586  10D7  3461               	retlw	97	;'a'
   587  10D8  3472               	retlw	114	;'r'
   588  10D9  3464               	retlw	100	;'d'
   589  10DA  3400               	retlw	0
   590  10DB                     STR_110:	
   591  10DB  3443               	retlw	67	;'C'
   592  10DC  3468               	retlw	104	;'h'
   593  10DD  3461               	retlw	97	;'a'
   594  10DE  3472               	retlw	114	;'r'
   595  10DF  3467               	retlw	103	;'g'
   596  10E0  3465               	retlw	101	;'e'
   597  10E1  3420               	retlw	32	;' '
   598  10E2  3444               	retlw	68	;'D'
   599  10E3  3469               	retlw	105	;'i'
   600  10E4  3473               	retlw	115	;'s'
   601  10E5  3461               	retlw	97	;'a'
   602  10E6  3462               	retlw	98	;'b'
   603  10E7  346C               	retlw	108	;'l'
   604  10E8  3465               	retlw	101	;'e'
   605  10E9  3400               	retlw	0
   606  10EA                     STR_23:	
   607  10EA  3456               	retlw	86	;'V'
   608  10EB  3431               	retlw	49	;'1'
   609  10EC  3420               	retlw	32	;' '
   610  10ED  3456               	retlw	86	;'V'
   611  10EE  346F               	retlw	111	;'o'
   612  10EF  346C               	retlw	108	;'l'
   613  10F0  3474               	retlw	116	;'t'
   614  10F1  3461               	retlw	97	;'a'
   615  10F2  3467               	retlw	103	;'g'
   616  10F3  3465               	retlw	101	;'e'
   617  10F4  342D               	retlw	45	;'-'
   618  10F5  344A               	retlw	74	;'J'
   619  10F6  3469               	retlw	105	;'i'
   620  10F7  3467               	retlw	103	;'g'
   621  10F8  3400               	retlw	0
   622  10F9                     STR_169:	
   623  10F9  3443               	retlw	67	;'C'
   624  10FA  346F               	retlw	111	;'o'
   625  10FB  346E               	retlw	110	;'n'
   626  10FC  3464               	retlw	100	;'d'
   627  10FD  346F               	retlw	111	;'o'
   628  10FE  3433               	retlw	51	;'3'
   629  10FF  3420               	retlw	32	;' '
   630  1100  3454               	retlw	84	;'T'
   631  1101  3465               	retlw	101	;'e'
   632  1102  3473               	retlw	115	;'s'
   633  1103  3474               	retlw	116	;'t'
   634  1104  346A               	retlw	106	;'j'
   635  1105  3469               	retlw	105	;'i'
   636  1106  3467               	retlw	103	;'g'
   637  1107  3400               	retlw	0
   638  1108                     STR_67:	
   639  1108  3442               	retlw	66	;'B'
   640  1109  3465               	retlw	101	;'e'
   641  110A  3461               	retlw	97	;'a'
   642  110B  346D               	retlw	109	;'m'
   643  110C  3420               	retlw	32	;' '
   644  110D  3449               	retlw	73	;'I'
   645  110E  346E               	retlw	110	;'n'
   646  110F  3470               	retlw	112	;'p'
   647  1110  3475               	retlw	117	;'u'
   648  1111  3474               	retlw	116	;'t'
   649  1112  3420               	retlw	32	;' '
   650  1113  3445               	retlw	69	;'E'
   651  1114  3472               	retlw	114	;'r'
   652  1115  3472               	retlw	114	;'r'
   653  1116  3400               	retlw	0
   654  1117                     STR_3:	
   655  1117  3443               	retlw	67	;'C'
   656  1118  346F               	retlw	111	;'o'
   657  1119  346D               	retlw	109	;'m'
   658  111A  346D               	retlw	109	;'m'
   659  111B  3473               	retlw	115	;'s'
   660  111C  345F               	retlw	95	;'_'
   661  111D  3444               	retlw	68	;'D'
   662  111E  3461               	retlw	97	;'a'
   663  111F  3474               	retlw	116	;'t'
   664  1120  3461               	retlw	97	;'a'
   665  1121  345F               	retlw	95	;'_'
   666  1122  3445               	retlw	69	;'E'
   667  1123  3472               	retlw	114	;'r'
   668  1124  3472               	retlw	114	;'r'
   669  1125  3400               	retlw	0
   670  1126                     STR_37:	
   671  1126  344D               	retlw	77	;'M'
   672  1127  3465               	retlw	101	;'e'
   673  1128  3461               	retlw	97	;'a'
   674  1129  3473               	retlw	115	;'s'
   675  112A  3475               	retlw	117	;'u'
   676  112B  3472               	retlw	114	;'r'
   677  112C  3469               	retlw	105	;'i'
   678  112D  346E               	retlw	110	;'n'
   679  112E  3467               	retlw	103	;'g'
   680  112F  3420               	retlw	32	;' '
   681  1130  3433               	retlw	51	;'3'
   682  1131  342E               	retlw	46	;'.'
   683  1132  3433               	retlw	51	;'3'
   684  1133  3476               	retlw	118	;'v'
   685  1134  3400               	retlw	0
   686  1135                     STR_58:	
   687  1135  3456               	retlw	86	;'V'
   688  1136  346F               	retlw	111	;'o'
   689  1137  346C               	retlw	108	;'l'
   690  1138  3474               	retlw	116	;'t'
   691  1139  3461               	retlw	97	;'a'
   692  113A  3467               	retlw	103	;'g'
   693  113B  3465               	retlw	101	;'e'
   694  113C  3420               	retlw	32	;' '
   695  113D  3474               	retlw	116	;'t'
   696  113E  346F               	retlw	111	;'o'
   697  113F  3420               	retlw	32	;' '
   698  1140  344C               	retlw	76	;'L'
   699  1141  346F               	retlw	111	;'o'
   700  1142  3477               	retlw	119	;'w'
   701  1143  3400               	retlw	0
   702  1144                     STR_45:	
   703  1144  3450               	retlw	80	;'P'
   704  1145  3472               	retlw	114	;'r'
   705  1146  346F               	retlw	111	;'o'
   706  1147  3467               	retlw	103	;'g'
   707  1148  3472               	retlw	114	;'r'
   708  1149  3461               	retlw	97	;'a'
   709  114A  346D               	retlw	109	;'m'
   710  114B  346D               	retlw	109	;'m'
   711  114C  3469               	retlw	105	;'i'
   712  114D  346E               	retlw	110	;'n'
   713  114E  3467               	retlw	103	;'g'
   714  114F  342E               	retlw	46	;'.'
   715  1150  342E               	retlw	46	;'.'
   716  1151  3400               	retlw	0
   717  1152                     STR_120:	
   718  1152  3443               	retlw	67	;'C'
   719  1153  3469               	retlw	105	;'i'
   720  1154  3472               	retlw	114	;'r'
   721  1155  3463               	retlw	99	;'c'
   722  1156  3475               	retlw	117	;'u'
   723  1157  3469               	retlw	105	;'i'
   724  1158  3474               	retlw	116	;'t'
   725  1159  3420               	retlw	32	;' '
   726  115A  3445               	retlw	69	;'E'
   727  115B  3472               	retlw	114	;'r'
   728  115C  3472               	retlw	114	;'r'
   729  115D  3420               	retlw	32	;' '
   730  115E  3431               	retlw	49	;'1'
   731  115F  3400               	retlw	0
   732  1160                     STR_122:	
   733  1160  3443               	retlw	67	;'C'
   734  1161  3469               	retlw	105	;'i'
   735  1162  3472               	retlw	114	;'r'
   736  1163  3463               	retlw	99	;'c'
   737  1164  3475               	retlw	117	;'u'
   738  1165  3469               	retlw	105	;'i'
   739  1166  3474               	retlw	116	;'t'
   740  1167  3420               	retlw	32	;' '
   741  1168  3445               	retlw	69	;'E'
   742  1169  3472               	retlw	114	;'r'
   743  116A  3472               	retlw	114	;'r'
   744  116B  3420               	retlw	32	;' '
   745  116C  3432               	retlw	50	;'2'
   746  116D  3400               	retlw	0
   747  116E                     STR_124:	
   748  116E  3443               	retlw	67	;'C'
   749  116F  3469               	retlw	105	;'i'
   750  1170  3472               	retlw	114	;'r'
   751  1171  3463               	retlw	99	;'c'
   752  1172  3475               	retlw	117	;'u'
   753  1173  3469               	retlw	105	;'i'
   754  1174  3474               	retlw	116	;'t'
   755  1175  3420               	retlw	32	;' '
   756  1176  3445               	retlw	69	;'E'
   757  1177  3472               	retlw	114	;'r'
   758  1178  3472               	retlw	114	;'r'
   759  1179  3420               	retlw	32	;' '
   760  117A  3433               	retlw	51	;'3'
   761  117B  3400               	retlw	0
   762  117C                     STR_101:	
   763  117C  3441               	retlw	65	;'A'
   764  117D  346C               	retlw	108	;'l'
   765  117E  346C               	retlw	108	;'l'
   766  117F  3420               	retlw	32	;' '
   767  1180  344C               	retlw	76	;'L'
   768  1181  3465               	retlw	101	;'e'
   769  1182  3464               	retlw	100	;'d'
   770  1183  3473               	retlw	115	;'s'
   771  1184  3420               	retlw	32	;' '
   772  1185  344F               	retlw	79	;'O'
   773  1186  3466               	retlw	102	;'f'
   774  1187  3466               	retlw	102	;'f'
   775  1188  343F               	retlw	63	;'?'
   776  1189  3400               	retlw	0
   777  118A                     STR_170:	
   778  118A  342D               	retlw	45	;'-'
   779  118B  343E               	retlw	62	;'>'
   780  118C  3420               	retlw	32	;' '
   781  118D  3449               	retlw	73	;'I'
   782  118E  346E               	retlw	110	;'n'
   783  118F  3473               	retlw	115	;'s'
   784  1190  3465               	retlw	101	;'e'
   785  1191  3472               	retlw	114	;'r'
   786  1192  3474               	retlw	116	;'t'
   787  1193  3420               	retlw	32	;' '
   788  1194  3450               	retlw	80	;'P'
   789  1195  3443               	retlw	67	;'C'
   790  1196  3442               	retlw	66	;'B'
   791  1197  3400               	retlw	0
   792  1198                     STR_25:	
   793  1198  344D               	retlw	77	;'M'
   794  1199  3465               	retlw	101	;'e'
   795  119A  3461               	retlw	97	;'a'
   796  119B  3473               	retlw	115	;'s'
   797  119C  3475               	retlw	117	;'u'
   798  119D  3472               	retlw	114	;'r'
   799  119E  3469               	retlw	105	;'i'
   800  119F  346E               	retlw	110	;'n'
   801  11A0  3467               	retlw	103	;'g'
   802  11A1  3420               	retlw	32	;' '
   803  11A2  3432               	retlw	50	;'2'
   804  11A3  3434               	retlw	52	;'4'
   805  11A4  3456               	retlw	86	;'V'
   806  11A5  3400               	retlw	0
   807  11A6                     STR_148:	
   808  11A6  3420               	retlw	32	;' '
   809  11A7  3452               	retlw	82	;'R'
   810  11A8  3465               	retlw	101	;'e'
   811  11A9  346D               	retlw	109	;'m'
   812  11AA  346F               	retlw	111	;'o'
   813  11AB  3476               	retlw	118	;'v'
   814  11AC  3465               	retlw	101	;'e'
   815  11AD  3420               	retlw	32	;' '
   816  11AE  3462               	retlw	98	;'b'
   817  11AF  346F               	retlw	111	;'o'
   818  11B0  3461               	retlw	97	;'a'
   819  11B1  3472               	retlw	114	;'r'
   820  11B2  3464               	retlw	100	;'d'
   821  11B3  3400               	retlw	0
   822  11B4                     STR_142:	
   823  11B4  3443               	retlw	67	;'C'
   824  11B5  3475               	retlw	117	;'u'
   825  11B6  3472               	retlw	114	;'r'
   826  11B7  3472               	retlw	114	;'r'
   827  11B8  3420               	retlw	32	;' '
   828  11B9  3474               	retlw	116	;'t'
   829  11BA  346F               	retlw	111	;'o'
   830  11BB  346F               	retlw	111	;'o'
   831  11BC  3420               	retlw	32	;' '
   832  11BD  3468               	retlw	104	;'h'
   833  11BE  3469               	retlw	105	;'i'
   834  11BF  3467               	retlw	103	;'g'
   835  11C0  3468               	retlw	104	;'h'
   836  11C1  3400               	retlw	0
   837  11C2                     STR_74:	
   838  11C2  3441               	retlw	65	;'A'
   839  11C3  346C               	retlw	108	;'l'
   840  11C4  346C               	retlw	108	;'l'
   841  11C5  3420               	retlw	32	;' '
   842  11C6  3469               	retlw	105	;'i'
   843  11C7  346F               	retlw	111	;'o'
   844  11C8  3427               	retlw	39	;'''
   845  11C9  3473               	retlw	115	;'s'
   846  11CA  3420               	retlw	32	;' '
   847  11CB  3468               	retlw	104	;'h'
   848  11CC  3469               	retlw	105	;'i'
   849  11CD  3467               	retlw	103	;'g'
   850  11CE  3468               	retlw	104	;'h'
   851  11CF  3400               	retlw	0
   852  11D0                     STR_112:	
   853  11D0  344D               	retlw	77	;'M'
   854  11D1  346F               	retlw	111	;'o'
   855  11D2  3474               	retlw	116	;'t'
   856  11D3  346F               	retlw	111	;'o'
   857  11D4  3472               	retlw	114	;'r'
   858  11D5  3420               	retlw	32	;' '
   859  11D6  3443               	retlw	67	;'C'
   860  11D7  3469               	retlw	105	;'i'
   861  11D8  3472               	retlw	114	;'r'
   862  11D9  3463               	retlw	99	;'c'
   863  11DA  3475               	retlw	117	;'u'
   864  11DB  3469               	retlw	105	;'i'
   865  11DC  3474               	retlw	116	;'t'
   866  11DD  3400               	retlw	0
   867  11DE                     STR_114:	
   868  11DE  3443               	retlw	67	;'C'
   869  11DF  3469               	retlw	105	;'i'
   870  11E0  3472               	retlw	114	;'r'
   871  11E1  3463               	retlw	99	;'c'
   872  11E2  3475               	retlw	117	;'u'
   873  11E3  3469               	retlw	105	;'i'
   874  11E4  3474               	retlw	116	;'t'
   875  11E5  3420               	retlw	32	;' '
   876  11E6  3453               	retlw	83	;'S'
   877  11E7  3468               	retlw	104	;'h'
   878  11E8  346F               	retlw	111	;'o'
   879  11E9  3472               	retlw	114	;'r'
   880  11EA  3474               	retlw	116	;'t'
   881  11EB  3400               	retlw	0
   882  11EC                     STR_1:	
   883  11EC  3443               	retlw	67	;'C'
   884  11ED  346F               	retlw	111	;'o'
   885  11EE  346D               	retlw	109	;'m'
   886  11EF  346D               	retlw	109	;'m'
   887  11F0  3473               	retlw	115	;'s'
   888  11F1  3420               	retlw	32	;' '
   889  11F2  3454               	retlw	84	;'T'
   890  11F3  3469               	retlw	105	;'i'
   891  11F4  346D               	retlw	109	;'m'
   892  11F5  3465               	retlw	101	;'e'
   893  11F6  346F               	retlw	111	;'o'
   894  11F7  3475               	retlw	117	;'u'
   895  11F8  3474               	retlw	116	;'t'
   896  11F9  3400               	retlw	0
   897  11FA                     STR_80:	
   898  11FA  3442               	retlw	66	;'B'
   899  11FB  3475               	retlw	117	;'u'
   900  11FC  3474               	retlw	116	;'t'
   901  11FD  3474               	retlw	116	;'t'
   902  11FE  3420               	retlw	32	;' '
   903  11FF  3455               	retlw	85	;'U'
   904  1200  3470               	retlw	112	;'p'
   905  1201  3420               	retlw	32	;' '
   906  1202  3449               	retlw	73	;'I'
   907  1203  346E               	retlw	110	;'n'
   908  1204  3470               	retlw	112	;'p'
   909  1205  3475               	retlw	117	;'u'
   910  1206  3474               	retlw	116	;'t'
   911  1207  3400               	retlw	0
   912  1208                     STR_76:	
   913  1208  3445               	retlw	69	;'E'
   914  1209  346E               	retlw	110	;'n'
   915  120A  3463               	retlw	99	;'c'
   916  120B  346F               	retlw	111	;'o'
   917  120C  3464               	retlw	100	;'d'
   918  120D  3465               	retlw	101	;'e'
   919  120E  3472               	retlw	114	;'r'
   920  120F  3420               	retlw	32	;' '
   921  1210  3449               	retlw	73	;'I'
   922  1211  346E               	retlw	110	;'n'
   923  1212  3470               	retlw	112	;'p'
   924  1213  3475               	retlw	117	;'u'
   925  1214  3474               	retlw	116	;'t'
   926  1215  3400               	retlw	0
   927  1216                     STR_78:	
   928  1216  3445               	retlw	69	;'E'
   929  1217  3463               	retlw	99	;'c'
   930  1218  3461               	retlw	97	;'a'
   931  1219  346E               	retlw	110	;'n'
   932  121A  3420               	retlw	32	;' '
   933  121B  3452               	retlw	82	;'R'
   934  121C  3478               	retlw	120	;'x'
   935  121D  3420               	retlw	32	;' '
   936  121E  3449               	retlw	73	;'I'
   937  121F  346E               	retlw	110	;'n'
   938  1220  3470               	retlw	112	;'p'
   939  1221  3475               	retlw	117	;'u'
   940  1222  3474               	retlw	116	;'t'
   941  1223  3400               	retlw	0
   942  1224                     STR_21:	
   943  1224  344D               	retlw	77	;'M'
   944  1225  3465               	retlw	101	;'e'
   945  1226  3461               	retlw	97	;'a'
   946  1227  3473               	retlw	115	;'s'
   947  1228  3475               	retlw	117	;'u'
   948  1229  3472               	retlw	114	;'r'
   949  122A  3469               	retlw	105	;'i'
   950  122B  346E               	retlw	110	;'n'
   951  122C  3467               	retlw	103	;'g'
   952  122D  3420               	retlw	32	;' '
   953  122E  3456               	retlw	86	;'V'
   954  122F  3431               	retlw	49	;'1'
   955  1230  3400               	retlw	0
   956  1231                     STR_99:	
   957  1231  3441               	retlw	65	;'A'
   958  1232  346C               	retlw	108	;'l'
   959  1233  346C               	retlw	108	;'l'
   960  1234  3420               	retlw	32	;' '
   961  1235  344C               	retlw	76	;'L'
   962  1236  3465               	retlw	101	;'e'
   963  1237  3464               	retlw	100	;'d'
   964  1238  3473               	retlw	115	;'s'
   965  1239  3420               	retlw	32	;' '
   966  123A  344F               	retlw	79	;'O'
   967  123B  346E               	retlw	110	;'n'
   968  123C  343F               	retlw	63	;'?'
   969  123D  3400               	retlw	0
   970  123E                     STR_51:	
   971  123E  3456               	retlw	86	;'V'
   972  123F  3431               	retlw	49	;'1'
   973  1240  3420               	retlw	32	;' '
   974  1241  3456               	retlw	86	;'V'
   975  1242  346F               	retlw	111	;'o'
   976  1243  346C               	retlw	108	;'l'
   977  1244  3474               	retlw	116	;'t'
   978  1245  3461               	retlw	97	;'a'
   979  1246  3467               	retlw	103	;'g'
   980  1247  3465               	retlw	101	;'e'
   981  1248  3420               	retlw	32	;' '
   982  1249  3462               	retlw	98	;'b'
   983  124A  3400               	retlw	0
   984  124B                     STR_108:	
   985  124B  3442               	retlw	66	;'B'
   986  124C  3461               	retlw	97	;'a'
   987  124D  3474               	retlw	116	;'t'
   988  124E  3474               	retlw	116	;'t'
   989  124F  3465               	retlw	101	;'e'
   990  1250  3472               	retlw	114	;'r'
   991  1251  3479               	retlw	121	;'y'
   992  1252  3420               	retlw	32	;' '
   993  1253  3444               	retlw	68	;'D'
   994  1254  3469               	retlw	105	;'i'
   995  1255  3473               	retlw	115	;'s'
   996  1256  3463               	retlw	99	;'c'
   997  1257  3400               	retlw	0
   998  1258                     STR_68:	
   999  1258  344E               	retlw	78	;'N'
  1000  1259  346F               	retlw	111	;'o'
  1001  125A  3474               	retlw	116	;'t'
  1002  125B  3420               	retlw	32	;' '
  1003  125C  3472               	retlw	114	;'r'
  1004  125D  3465               	retlw	101	;'e'
  1005  125E  346C               	retlw	108	;'l'
  1006  125F  3465               	retlw	101	;'e'
  1007  1260  3461               	retlw	97	;'a'
  1008  1261  3473               	retlw	115	;'s'
  1009  1262  3465               	retlw	101	;'e'
  1010  1263  3464               	retlw	100	;'d'
  1011  1264  3400               	retlw	0
  1012  1265                     STR_39:	
  1013  1265  3433               	retlw	51	;'3'
  1014  1266  342E               	retlw	46	;'.'
  1015  1267  3433               	retlw	51	;'3'
  1016  1268  3456               	retlw	86	;'V'
  1017  1269  3420               	retlw	32	;' '
  1018  126A  3456               	retlw	86	;'V'
  1019  126B  346F               	retlw	111	;'o'
  1020  126C  346C               	retlw	108	;'l'
  1021  126D  3474               	retlw	116	;'t'
  1022  126E  3461               	retlw	97	;'a'
  1023  126F  3467               	retlw	103	;'g'
  1024  1270  3465               	retlw	101	;'e'
  1025  1271  3400               	retlw	0
  1026  1272                     STR_118:	
  1027  1272  3443               	retlw	67	;'C'
  1028  1273  3469               	retlw	105	;'i'
  1029  1274  3472               	retlw	114	;'r'
  1030  1275  3463               	retlw	99	;'c'
  1031  1276  3475               	retlw	117	;'u'
  1032  1277  3469               	retlw	105	;'i'
  1033  1278  3474               	retlw	116	;'t'
  1034  1279  3420               	retlw	32	;' '
  1035  127A  344F               	retlw	79	;'O'
  1036  127B  3470               	retlw	112	;'p'
  1037  127C  3465               	retlw	101	;'e'
  1038  127D  346E               	retlw	110	;'n'
  1039  127E  3400               	retlw	0
  1040  127F                     STR_5:	
  1041  127F  3444               	retlw	68	;'D'
  1042  1280  3443               	retlw	67	;'C'
  1043  1281  3442               	retlw	66	;'B'
  1044  1282  3441               	retlw	65	;'A'
  1045  1283  3420               	retlw	32	;' '
  1046  1284  3452               	retlw	82	;'R'
  1047  1285  346F               	retlw	111	;'o'
  1048  1286  346C               	retlw	108	;'l'
  1049  1287  346C               	retlw	108	;'l'
  1050  1288  342D               	retlw	45	;'-'
  1051  1289  3475               	retlw	117	;'u'
  1052  128A  3470               	retlw	112	;'p'
  1053  128B  3400               	retlw	0
  1054  128C                     STR_31:	
  1055  128C  344D               	retlw	77	;'M'
  1056  128D  3465               	retlw	101	;'e'
  1057  128E  3461               	retlw	97	;'a'
  1058  128F  3473               	retlw	115	;'s'
  1059  1290  3475               	retlw	117	;'u'
  1060  1291  3472               	retlw	114	;'r'
  1061  1292  3469               	retlw	105	;'i'
  1062  1293  346E               	retlw	110	;'n'
  1063  1294  3467               	retlw	103	;'g'
  1064  1295  3420               	retlw	32	;' '
  1065  1296  3435               	retlw	53	;'5'
  1066  1297  3476               	retlw	118	;'v'
  1067  1298  3400               	retlw	0
  1068  1299                     STR_144:	
  1069  1299  3443               	retlw	67	;'C'
  1070  129A  3475               	retlw	117	;'u'
  1071  129B  3472               	retlw	114	;'r'
  1072  129C  3472               	retlw	114	;'r'
  1073  129D  3420               	retlw	32	;' '
  1074  129E  3474               	retlw	116	;'t'
  1075  129F  346F               	retlw	111	;'o'
  1076  12A0  346F               	retlw	111	;'o'
  1077  12A1  3420               	retlw	32	;' '
  1078  12A2  346C               	retlw	108	;'l'
  1079  12A3  346F               	retlw	111	;'o'
  1080  12A4  3477               	retlw	119	;'w'
  1081  12A5  3400               	retlw	0
  1082  12A6                     STR_177:	
  1083  12A6  3450               	retlw	80	;'P'
  1084  12A7  3472               	retlw	114	;'r'
  1085  12A8  3465               	retlw	101	;'e'
  1086  12A9  3473               	retlw	115	;'s'
  1087  12AA  3473               	retlw	115	;'s'
  1088  12AB  3420               	retlw	32	;' '
  1089  12AC  3453               	retlw	83	;'S'
  1090  12AD  3454               	retlw	84	;'T'
  1091  12AE  3441               	retlw	65	;'A'
  1092  12AF  3452               	retlw	82	;'R'
  1093  12B0  3454               	retlw	84	;'T'
  1094  12B1  3400               	retlw	0
  1095  12B2                     STR_27:	
  1096  12B2  3432               	retlw	50	;'2'
  1097  12B3  3434               	retlw	52	;'4'
  1098  12B4  3456               	retlw	86	;'V'
  1099  12B5  3420               	retlw	32	;' '
  1100  12B6  3456               	retlw	86	;'V'
  1101  12B7  346F               	retlw	111	;'o'
  1102  12B8  346C               	retlw	108	;'l'
  1103  12B9  3474               	retlw	116	;'t'
  1104  12BA  3461               	retlw	97	;'a'
  1105  12BB  3467               	retlw	103	;'g'
  1106  12BC  3465               	retlw	101	;'e'
  1107  12BD  3400               	retlw	0
  1108  12BE                     STR_171:	
  1109  12BE  3452               	retlw	82	;'R'
  1110  12BF  3458               	retlw	88	;'X'
  1111  12C0  3433               	retlw	51	;'3'
  1112  12C1  3420               	retlw	32	;' '
  1113  12C2  3454               	retlw	84	;'T'
  1114  12C3  3465               	retlw	101	;'e'
  1115  12C4  3473               	retlw	115	;'s'
  1116  12C5  3474               	retlw	116	;'t'
  1117  12C6  346A               	retlw	106	;'j'
  1118  12C7  3469               	retlw	105	;'i'
  1119  12C8  3467               	retlw	103	;'g'
  1120  12C9  3400               	retlw	0
  1121  12CA                     STR_43:	
  1122  12CA  3450               	retlw	80	;'P'
  1123  12CB  3472               	retlw	114	;'r'
  1124  12CC  346F               	retlw	111	;'o'
  1125  12CD  3467               	retlw	103	;'g'
  1126  12CE  3472               	retlw	114	;'r'
  1127  12CF  3461               	retlw	97	;'a'
  1128  12D0  346D               	retlw	109	;'m'
  1129  12D1  346D               	retlw	109	;'m'
  1130  12D2  3469               	retlw	105	;'i'
  1131  12D3  346E               	retlw	110	;'n'
  1132  12D4  3467               	retlw	103	;'g'
  1133  12D5  3400               	retlw	0
  1134  12D6                     STR_113:	
  1135  12D6  3445               	retlw	69	;'E'
  1136  12D7  3472               	retlw	114	;'r'
  1137  12D8  3472               	retlw	114	;'r'
  1138  12D9  346F               	retlw	111	;'o'
  1139  12DA  3472               	retlw	114	;'r'
  1140  12DB  3420               	retlw	32	;' '
  1141  12DC  344D               	retlw	77	;'M'
  1142  12DD  346F               	retlw	111	;'o'
  1143  12DE  3474               	retlw	116	;'t'
  1144  12DF  346F               	retlw	111	;'o'
  1145  12E0  3472               	retlw	114	;'r'
  1146  12E1  3400               	retlw	0
  1147  12E2                     STR_141:	
  1148  12E2  3443               	retlw	67	;'C'
  1149  12E3  3468               	retlw	104	;'h'
  1150  12E4  3461               	retlw	97	;'a'
  1151  12E5  3472               	retlw	114	;'r'
  1152  12E6  3467               	retlw	103	;'g'
  1153  12E7  3465               	retlw	101	;'e'
  1154  12E8  3472               	retlw	114	;'r'
  1155  12E9  3420               	retlw	32	;' '
  1156  12EA  3445               	retlw	69	;'E'
  1157  12EB  3472               	retlw	114	;'r'
  1158  12EC  3472               	retlw	114	;'r'
  1159  12ED  3400               	retlw	0
  1160  12EE                     STR_147:	
  1161  12EE  3443               	retlw	67	;'C'
  1162  12EF  346F               	retlw	111	;'o'
  1163  12F0  346E               	retlw	110	;'n'
  1164  12F1  3464               	retlw	100	;'d'
  1165  12F2  346F               	retlw	111	;'o'
  1166  12F3  3433               	retlw	51	;'3'
  1167  12F4  3420               	retlw	32	;' '
  1168  12F5  3450               	retlw	80	;'P'
  1169  12F6  3461               	retlw	97	;'a'
  1170  12F7  3473               	retlw	115	;'s'
  1171  12F8  3473               	retlw	115	;'s'
  1172  12F9  3400               	retlw	0
  1173  12FA                     STR_16:	
  1174  12FA  344D               	retlw	77	;'M'
  1175  12FB  346F               	retlw	111	;'o'
  1176  12FC  3474               	retlw	116	;'t'
  1177  12FD  346F               	retlw	111	;'o'
  1178  12FE  3472               	retlw	114	;'r'
  1179  12FF  3420               	retlw	32	;' '
  1180  1300  3453               	retlw	83	;'S'
  1181  1301  3468               	retlw	104	;'h'
  1182  1302  346F               	retlw	111	;'o'
  1183  1303  3472               	retlw	114	;'r'
  1184  1304  3474               	retlw	116	;'t'
  1185  1305  3400               	retlw	0
  1186  1306                     STR_84:	
  1187  1306  344C               	retlw	76	;'L'
  1188  1307  3469               	retlw	105	;'i'
  1189  1308  346D               	retlw	109	;'m'
  1190  1309  3469               	retlw	105	;'i'
  1191  130A  3474               	retlw	116	;'t'
  1192  130B  3420               	retlw	32	;' '
  1193  130C  3449               	retlw	73	;'I'
  1194  130D  346E               	retlw	110	;'n'
  1195  130E  3470               	retlw	112	;'p'
  1196  130F  3475               	retlw	117	;'u'
  1197  1310  3474               	retlw	116	;'t'
  1198  1311  3400               	retlw	0
  1199  1312                     STR_33:	
  1200  1312  3435               	retlw	53	;'5'
  1201  1313  3456               	retlw	86	;'V'
  1202  1314  3420               	retlw	32	;' '
  1203  1315  3456               	retlw	86	;'V'
  1204  1316  346F               	retlw	111	;'o'
  1205  1317  346C               	retlw	108	;'l'
  1206  1318  3474               	retlw	116	;'t'
  1207  1319  3461               	retlw	97	;'a'
  1208  131A  3467               	retlw	103	;'g'
  1209  131B  3465               	retlw	101	;'e'
  1210  131C  3400               	retlw	0
  1211  131D                     STR_55:	
  1212  131D  3443               	retlw	67	;'C'
  1213  131E  3468               	retlw	104	;'h'
  1214  131F  3461               	retlw	97	;'a'
  1215  1320  3472               	retlw	114	;'r'
  1216  1321  3467               	retlw	103	;'g'
  1217  1322  3465               	retlw	101	;'e'
  1218  1323  3420               	retlw	32	;' '
  1219  1324  3445               	retlw	69	;'E'
  1220  1325  3472               	retlw	114	;'r'
  1221  1326  3472               	retlw	114	;'r'
  1222  1327  3400               	retlw	0
  1223  1328                     STR_105:	
  1224  1328  3442               	retlw	66	;'B'
  1225  1329  3475               	retlw	117	;'u'
  1226  132A  347A               	retlw	122	;'z'
  1227  132B  347A               	retlw	122	;'z'
  1228  132C  3420               	retlw	32	;' '
  1229  132D  344F               	retlw	79	;'O'
  1230  132E  3466               	retlw	102	;'f'
  1231  132F  3466               	retlw	102	;'f'
  1232  1330  343F               	retlw	63	;'?'
  1233  1331  3400               	retlw	0
  1234  1332                     STR_63:	
  1235  1332  3432               	retlw	50	;'2'
  1236  1333  3434               	retlw	52	;'4'
  1237  1334  3456               	retlw	86	;'V'
  1238  1335  3420               	retlw	32	;' '
  1239  1336  3453               	retlw	83	;'S'
  1240  1337  3445               	retlw	69	;'E'
  1241  1338  344E               	retlw	78	;'N'
  1242  1339  3453               	retlw	83	;'S'
  1243  133A  3445               	retlw	69	;'E'
  1244  133B  3400               	retlw	0
  1245  133C                     STR_17:	
  1246  133C  344D               	retlw	77	;'M'
  1247  133D  3465               	retlw	101	;'e'
  1248  133E  3461               	retlw	97	;'a'
  1249  133F  3473               	retlw	115	;'s'
  1250  1340  3475               	retlw	117	;'u'
  1251  1341  3472               	retlw	114	;'r'
  1252  1342  3469               	retlw	105	;'i'
  1253  1343  346E               	retlw	110	;'n'
  1254  1344  3467               	retlw	103	;'g'
  1255  1345  3400               	retlw	0
  1256  1346                     STR_132:	
  1257  1346  3452               	retlw	82	;'R'
  1258  1347  3478               	retlw	120	;'x'
  1259  1348  3420               	retlw	32	;' '
  1260  1349  3453               	retlw	83	;'S'
  1261  134A  3479               	retlw	121	;'y'
  1262  134B  3473               	retlw	115	;'s'
  1263  134C  3474               	retlw	116	;'t'
  1264  134D  3465               	retlw	101	;'e'
  1265  134E  346D               	retlw	109	;'m'
  1266  134F  3400               	retlw	0
  1267  1350                     STR_96:	
  1268  1350  3455               	retlw	85	;'U'
  1269  1351  3470               	retlw	112	;'p'
  1270  1352  3420               	retlw	32	;' '
  1271  1353  3442               	retlw	66	;'B'
  1272  1354  3475               	retlw	117	;'u'
  1273  1355  3474               	retlw	116	;'t'
  1274  1356  3474               	retlw	116	;'t'
  1275  1357  346F               	retlw	111	;'o'
  1276  1358  346E               	retlw	110	;'n'
  1277  1359  3400               	retlw	0
  1278  135A                     STR_145:	
  1279  135A  3454               	retlw	84	;'T'
  1280  135B  3465               	retlw	101	;'e'
  1281  135C  3473               	retlw	115	;'s'
  1282  135D  3474               	retlw	116	;'t'
  1283  135E  3420               	retlw	32	;' '
  1284  135F  3450               	retlw	80	;'P'
  1285  1360  3461               	retlw	97	;'a'
  1286  1361  3473               	retlw	115	;'s'
  1287  1362  3473               	retlw	115	;'s'
  1288  1363  3400               	retlw	0
  1289  1364                     STR_18:	
  1290  1364  3451               	retlw	81	;'Q'
  1291  1365  3420               	retlw	32	;' '
  1292  1366  3443               	retlw	67	;'C'
  1293  1367  3475               	retlw	117	;'u'
  1294  1368  3472               	retlw	114	;'r'
  1295  1369  3472               	retlw	114	;'r'
  1296  136A  3465               	retlw	101	;'e'
  1297  136B  346E               	retlw	110	;'n'
  1298  136C  3474               	retlw	116	;'t'
  1299  136D  3400               	retlw	0
  1300  136E                     STR_103:	
  1301  136E  3442               	retlw	66	;'B'
  1302  136F  3475               	retlw	117	;'u'
  1303  1370  347A               	retlw	122	;'z'
  1304  1371  347A               	retlw	122	;'z'
  1305  1372  3420               	retlw	32	;' '
  1306  1373  344F               	retlw	79	;'O'
  1307  1374  346E               	retlw	110	;'n'
  1308  1375  343F               	retlw	63	;'?'
  1309  1376  3400               	retlw	0
  1310  1377                     STR_59:	
  1311  1377  3456               	retlw	86	;'V'
  1312  1378  3432               	retlw	50	;'2'
  1313  1379  3420               	retlw	32	;' '
  1314  137A  3453               	retlw	83	;'S'
  1315  137B  3445               	retlw	69	;'E'
  1316  137C  344E               	retlw	78	;'N'
  1317  137D  3453               	retlw	83	;'S'
  1318  137E  3445               	retlw	69	;'E'
  1319  137F  3400               	retlw	0
  1320  1380                     STR_133:	
  1321  1380  3445               	retlw	69	;'E'
  1322  1381  3472               	retlw	114	;'r'
  1323  1382  3472               	retlw	114	;'r'
  1324  1383  346F               	retlw	111	;'o'
  1325  1384  3472               	retlw	114	;'r'
  1326  1385  3420               	retlw	32	;' '
  1327  1386  3452               	retlw	82	;'R'
  1328  1387  3446               	retlw	70	;'F'
  1329  1388  3400               	retlw	0
  1330  1389                     STR_44:	
  1331  1389  3442               	retlw	66	;'B'
  1332  138A  3479               	retlw	121	;'y'
  1333  138B  3470               	retlw	112	;'p'
  1334  138C  3461               	retlw	97	;'a'
  1335  138D  3473               	retlw	115	;'s'
  1336  138E  3473               	retlw	115	;'s'
  1337  138F  3465               	retlw	101	;'e'
  1338  1390  3464               	retlw	100	;'d'
  1339  1391  3400               	retlw	0
  1340  1392                     STR_10:	
  1341  1392  3444               	retlw	68	;'D'
  1342  1393  3465               	retlw	101	;'e'
  1343  1394  3474               	retlw	116	;'t'
  1344  1395  3465               	retlw	101	;'e'
  1345  1396  3463               	retlw	99	;'c'
  1346  1397  3474               	retlw	116	;'t'
  1347  1398  3465               	retlw	101	;'e'
  1348  1399  3464               	retlw	100	;'d'
  1349  139A  3400               	retlw	0
  1350  139B                     STR_20:	
  1351  139B  3454               	retlw	84	;'T'
  1352  139C  346F               	retlw	111	;'o'
  1353  139D  346F               	retlw	111	;'o'
  1354  139E  3420               	retlw	32	;' '
  1355  139F  3448               	retlw	72	;'H'
  1356  13A0  3469               	retlw	105	;'i'
  1357  13A1  3467               	retlw	103	;'g'
  1358  13A2  3468               	retlw	104	;'h'
  1359  13A3  3400               	retlw	0
  1360  13A4                     STR_149:	
  1361  13A4  3452               	retlw	82	;'R'
  1362  13A5  3458               	retlw	88	;'X'
  1363  13A6  3433               	retlw	51	;'3'
  1364  13A7  3420               	retlw	32	;' '
  1365  13A8  3450               	retlw	80	;'P'
  1366  13A9  3461               	retlw	97	;'a'
  1367  13AA  3473               	retlw	115	;'s'
  1368  13AB  3473               	retlw	115	;'s'
  1369  13AC  3400               	retlw	0
  1370  13AD                     STR_86:	
  1371  13AD  3442               	retlw	66	;'B'
  1372  13AE  3474               	retlw	116	;'t'
  1373  13AF  3420               	retlw	32	;' '
  1374  13B0  3449               	retlw	73	;'I'
  1375  13B1  346E               	retlw	110	;'n'
  1376  13B2  3470               	retlw	112	;'p'
  1377  13B3  3475               	retlw	117	;'u'
  1378  13B4  3474               	retlw	116	;'t'
  1379  13B5  3400               	retlw	0
  1380  13B6                     STR_161:	
  1381  13B6  3443               	retlw	67	;'C'
  1382  13B7  346F               	retlw	111	;'o'
  1383  13B8  346E               	retlw	110	;'n'
  1384  13B9  3464               	retlw	100	;'d'
  1385  13BA  346F               	retlw	111	;'o'
  1386  13BB  3433               	retlw	51	;'3'
  1387  13BC  3420               	retlw	32	;' '
  1388  13BD  3400               	retlw	0
  1389  13BE                     STR_14:	
  1390  13BE  344F               	retlw	79	;'O'
  1391  13BF  346E               	retlw	110	;'n'
  1392  13C0  3420               	retlw	32	;' '
  1393  13C1  3441               	retlw	65	;'A'
  1394  13C2  3443               	retlw	67	;'C'
  1395  13C3  3420               	retlw	32	;' '
  1396  13C4  3432               	retlw	50	;'2'
  1397  13C5  3400               	retlw	0
  1398  13C6                     STR_73:	
  1399  13C6  3454               	retlw	84	;'T'
  1400  13C7  3465               	retlw	101	;'e'
  1401  13C8  3473               	retlw	115	;'s'
  1402  13C9  3474               	retlw	116	;'t'
  1403  13CA  3469               	retlw	105	;'i'
  1404  13CB  346E               	retlw	110	;'n'
  1405  13CC  3467               	retlw	103	;'g'
  1406  13CD  3400               	retlw	0
  1407  13CE                     STR_24:	
  1408  13CE  3454               	retlw	84	;'T'
  1409  13CF  346F               	retlw	111	;'o'
  1410  13D0  346F               	retlw	111	;'o'
  1411  13D1  3420               	retlw	32	;' '
  1412  13D2  344C               	retlw	76	;'L'
  1413  13D3  346F               	retlw	111	;'o'
  1414  13D4  3477               	retlw	119	;'w'
  1415  13D5  3400               	retlw	0
  1416  13D6                     STR_70:	
  1417  13D6  3456               	retlw	86	;'V'
  1418  13D7  3420               	retlw	32	;' '
  1419  13D8  3448               	retlw	72	;'H'
  1420  13D9  3469               	retlw	105	;'i'
  1421  13DA  3467               	retlw	103	;'g'
  1422  13DB  3468               	retlw	104	;'h'
  1423  13DC  3400               	retlw	0
  1424  13DD                     STR_48:	
  1425  13DD  3445               	retlw	69	;'E'
  1426  13DE  3452               	retlw	82	;'R'
  1427  13DF  3452               	retlw	82	;'R'
  1428  13E0  344F               	retlw	79	;'O'
  1429  13E1  3452               	retlw	82	;'R'
  1430  13E2  3400               	retlw	0
  1431  13E3                     STR_15:	
  1432  13E3  3445               	retlw	69	;'E'
  1433  13E4  3472               	retlw	114	;'r'
  1434  13E5  3472               	retlw	114	;'r'
  1435  13E6  346F               	retlw	111	;'o'
  1436  13E7  3472               	retlw	114	;'r'
  1437  13E8  3400               	retlw	0
  1438  13E9                     STR_95:	
  1439  13E9  3450               	retlw	80	;'P'
  1440  13EA  3472               	retlw	114	;'r'
  1441  13EB  3465               	retlw	101	;'e'
  1442  13EC  3473               	retlw	115	;'s'
  1443  13ED  3473               	retlw	115	;'s'
  1444  13EE  3400               	retlw	0
  1445  13EF                     STR_72:	
  1446  13EF  3456               	retlw	86	;'V'
  1447  13F0  3420               	retlw	32	;' '
  1448  13F1  344C               	retlw	76	;'L'
  1449  13F2  346F               	retlw	111	;'o'
  1450  13F3  3477               	retlw	119	;'w'
  1451  13F4  3400               	retlw	0
  1452  13F5                     STR_163:	
  1453  13F5  3452               	retlw	82	;'R'
  1454  13F6  3458               	retlw	88	;'X'
  1455  13F7  3433               	retlw	51	;'3'
  1456  13F8  3420               	retlw	32	;' '
  1457  13F9  3400               	retlw	0
  1458  13FA                     STR_50:	
  1459  13FA  3444               	retlw	68	;'D'
  1460  13FB  346F               	retlw	111	;'o'
  1461  13FC  346E               	retlw	110	;'n'
  1462  13FD  3465               	retlw	101	;'e'
  1463  13FE  3400               	retlw	0
  1464  13F9                     
  1465                           ; #config settings
  1466  0000                     
  1467                           	psect	cinit
  1468  00B9                     start_initialization:	
  1469  00B9                     __initialization:	
  1470  00B9  3020               	movlw	low __pbssBANK0
  1471                           
  1472                           ; Clear objects allocated to BITBANK0
  1473  00BA  01EA               	clrf	(__pbitbssBANK0/(0+8))& (0+127)
  1474                           
  1475                           ; Clear objects allocated to BANK0
  1476  00BB  0084               	movwf	4
  1477  00BC  3000               	movlw	high __pbssBANK0
  1478  00BD  0085               	movwf	5
  1479  00BE  3028               	movlw	40
  1480  00BF  3188  2004         	fcall	clear_ram0
  1481                           
  1482                           ;initializer for _one_second_timer
  1483  00C1  30E8               	movlw	232
  1484  00C2  00E8               	movwf	__pdataBANK0& (0+127)
  1485  00C3  3003               	movlw	3
  1486  00C4  00E9               	movwf	(__pdataBANK0+1)& (0+127)
  1487  00C5                     end_of_initialization:	
  1488                           ;End of C runtime variable initialization code
  1489                           
  1490  00C5                     __end_of__initialization:	
  1491  00C5  107E               	bcf	126,0	;clear compiler interrupt flag (level 1)
  1492  00C6  0020               	movlb	0
  1493  00C7  3197  2F78         	ljmp	_main	;jump to C main() function
  1494                           
  1495                           	psect	bitbssBANK0
  1496  0350                     __pbitbssBANK0:	
  1497  0350                     _usart_fault_flag:	
  1498  0350                     	ds	1
  1499                           
  1500                           	psect	bssBANK0
  1501  0020                     __pbssBANK0:	
  1502  0020                     _ADC_cur_sink_val:	
  1503  0020                     	ds	2
  1504  0022                     _ADC_val:	
  1505  0022                     	ds	2
  1506  0024                     _Data_Temp_Work_int:	
  1507  0024                     	ds	2
  1508  0026                     _buzz_timer:	
  1509  0026                     	ds	2
  1510  0028                     _curent_sink_val:	
  1511  0028                     	ds	2
  1512  002A                     _current_sink_stable:	
  1513  002A                     	ds	2
  1514  002C                     _current_sink_timer:	
  1515  002C                     	ds	2
  1516  002E                     _motor_direction_timer:	
  1517  002E                     	ds	2
  1518  0030                     _pickit_all_counter:	
  1519  0030                     	ds	2
  1520  0032                     _pickit_pgm_timeout:	
  1521  0032                     	ds	2
  1522  0034                     _pickit_red_counter:	
  1523  0034                     	ds	2
  1524  0036                     _pickit_timer:	
  1525  0036                     	ds	2
  1526  0038                     _testjig_timer:	
  1527  0038                     	ds	2
  1528  003A                     _tj_timer:	
  1529  003A                     	ds	2
  1530  003C                     _uart_receive_timer:	
  1531  003C                     	ds	2
  1532  003E                     _usart_timer:	
  1533  003E                     	ds	2
  1534  0040                     _hund:	
  1535  0040                     	ds	1
  1536  0041                     _pickit_state:	
  1537  0041                     	ds	1
  1538  0042                     _ten:	
  1539  0042                     	ds	1
  1540  0043                     _ten_thou:	
  1541  0043                     	ds	1
  1542  0044                     _unit:	
  1543  0044                     	ds	1
  1544  0045                     _usart_fault_state:	
  1545  0045                     	ds	1
  1546  0046                     _usart_receive_state_main:	
  1547  0046                     	ds	1
  1548  0047                     _thou:	
  1549  0047                     	ds	1
  1550                           
  1551                           	psect	dataBANK0
  1552  0068                     __pdataBANK0:	
  1553  0068                     _one_second_timer:	
  1554  0068                     	ds	2
  1555                           
  1556                           	psect	clrtext
  1557  0804                     clear_ram0:	
  1558                           ;	Called with FSR0 containing the base address, and
  1559                           ;	WREG with the size to clear
  1560                           
  1561  0804  0064               	clrwdt	;clear the watchdog before getting into this loop
  1562  0805                     clrloop0:	
  1563  0805  0180               	clrf	0	;clear RAM location pointed to by FSR
  1564  0806  3101               	addfsr 0,1
  1565  0807  0B89               	decfsz	9,f	;Have we reached the end of clearing yet?
  1566  0808  2805               	goto	clrloop0	;have we reached the end yet?
  1567  0809  3400               	retlw	0	;all done for this memory range, return
  1568                           
  1569                           	psect	cstackCOMMON
  1570  0070                     __pcstackCOMMON:	
  1571  0070                     ?_power_supply_set:	
  1572  0070                     ??_power_supply_set:	
  1573                           ; 0 bytes @ 0x0
  1574                           
  1575  0070                     ?_init_ADC:	
  1576                           ; 0 bytes @ 0x0
  1577                           
  1578  0070                     ??_init_ADC:	
  1579                           ; 0 bytes @ 0x0
  1580                           
  1581  0070                     ?_init_current_sink:	
  1582                           ; 0 bytes @ 0x0
  1583                           
  1584  0070                     ??_init_current_sink:	
  1585                           ; 0 bytes @ 0x0
  1586                           
  1587  0070                     ?_buzz_one:	
  1588                           ; 0 bytes @ 0x0
  1589                           
  1590  0070                     ?_init_i2c:	
  1591                           ; 0 bytes @ 0x0
  1592                           
  1593  0070                     ??_init_i2c:	
  1594                           ; 0 bytes @ 0x0
  1595                           
  1596  0070                     ?_debug_fast_tx:	
  1597                           ; 0 bytes @ 0x0
  1598                           
  1599  0070                     ?_init_uart2:	
  1600                           ; 0 bytes @ 0x0
  1601                           
  1602  0070                     ??_init_uart2:	
  1603                           ; 0 bytes @ 0x0
  1604                           
  1605  0070                     ?_init_uart1:	
  1606                           ; 0 bytes @ 0x0
  1607                           
  1608  0070                     ??_init_uart1:	
  1609                           ; 0 bytes @ 0x0
  1610                           
  1611  0070                     ?_EUSART1_Write:	
  1612                           ; 0 bytes @ 0x0
  1613                           
  1614  0070                     ??_EUSART1_Write:	
  1615                           ; 0 bytes @ 0x0
  1616                           
  1617  0070                     ??_manage_read_byte:	
  1618                           ; 0 bytes @ 0x0
  1619                           
  1620  0070                     ?_isr:	
  1621                           ; 0 bytes @ 0x0
  1622                           
  1623  0070                     ??_isr:	
  1624                           ; 0 bytes @ 0x0
  1625                           
  1626  0070                     ?_main:	
  1627                           ; 0 bytes @ 0x0
  1628                           
  1629  0070                     ?_i2c_Start:	
  1630                           ; 0 bytes @ 0x0
  1631                           
  1632  0070                     ??_i2c_Start:	
  1633                           ; 0 bytes @ 0x0
  1634                           
  1635  0070                     ?_i2c_Write:	
  1636                           ; 0 bytes @ 0x0
  1637                           
  1638  0070                     ??_i2c_Write:	
  1639                           ; 0 bytes @ 0x0
  1640                           
  1641  0070                     ?_i2c_Stop:	
  1642                           ; 0 bytes @ 0x0
  1643                           
  1644  0070                     ??_i2c_Stop:	
  1645                           ; 0 bytes @ 0x0
  1646                           
  1647  0070                     ?_i2c_write_char:	
  1648                           ; 0 bytes @ 0x0
  1649                           
  1650  0070                     ?_clear_lcd:	
  1651                           ; 0 bytes @ 0x0
  1652                           
  1653  0070                     ?_i2c_first_line:	
  1654                           ; 0 bytes @ 0x0
  1655                           
  1656  0070                     ?_i2c_second_line:	
  1657                           ; 0 bytes @ 0x0
  1658                           
  1659  0070                     ?_manage_read_byte:	
  1660                           ; 0 bytes @ 0x0
  1661                           
  1662  0070                     ?___bmul:	
  1663                           ; 1 bytes @ 0x0
  1664                           
  1665  0070                     ?_ADC_get_val:	
  1666                           ; 1 bytes @ 0x0
  1667                           
  1668  0070                     ?___wmul:	
  1669                           ; 2 bytes @ 0x0
  1670                           
  1671  0070                     ?___ftpack:	
  1672                           ; 2 bytes @ 0x0
  1673                           
  1674  0070                     EUSART1_Write@txData:	
  1675                           ; 3 bytes @ 0x0
  1676                           
  1677  0070                     manage_read_byte@timeout_enable:	
  1678                           ; 1 bytes @ 0x0
  1679                           
  1680  0070                     i2c_Write@data:	
  1681                           ; 1 bytes @ 0x0
  1682                           
  1683  0070                     power_supply_set@supply:	
  1684                           ; 1 bytes @ 0x0
  1685                           
  1686  0070                     ___bmul@multiplicand:	
  1687                           ; 1 bytes @ 0x0
  1688                           
  1689  0070                     buzz_one@time:	
  1690                           ; 1 bytes @ 0x0
  1691                           
  1692  0070                     debug_fast_tx@data:	
  1693                           ; 2 bytes @ 0x0
  1694                           
  1695  0070                     ___wmul@multiplier:	
  1696                           ; 2 bytes @ 0x0
  1697                           
  1698  0070                     ___ftpack@arg:	
  1699                           ; 2 bytes @ 0x0
  1700                           
  1701                           
  1702                           ; 3 bytes @ 0x0
  1703  0070                     	ds	1
  1704  0071                     ?_init_i2c_lcd_5v:	
  1705  0071                     ?_send_usart_packet_manage:	
  1706                           ; 0 bytes @ 0x1
  1707                           
  1708  0071                     ?_i2c_Write_string:	
  1709                           ; 0 bytes @ 0x1
  1710                           
  1711  0071                     ??_i2c_write_char:	
  1712                           ; 0 bytes @ 0x1
  1713                           
  1714  0071                     ??_clear_lcd:	
  1715                           ; 0 bytes @ 0x1
  1716                           
  1717  0071                     ??_i2c_first_line:	
  1718                           ; 0 bytes @ 0x1
  1719                           
  1720  0071                     ??_i2c_second_line:	
  1721                           ; 0 bytes @ 0x1
  1722                           
  1723  0071                     ?_lcd_set_cursor:	
  1724                           ; 0 bytes @ 0x1
  1725                           
  1726  0071                     ??___bmul:	
  1727                           ; 0 bytes @ 0x1
  1728                           
  1729  0071                     i2c_write_char@char_data:	
  1730                           ; 0 bytes @ 0x1
  1731                           
  1732  0071                     init_i2c_lcd_5v@single1_double2:	
  1733                           ; 1 bytes @ 0x1
  1734                           
  1735  0071                     lcd_set_cursor@col:	
  1736                           ; 1 bytes @ 0x1
  1737                           
  1738  0071                     ___bmul@product:	
  1739                           ; 1 bytes @ 0x1
  1740                           
  1741  0071                     send_usart_packet_manage@Data_carry:	
  1742                           ; 1 bytes @ 0x1
  1743                           
  1744  0071                     i2c_Write_string@data:	
  1745                           ; 2 bytes @ 0x1
  1746                           
  1747                           
  1748                           ; 2 bytes @ 0x1
  1749  0071                     	ds	1
  1750  0072                     ??_buzz_one:	
  1751  0072                     ??_init_i2c_lcd_5v:	
  1752                           ; 0 bytes @ 0x2
  1753                           
  1754  0072                     ??_debug_fast_tx:	
  1755                           ; 0 bytes @ 0x2
  1756                           
  1757  0072                     ??_ADC_get_val:	
  1758                           ; 0 bytes @ 0x2
  1759                           
  1760  0072                     ??_lcd_set_cursor:	
  1761                           ; 0 bytes @ 0x2
  1762                           
  1763  0072                     lcd_set_cursor@row:	
  1764                           ; 0 bytes @ 0x2
  1765                           
  1766  0072                     debug_fast_tx@i:	
  1767                           ; 1 bytes @ 0x2
  1768                           
  1769  0072                     ___bmul@multiplier:	
  1770                           ; 1 bytes @ 0x2
  1771                           
  1772  0072                     ___wmul@multiplicand:	
  1773                           ; 1 bytes @ 0x2
  1774                           
  1775                           
  1776                           ; 2 bytes @ 0x2
  1777  0072                     	ds	1
  1778  0073                     ??_send_usart_packet_manage:	
  1779  0073                     ??_i2c_Write_string:	
  1780                           ; 0 bytes @ 0x3
  1781                           
  1782  0073                     lcd_set_cursor@LCD_position:	
  1783                           ; 0 bytes @ 0x3
  1784                           
  1785  0073                     ___ftpack@exp:	
  1786                           ; 1 bytes @ 0x3
  1787                           
  1788                           
  1789                           ; 1 bytes @ 0x3
  1790  0073                     	ds	1
  1791  0074                     ?_print_screen:	
  1792  0074                     ??___wmul:	
  1793                           ; 0 bytes @ 0x4
  1794                           
  1795  0074                     init_i2c_lcd_5v@contrast:	
  1796                           ; 0 bytes @ 0x4
  1797                           
  1798  0074                     ADC_get_val@channel:	
  1799                           ; 1 bytes @ 0x4
  1800                           
  1801  0074                     ___ftpack@sign:	
  1802                           ; 1 bytes @ 0x4
  1803                           
  1804  0074                     print_screen@top:	
  1805                           ; 1 bytes @ 0x4
  1806                           
  1807  0074                     ___wmul@product:	
  1808                           ; 2 bytes @ 0x4
  1809                           
  1810                           
  1811                           ; 2 bytes @ 0x4
  1812  0074                     	ds	1
  1813  0075                     ??___ftpack:	
  1814  0075                     ADC_get_val@return_val:	
  1815                           ; 0 bytes @ 0x5
  1816                           
  1817                           
  1818                           ; 2 bytes @ 0x5
  1819  0075                     	ds	1
  1820  0076                     ?_ten_thou_conv:	
  1821  0076                     ten_thou_conv@n:	
  1822                           ; 0 bytes @ 0x6
  1823                           
  1824  0076                     print_screen@bottom:	
  1825                           ; 2 bytes @ 0x6
  1826                           
  1827                           
  1828                           ; 2 bytes @ 0x6
  1829  0076                     	ds	2
  1830  0078                     ?_print_error:	
  1831  0078                     ??_print_screen:	
  1832                           ; 0 bytes @ 0x8
  1833                           
  1834  0078                     ??_ten_thou_conv:	
  1835                           ; 0 bytes @ 0x8
  1836                           
  1837  0078                     ?___lwtoft:	
  1838                           ; 0 bytes @ 0x8
  1839                           
  1840  0078                     print_error@top:	
  1841                           ; 3 bytes @ 0x8
  1842                           
  1843  0078                     ___lwtoft@c:	
  1844                           ; 2 bytes @ 0x8
  1845                           
  1846                           
  1847                           ; 2 bytes @ 0x8
  1848  0078                     	ds	2
  1849  007A                     print_error@bottom:	
  1850                           
  1851                           ; 2 bytes @ 0xA
  1852  007A                     	ds	1
  1853  007B                     ??_lcd_print_int:	
  1854  007B                     ??___ftmul:	
  1855                           ; 0 bytes @ 0xB
  1856                           
  1857  007B                     ??___lwtoft:	
  1858                           ; 0 bytes @ 0xB
  1859                           
  1860                           
  1861                           ; 0 bytes @ 0xB
  1862  007B                     	ds	1
  1863  007C                     ?_receive_data_bytes:	
  1864  007C                     receive_data_bytes@time_out_first_byte:	
  1865                           ; 2 bytes @ 0xC
  1866                           
  1867                           
  1868                           ; 2 bytes @ 0xC
  1869  007C                     	ds	2
  1870  007E                     ??_get_current:	
  1871                           
  1872                           	psect	cstackBANK0
  1873  0048                     __pcstackBANK0:	
  1874                           ; 0 bytes @ 0xE
  1875                           
  1876  0048                     ??_print_error:	
  1877  0048                     ?_lcd_print_int:	
  1878                           ; 0 bytes @ 0x0
  1879                           
  1880  0048                     ?___ftmul:	
  1881                           ; 0 bytes @ 0x0
  1882                           
  1883  0048                     send_usart_packet_manage@checksum_high_byte_4:	
  1884                           ; 3 bytes @ 0x0
  1885                           
  1886  0048                     lcd_print_int@number:	
  1887                           ; 1 bytes @ 0x0
  1888                           
  1889  0048                     ___ftmul@f1:	
  1890                           ; 2 bytes @ 0x0
  1891                           
  1892                           
  1893                           ; 3 bytes @ 0x0
  1894  0048                     	ds	1
  1895  0049                     send_usart_packet_manage@checksum_low_byte_5:	
  1896                           
  1897                           ; 1 bytes @ 0x1
  1898  0049                     	ds	1
  1899  004A                     send_usart_packet_manage@command_byte_1:	
  1900  004A                     lcd_print_int@pos:	
  1901                           ; 1 bytes @ 0x2
  1902                           
  1903                           
  1904                           ; 2 bytes @ 0x2
  1905  004A                     	ds	1
  1906  004B                     ??_receive_data_bytes:	
  1907  004B                     send_usart_packet_manage@data_high_byte_2:	
  1908                           ; 0 bytes @ 0x3
  1909                           
  1910  004B                     ___ftmul@f2:	
  1911                           ; 1 bytes @ 0x3
  1912                           
  1913                           
  1914                           ; 3 bytes @ 0x3
  1915  004B                     	ds	1
  1916  004C                     send_usart_packet_manage@data_low_byte_3:	
  1917  004C                     lcd_print_int@decimal:	
  1918                           ; 1 bytes @ 0x4
  1919                           
  1920                           
  1921                           ; 1 bytes @ 0x4
  1922  004C                     	ds	1
  1923  004D                     lcd_print_int@ten_thou_digit:	
  1924  004D                     send_usart_packet_manage@checksum_send_work:	
  1925                           ; 1 bytes @ 0x5
  1926                           
  1927                           
  1928                           ; 2 bytes @ 0x5
  1929  004D                     	ds	1
  1930  004E                     ___ftmul@exp:	
  1931                           
  1932                           ; 1 bytes @ 0x6
  1933  004E                     	ds	1
  1934  004F                     ___ftmul@f3_as_product:	
  1935                           
  1936                           ; 3 bytes @ 0x7
  1937  004F                     	ds	2
  1938  0051                     receive_data_bytes@usart_validation_work:	
  1939                           
  1940                           ; 2 bytes @ 0x9
  1941  0051                     	ds	1
  1942  0052                     ___ftmul@cntr:	
  1943                           
  1944                           ; 1 bytes @ 0xA
  1945  0052                     	ds	1
  1946  0053                     ___ftmul@sign:	
  1947  0053                     receive_data_bytes@usart_checksum:	
  1948                           ; 1 bytes @ 0xB
  1949                           
  1950                           
  1951                           ; 2 bytes @ 0xB
  1952  0053                     	ds	1
  1953  0054                     ?___fttol:	
  1954  0054                     ___fttol@f1:	
  1955                           ; 4 bytes @ 0xC
  1956                           
  1957                           
  1958                           ; 3 bytes @ 0xC
  1959  0054                     	ds	1
  1960  0055                     receive_data_bytes@data_int_value:	
  1961                           
  1962                           ; 2 bytes @ 0xD
  1963  0055                     	ds	2
  1964  0057                     receive_data_bytes@checksum_high_byte:	
  1965                           
  1966                           ; 1 bytes @ 0xF
  1967  0057                     	ds	1
  1968  0058                     ??___fttol:	
  1969  0058                     receive_data_bytes@checksum_low_byte:	
  1970                           ; 0 bytes @ 0x10
  1971                           
  1972                           
  1973                           ; 1 bytes @ 0x10
  1974  0058                     	ds	1
  1975  0059                     receive_data_bytes@command_byte:	
  1976                           
  1977                           ; 1 bytes @ 0x11
  1978  0059                     	ds	1
  1979  005A                     receive_data_bytes@data_high_byte:	
  1980                           
  1981                           ; 1 bytes @ 0x12
  1982  005A                     	ds	1
  1983  005B                     receive_data_bytes@data_low_byte:	
  1984  005B                     ___fttol@sign1:	
  1985                           ; 1 bytes @ 0x13
  1986                           
  1987                           
  1988                           ; 1 bytes @ 0x13
  1989  005B                     	ds	1
  1990  005C                     ___fttol@lval:	
  1991                           
  1992                           ; 4 bytes @ 0x14
  1993  005C                     	ds	4
  1994  0060                     ___fttol@exp1:	
  1995                           
  1996                           ; 1 bytes @ 0x18
  1997  0060                     	ds	1
  1998  0061                     ?_get_current:	
  1999                           
  2000                           ; 2 bytes @ 0x19
  2001  0061                     	ds	2
  2002  0063                     get_current@temp:	
  2003                           
  2004                           ; 2 bytes @ 0x1B
  2005  0063                     	ds	2
  2006  0065                     ??_main:	
  2007                           
  2008                           ; 0 bytes @ 0x1D
  2009  0065                     	ds	3
  2010                           
  2011                           	psect	maintext
  2012  1778                     __pmaintext:	
  2013 ;;
  2014 ;;Main: autosize = 0, tempsize = 3, incstack = 0, save=0
  2015 ;;
  2016 ;; *************** function _main *****************
  2017 ;; Defined at:
  2018 ;;		line 1090 in file "newmain1.c"
  2019 ;; Parameters:    Size  Location     Type
  2020 ;;		None
  2021 ;; Auto vars:     Size  Location     Type
  2022 ;;		None
  2023 ;; Return value:  Size  Location     Type
  2024 ;;		None               void
  2025 ;; Registers used:
  2026 ;;		wreg, fsr0l, fsr0h, status,2, status,0, pclath, cstack
  2027 ;; Tracked objects:
  2028 ;;		On entry : B1F/0
  2029 ;;		On exit  : 1D/0
  2030 ;;		Unchanged: 0/0
  2031 ;; Data sizes:     COMMON   BANK0   BANK1   BANK2   BANK3   BANK4   BANK5   BANK6   BANK7   BANK8   BANK9  BANK10  BANK1
      +1  BANK12  BANK13  BANK14  BANK15  BANK16  BANK17  BANK18
  2032 ;;      Params:         0       0       0       0       0       0       0       0       0       0       0       0       
      +0       0       0       0       0       0       0       0
  2033 ;;      Locals:         0       0       0       0       0       0       0       0       0       0       0       0       
      +0       0       0       0       0       0       0       0
  2034 ;;      Temps:          0       3       0       0       0       0       0       0       0       0       0       0       
      +0       0       0       0       0       0       0       0
  2035 ;;      Totals:         0       3       0       0       0       0       0       0       0       0       0       0       
      +0       0       0       0       0       0       0       0
  2036 ;;Total ram usage:        3 bytes
  2037 ;; Hardware stack levels required when called:    6
  2038 ;; This function calls:
  2039 ;;		_ADC_get_val
  2040 ;;		_buzz_one
  2041 ;;		_debug_fast_tx
  2042 ;;		_get_current
  2043 ;;		_init_ADC
  2044 ;;		_init_current_sink
  2045 ;;		_init_i2c
  2046 ;;		_init_i2c_lcd_5v
  2047 ;;		_init_uart1
  2048 ;;		_init_uart2
  2049 ;;		_lcd_print_int
  2050 ;;		_power_supply_set
  2051 ;;		_print_error
  2052 ;;		_print_screen
  2053 ;;		_receive_data_bytes
  2054 ;;		_send_usart_packet_manage
  2055 ;; This function is called by:
  2056 ;;		Startup code after reset
  2057 ;; This function uses a non-reentrant model
  2058 ;;
  2059                           
  2060                           
  2061                           ;psect for function _main
  2062  1778                     _main:	
  2063                           
  2064                           ;newmain1.c: 1093: OSCCON = 0x7A;
  2065                           
  2066                           ;incstack = 0
  2067                           ; Regs used in _main: [wreg-fsr0h+status,2+status,0+pclath+cstack]
  2068  1778  307A               	movlw	122
  2069  1779  0021               	movlb	1	; select bank1
  2070  177A  0099               	movwf	25	;volatile
  2071                           
  2072                           ;newmain1.c: 1095: OPTION_REG = 0b11010000;
  2073  177B  30D0               	movlw	208
  2074  177C  0095               	movwf	21	;volatile
  2075                           
  2076                           ;newmain1.c: 1096: TMR0 = 0x00;
  2077  177D  0020               	movlb	0	; select bank0
  2078  177E  0195               	clrf	21	;volatile
  2079                           
  2080                           ;newmain1.c: 1097: TMR0IF = 0;
  2081  177F  110B               	bcf	11,2	;volatile
  2082                           
  2083                           ;newmain1.c: 1098: TMR0IE = 1;
  2084  1780  168B               	bsf	11,5	;volatile
  2085                           
  2086                           ;newmain1.c: 1101: TRISA = 0b00001011;
  2087  1781  300B               	movlw	11
  2088  1782  0021               	movlb	1	; select bank1
  2089  1783  008C               	movwf	12	;volatile
  2090                           
  2091                           ;newmain1.c: 1102: TRISB = 0b00001111;
  2092  1784  300F               	movlw	15
  2093  1785  008D               	movwf	13	;volatile
  2094                           
  2095                           ;newmain1.c: 1103: TRISC = 0b00011010;
  2096  1786  301A               	movlw	26
  2097  1787  008E               	movwf	14	;volatile
  2098                           
  2099                           ;newmain1.c: 1104: TRISD = 0b10001111;
  2100  1788  308F               	movlw	143
  2101  1789  008F               	movwf	15	;volatile
  2102                           
  2103                           ;newmain1.c: 1105: TRISE = 0b11110110;
  2104  178A  30F6               	movlw	246
  2105  178B  0090               	movwf	16	;volatile
  2106                           
  2107                           ;newmain1.c: 1106: TRISF = 0b00101011;
  2108  178C  302B               	movlw	43
  2109  178D  0026               	movlb	6	; select bank6
  2110  178E  008C               	movwf	12	;volatile
  2111                           
  2112                           ;newmain1.c: 1107: TRISG = 0b11100110;
  2113  178F  30E6               	movlw	230
  2114  1790  008D               	movwf	13	;volatile
  2115                           
  2116                           ;newmain1.c: 1109: PORTA = 0b00000000;
  2117  1791  0020               	movlb	0	; select bank0
  2118  1792  018C               	clrf	12	;volatile
  2119                           
  2120                           ;newmain1.c: 1110: PORTB = 0b00000000;
  2121  1793  018D               	clrf	13	;volatile
  2122                           
  2123                           ;newmain1.c: 1111: PORTC = 0b00000000;
  2124  1794  018E               	clrf	14	;volatile
  2125                           
  2126                           ;newmain1.c: 1112: PORTD = 0b01000000;
  2127  1795  3040               	movlw	64
  2128  1796  008F               	movwf	15	;volatile
  2129                           
  2130                           ;newmain1.c: 1113: PORTE = 0b00000000;
  2131  1797  0190               	clrf	16	;volatile
  2132                           
  2133                           ;newmain1.c: 1114: PORTF = 0b00000000;
  2134  1798  0025               	movlb	5	; select bank5
  2135  1799  018C               	clrf	12	;volatile
  2136                           
  2137                           ;newmain1.c: 1115: PORTG = 0b00000000;
  2138  179A  018D               	clrf	13	;volatile
  2139                           
  2140                           ;newmain1.c: 1117: WPUB = 0b00000000;
  2141  179B  0024               	movlb	4	; select bank4
  2142  179C  018D               	clrf	13	;volatile
  2143                           
  2144                           ;newmain1.c: 1118: WPUD = 0b00000000;
  2145  179D  018F               	clrf	15	;volatile
  2146                           
  2147                           ;newmain1.c: 1119: WPUE = 0b00000000;
  2148  179E  0190               	clrf	16	;volatile
  2149                           
  2150                           ;newmain1.c: 1121: ANSELA = 0b00000000;
  2151  179F  0023               	movlb	3	; select bank3
  2152  17A0  018C               	clrf	12	;volatile
  2153                           
  2154                           ;newmain1.c: 1122: ANSELB = 0b00001100;
  2155  17A1  300C               	movlw	12
  2156  17A2  008D               	movwf	13	;volatile
  2157                           
  2158                           ;newmain1.c: 1123: ANSELD = 0b00001111;
  2159  17A3  300F               	movlw	15
  2160  17A4  008F               	movwf	15	;volatile
  2161                           
  2162                           ;newmain1.c: 1124: ANSELE = 0b00000110;
  2163  17A5  3006               	movlw	6
  2164  17A6  0090               	movwf	16	;volatile
  2165                           
  2166                           ;newmain1.c: 1125: ANSELF = 0b00000001;
  2167  17A7  3001               	movlw	1
  2168  17A8  0028               	movlb	8	; select bank8
  2169  17A9  008C               	movwf	12	;volatile
  2170                           
  2171                           ;newmain1.c: 1126: ANSELG = 0b00000000;
  2172  17AA  018D               	clrf	13	;volatile
  2173                           
  2174                           ;newmain1.c: 1128: power_supply_set(4);
  2175  17AB  3004               	movlw	4
  2176  17AC  3184  242B  3197   	fcall	_power_supply_set
  2177                           
  2178                           ;newmain1.c: 1130: init_ADC();
  2179  17AF  3194  2436  3197   	fcall	_init_ADC
  2180                           
  2181                           ;newmain1.c: 1131: init_current_sink();
  2182  17B2  3188  200A  3197   	fcall	_init_current_sink
  2183                           
  2184                           ;newmain1.c: 1132: pickit_state = pickit_idle;
  2185  17B5  3006               	movlw	6
  2186  17B6  0020               	movlb	0	; select bank0
  2187  17B7  00C1               	movwf	_pickit_state
  2188                           
  2189                           ;newmain1.c: 1134: RA5 = 0;
  2190  17B8  128C               	bcf	12,5	;volatile
  2191                           
  2192                           ;newmain1.c: 1135: buzz_one(200);
  2193  17B9  30C8               	movlw	200
  2194  17BA  00F0               	movwf	buzz_one@time
  2195  17BB  01F1               	clrf	buzz_one@time+1
  2196  17BC  3183  23FD  3197   	fcall	_buzz_one
  2197                           
  2198                           ;newmain1.c: 1136: RA5 = 1;
  2199  17BF  0020               	movlb	0	; select bank0
  2200  17C0  168C               	bsf	12,5	;volatile
  2201                           
  2202                           ;newmain1.c: 1137: init_i2c();
  2203  17C1  3188  201F  3197   	fcall	_init_i2c
  2204                           
  2205                           ;newmain1.c: 1138: init_i2c_lcd_5v(8, 0x38);
  2206  17C4  3038               	movlw	56
  2207  17C5  00F1               	movwf	init_i2c_lcd_5v@single1_double2
  2208  17C6  3008               	movlw	8
  2209  17C7  3182  22C8  3197   	fcall	_init_i2c_lcd_5v
  2210                           
  2211                           ;newmain1.c: 1139: print_screen("DCBA Roll-up", "Test-Jig|Startup");
  2212  17CA  307F               	movlw	low (STR_5| (0+32768))
  2213  17CB  00F4               	movwf	print_screen@top
  2214  17CC  3092               	movlw	high (STR_5| (0+32768))
  2215  17CD  00F5               	movwf	print_screen@top+1
  2216  17CE  3039               	movlw	low (STR_6| (0+32768))
  2217  17CF  00F6               	movwf	print_screen@bottom
  2218  17D0  3090               	movlw	high (STR_6| (0+32768))
  2219  17D1  00F7               	movwf	print_screen@bottom+1
  2220  17D2  3182  221A  3197   	fcall	_print_screen
  2221                           
  2222                           ;newmain1.c: 1140: RA4 = 1;
  2223  17D5  0020               	movlb	0	; select bank0
  2224  17D6  160C               	bsf	12,4	;volatile
  2225                           
  2226                           ;newmain1.c: 1141: GIE = 1;
  2227  17D7  178B               	bsf	11,7	;volatile
  2228                           
  2229                           ;newmain1.c: 1142: _delay((unsigned long)((100)*(16000000/4000.0)));
  2230  17D8  3003               	movlw	3
  2231  17D9  00E7               	movwf	??_main+2
  2232  17DA  3008               	movlw	8
  2233  17DB  00E6               	movwf	??_main+1
  2234  17DC  3078               	movlw	120
  2235  17DD  00E5               	movwf	??_main
  2236  17DE                     u3417:	
  2237  17DE  0BE5               	decfsz	??_main,f
  2238  17DF  2FDE               	goto	u3417
  2239  17E0  0BE6               	decfsz	??_main+1,f
  2240  17E1  2FDE               	goto	u3417
  2241  17E2  0BE7               	decfsz	??_main+2,f
  2242  17E3  2FDE               	goto	u3417
  2243                           
  2244                           ;newmain1.c: 1143: debug_fast_tx(0xAAAA);
  2245  17E4  30AA               	movlw	170
  2246  17E5  00F0               	movwf	debug_fast_tx@data
  2247  17E6  00F1               	movwf	debug_fast_tx@data+1
  2248  17E7  3183  23FE  3197   	fcall	_debug_fast_tx
  2249                           
  2250                           ;newmain1.c: 1144: _delay((unsigned long)((100)*(16000000/4000000.0)));
  2251  17EA  3085               	movlw	133
  2252  17EB  0020               	movlb	0	; select bank0
  2253  17EC  00E5               	movwf	??_main
  2254  17ED                     u3427:	
  2255  17ED  0BE5               	decfsz	??_main,f
  2256  17EE  2FED               	goto	u3427
  2257                           
  2258                           ;newmain1.c: 1145: debug_fast_tx(0x5555);
  2259  17EF  3055               	movlw	85
  2260  17F0  00F0               	movwf	debug_fast_tx@data
  2261  17F1  00F1               	movwf	debug_fast_tx@data+1
  2262  17F2  3183  23FE  3197   	fcall	_debug_fast_tx
  2263                           
  2264                           ;newmain1.c: 1146: _delay((unsigned long)((100)*(16000000/4000000.0)));
  2265  17F5  3085               	movlw	133
  2266  17F6  0020               	movlb	0	; select bank0
  2267  17F7  00E5               	movwf	??_main
  2268  17F8                     u3437:	
  2269  17F8  0BE5               	decfsz	??_main,f
  2270  17F9  2FF8               	goto	u3437
  2271                           
  2272                           ;newmain1.c: 1148: power_supply_set(4);
  2273  17FA  3004               	movlw	4
  2274  17FB  3184  242B         	fcall	_power_supply_set
  2275                           
  2276                           ;newmain1.c: 1150: buzz_timer = 500;
  2277  17FD  30F4               	movlw	244
  2278  17FE  3196  2EF0         	ljmp	L18
  2279                           
  2280                           	psect	text1
  2281  0836                     __ptext1:	
  2282 ;; *************** function _send_usart_packet_manage *****************
  2283 ;; Defined at:
  2284 ;;		line 427 in file "newmain1.c"
  2285 ;; Parameters:    Size  Location     Type
  2286 ;;  command_byte    1    wreg     unsigned char 
  2287 ;;  Data_carry      2    1[COMMON] unsigned int 
  2288 ;; Auto vars:     Size  Location     Type
  2289 ;;  command_byte    1    2[BANK0 ] unsigned char 
  2290 ;;  checksum_sen    2    5[BANK0 ] unsigned int 
  2291 ;;  data_low_byt    1    4[BANK0 ] unsigned char 
  2292 ;;  data_high_by    1    3[BANK0 ] unsigned char 
  2293 ;;  checksum_low    1    1[BANK0 ] unsigned char 
  2294 ;;  checksum_hig    1    0[BANK0 ] unsigned char 
  2295 ;; Return value:  Size  Location     Type
  2296 ;;		None               void
  2297 ;; Registers used:
  2298 ;;		wreg, status,2, status,0, pclath, cstack
  2299 ;; Tracked objects:
  2300 ;;		On entry : 0/3
  2301 ;;		On exit  : 1F/9
  2302 ;;		Unchanged: 0/0
  2303 ;; Data sizes:     COMMON   BANK0   BANK1   BANK2   BANK3   BANK4   BANK5   BANK6   BANK7   BANK8   BANK9  BANK10  BANK1
      +1  BANK12  BANK13  BANK14  BANK15  BANK16  BANK17  BANK18
  2304 ;;      Params:         2       0       0       0       0       0       0       0       0       0       0       0       
      +0       0       0       0       0       0       0       0
  2305 ;;      Locals:         0       7       0       0       0       0       0       0       0       0       0       0       
      +0       0       0       0       0       0       0       0
  2306 ;;      Temps:          6       0       0       0       0       0       0       0       0       0       0       0       
      +0       0       0       0       0       0       0       0
  2307 ;;      Totals:         8       7       0       0       0       0       0       0       0       0       0       0       
      +0       0       0       0       0       0       0       0
  2308 ;;Total ram usage:       15 bytes
  2309 ;; Hardware stack levels used:    1
  2310 ;; Hardware stack levels required when called:    2
  2311 ;; This function calls:
  2312 ;;		_EUSART1_Write
  2313 ;; This function is called by:
  2314 ;;		_main
  2315 ;; This function uses a non-reentrant model
  2316 ;;
  2317                           
  2318                           
  2319                           ;psect for function _send_usart_packet_manage
  2320  0836                     _send_usart_packet_manage:	
  2321                           
  2322                           ;incstack = 0
  2323                           ; Regs used in _send_usart_packet_manage: [wreg+status,2+status,0+pclath+cstack]
  2324                           ;send_usart_packet_manage@command_byte_1 stored from wreg
  2325  0836  0020               	movlb	0	; select bank0
  2326  0837  00CA               	movwf	send_usart_packet_manage@command_byte_1
  2327                           
  2328                           ;newmain1.c: 429: unsigned int checksum_send_work;
  2329                           ;newmain1.c: 430: unsigned char data_high_byte_2, data_low_byte_3, checksum_high_byte_4,
      +                           checksum_low_byte_5;
  2330                           ;newmain1.c: 433: data_high_byte_2 = Data_carry >> 8;
  2331  0838  0872               	movf	send_usart_packet_manage@Data_carry+1,w
  2332  0839  00CB               	movwf	send_usart_packet_manage@data_high_byte_2
  2333                           
  2334                           ;newmain1.c: 434: data_low_byte_3 = Data_carry & 255;
  2335  083A  0871               	movf	send_usart_packet_manage@Data_carry,w
  2336  083B  00CC               	movwf	send_usart_packet_manage@data_low_byte_3
  2337                           
  2338                           ;newmain1.c: 437: checksum_send_work = 0;
  2339  083C  01CD               	clrf	send_usart_packet_manage@checksum_send_work
  2340  083D  01CE               	clrf	send_usart_packet_manage@checksum_send_work+1
  2341                           
  2342                           ;newmain1.c: 438: checksum_send_work = checksum_send_work + command_byte_1 + data_high_b
      +                          yte_2 + data_low_byte_3;
  2343  083E  00F3               	movwf	??_send_usart_packet_manage
  2344  083F  01F4               	clrf	??_send_usart_packet_manage+1
  2345  0840  084A               	movf	send_usart_packet_manage@command_byte_1,w
  2346  0841  074B               	addwf	send_usart_packet_manage@data_high_byte_2,w
  2347  0842  00F5               	movwf	??_send_usart_packet_manage+2
  2348  0843  01F6               	clrf	??_send_usart_packet_manage+3
  2349  0844  0DF6               	rlf	??_send_usart_packet_manage+3,f
  2350  0845  0873               	movf	??_send_usart_packet_manage,w
  2351  0846  0775               	addwf	??_send_usart_packet_manage+2,w
  2352  0847  00F7               	movwf	??_send_usart_packet_manage+4
  2353  0848  0874               	movf	??_send_usart_packet_manage+1,w
  2354  0849  3D76               	addwfc	??_send_usart_packet_manage+3,w
  2355  084A  00F8               	movwf	??_send_usart_packet_manage+5
  2356  084B  0877               	movf	??_send_usart_packet_manage+4,w
  2357  084C  07CD               	addwf	send_usart_packet_manage@checksum_send_work,f
  2358  084D  0878               	movf	??_send_usart_packet_manage+5,w
  2359  084E  3DCE               	addwfc	send_usart_packet_manage@checksum_send_work+1,f
  2360                           
  2361                           ;newmain1.c: 440: checksum_high_byte_4 = checksum_send_work >> 8;
  2362  084F  084E               	movf	send_usart_packet_manage@checksum_send_work+1,w
  2363  0850  00C8               	movwf	send_usart_packet_manage@checksum_high_byte_4
  2364                           
  2365                           ;newmain1.c: 441: checksum_low_byte_5 = checksum_send_work & 255;
  2366  0851  084D               	movf	send_usart_packet_manage@checksum_send_work,w
  2367  0852  00C9               	movwf	send_usart_packet_manage@checksum_low_byte_5
  2368                           
  2369                           ;newmain1.c: 446: EUSART1_Write(command_byte_1);
  2370  0853  084A               	movf	send_usart_packet_manage@command_byte_1,w
  2371  0854  2065  3188         	fcall	_EUSART1_Write
  2372                           
  2373                           ;newmain1.c: 447: EUSART1_Write(data_high_byte_2);
  2374  0856  0020               	movlb	0	; select bank0
  2375  0857  084B               	movf	send_usart_packet_manage@data_high_byte_2,w
  2376  0858  2065  3188         	fcall	_EUSART1_Write
  2377                           
  2378                           ;newmain1.c: 448: EUSART1_Write(data_low_byte_3);
  2379  085A  0020               	movlb	0	; select bank0
  2380  085B  084C               	movf	send_usart_packet_manage@data_low_byte_3,w
  2381  085C  2065  3188         	fcall	_EUSART1_Write
  2382                           
  2383                           ;newmain1.c: 449: EUSART1_Write(checksum_high_byte_4);
  2384  085E  0020               	movlb	0	; select bank0
  2385  085F  0848               	movf	send_usart_packet_manage@checksum_high_byte_4,w
  2386  0860  2065  3188         	fcall	_EUSART1_Write
  2387                           
  2388                           ;newmain1.c: 450: EUSART1_Write(checksum_low_byte_5);
  2389  0862  0020               	movlb	0	; select bank0
  2390  0863  0849               	movf	send_usart_packet_manage@checksum_low_byte_5,w
  2391  0864  2865               	ljmp	_EUSART1_Write
  2392  0865                     __end_of_send_usart_packet_manage:	
  2393  0865                     __ptext2:	
  2394 ;; *************** function _EUSART1_Write *****************
  2395 ;; Defined at:
  2396 ;;		line 415 in file "newmain1.c"
  2397 ;; Parameters:    Size  Location     Type
  2398 ;;  txData          1    wreg     unsigned char 
  2399 ;; Auto vars:     Size  Location     Type
  2400 ;;  txData          1    0[COMMON] unsigned char 
  2401 ;; Return value:  Size  Location     Type
  2402 ;;		None               void
  2403 ;; Registers used:
  2404 ;;		wreg
  2405 ;; Tracked objects:
  2406 ;;		On entry : 1F/0
  2407 ;;		On exit  : 1F/9
  2408 ;;		Unchanged: 0/0
  2409 ;; Data sizes:     COMMON   BANK0   BANK1   BANK2   BANK3   BANK4   BANK5   BANK6   BANK7   BANK8   BANK9  BANK10  BANK1
      +1  BANK12  BANK13  BANK14  BANK15  BANK16  BANK17  BANK18
  2410 ;;      Params:         0       0       0       0       0       0       0       0       0       0       0       0       
      +0       0       0       0       0       0       0       0
  2411 ;;      Locals:         1       0       0       0       0       0       0       0       0       0       0       0       
      +0       0       0       0       0       0       0       0
  2412 ;;      Temps:          0       0       0       0       0       0       0       0       0       0       0       0       
      +0       0       0       0       0       0       0       0
  2413 ;;      Totals:         1       0       0       0       0       0       0       0       0       0       0       0       
      +0       0       0       0       0       0       0       0
  2414 ;;Total ram usage:        1 bytes
  2415 ;; Hardware stack levels used:    1
  2416 ;; Hardware stack levels required when called:    1
  2417 ;; This function calls:
  2418 ;;		Nothing
  2419 ;; This function is called by:
  2420 ;;		_send_usart_packet_manage
  2421 ;; This function uses a non-reentrant model
  2422 ;;
  2423                           
  2424                           
  2425                           ;psect for function _EUSART1_Write
  2426  0865                     _EUSART1_Write:	
  2427                           
  2428                           ;incstack = 0
  2429                           ; Regs used in _EUSART1_Write: [wreg]
  2430                           ;EUSART1_Write@txData stored from wreg
  2431  0865  00F0               	movwf	EUSART1_Write@txData
  2432  0866                     l333:	
  2433                           ;newmain1.c: 418: while (TX2STAbits.TRMT == 0);
  2434                           
  2435  0866  0029               	movlb	9	; select bank9
  2436  0867  1C96               	btfss	22,1	;volatile
  2437  0868  2866               	goto	l333
  2438                           
  2439                           ;newmain1.c: 419: TX2REG = txData;
  2440  0869  0870               	movf	EUSART1_Write@txData,w
  2441  086A  0092               	movwf	18	;volatile
  2442  086B  0008               	return
  2443  086C                     __end_of_EUSART1_Write:	
  2444                           
  2445                           	psect	text3
  2446  00C9                     __ptext3:	
  2447 ;; *************** function _receive_data_bytes *****************
  2448 ;; Defined at:
  2449 ;;		line 491 in file "newmain1.c"
  2450 ;; Parameters:    Size  Location     Type
  2451 ;;  time_out_fir    2   12[COMMON] unsigned int 
  2452 ;; Auto vars:     Size  Location     Type
  2453 ;;  data_int_val    2   13[BANK0 ] unsigned int 
  2454 ;;  usart_checks    2   11[BANK0 ] unsigned int 
  2455 ;;  usart_valida    2    9[BANK0 ] unsigned int 
  2456 ;;  bit_data        2    0        unsigned int 
  2457 ;;  data_low_byt    1   19[BANK0 ] unsigned char 
  2458 ;;  data_high_by    1   18[BANK0 ] unsigned char 
  2459 ;;  command_byte    1   17[BANK0 ] unsigned char 
  2460 ;;  checksum_low    1   16[BANK0 ] unsigned char 
  2461 ;;  checksum_hig    1   15[BANK0 ] unsigned char 
  2462 ;; Return value:  Size  Location     Type
  2463 ;;                  2   12[COMMON] unsigned int 
  2464 ;; Registers used:
  2465 ;;		wreg, fsr0l, fsr0h, status,2, status,0, pclath, cstack
  2466 ;; Tracked objects:
  2467 ;;		On entry : 1F/9
  2468 ;;		On exit  : 1F/0
  2469 ;;		Unchanged: 0/0
  2470 ;; Data sizes:     COMMON   BANK0   BANK1   BANK2   BANK3   BANK4   BANK5   BANK6   BANK7   BANK8   BANK9  BANK10  BANK1
      +1  BANK12  BANK13  BANK14  BANK15  BANK16  BANK17  BANK18
  2471 ;;      Params:         2       0       0       0       0       0       0       0       0       0       0       0       
      +0       0       0       0       0       0       0       0
  2472 ;;      Locals:         0      11       0       0       0       0       0       0       0       0       0       0       
      +0       0       0       0       0       0       0       0
  2473 ;;      Temps:          0       6       0       0       0       0       0       0       0       0       0       0       
      +0       0       0       0       0       0       0       0
  2474 ;;      Totals:         2      17       0       0       0       0       0       0       0       0       0       0       
      +0       0       0       0       0       0       0       0
  2475 ;;Total ram usage:       19 bytes
  2476 ;; Hardware stack levels used:    1
  2477 ;; Hardware stack levels required when called:    5
  2478 ;; This function calls:
  2479 ;;		_manage_read_byte
  2480 ;;		_print_error
  2481 ;; This function is called by:
  2482 ;;		_main
  2483 ;; This function uses a non-reentrant model
  2484 ;;
  2485                           
  2486                           
  2487                           ;psect for function _receive_data_bytes
  2488  00C9                     _receive_data_bytes:	
  2489                           
  2490                           ;newmain1.c: 493: unsigned char command_byte, data_high_byte, data_low_byte, checksum_hi
      +                          gh_byte, checksum_low_byte;
  2491                           ;newmain1.c: 494: unsigned int bit_data, usart_validation_work, usart_checksum, data_int
      +                          _value;
  2492                           ;newmain1.c: 497: usart_receive_state_main = 0;
  2493                           
  2494                           ;incstack = 0
  2495                           ; Regs used in _receive_data_bytes: [wreg-fsr0h+status,2+status,0+pclath+cstack]
  2496  00C9  0020               	movlb	0	; select bank0
  2497  00CA  01C6               	clrf	_usart_receive_state_main
  2498  00CB  295C               	goto	l3400
  2499  00CC                     l3304:	
  2500                           
  2501                           ;newmain1.c: 508: {
  2502                           ;newmain1.c: 509: command_byte = RC2REG;
  2503  00CC  0029               	movlb	9	; select bank9
  2504  00CD  0811               	movf	17,w	;volatile
  2505  00CE  0020               	movlb	0	; select bank0
  2506  00CF  00D9               	movwf	receive_data_bytes@command_byte
  2507  00D0                     l3306:	
  2508  00D0  1A94               	btfsc	20,5	;volatile
  2509  00D1  28CC               	goto	l3304
  2510                           
  2511                           ;newmain1.c: 510: }
  2512                           ;newmain1.c: 512: usart_fault_state = 0;
  2513  00D2  01C5               	clrf	_usart_fault_state
  2514                           
  2515                           ;newmain1.c: 514: usart_receive_state_main = 1;
  2516  00D3  01C6               	clrf	_usart_receive_state_main
  2517  00D4  0AC6               	incf	_usart_receive_state_main,f
  2518                           
  2519                           ;newmain1.c: 515: break;
  2520  00D5  295C               	goto	l3400
  2521  00D6                     l3312:	
  2522                           
  2523                           ;newmain1.c: 519: usart_timer = time_out_first_byte;
  2524  00D6  087D               	movf	receive_data_bytes@time_out_first_byte+1,w
  2525  00D7  00BF               	movwf	_usart_timer+1	;volatile
  2526  00D8  087C               	movf	receive_data_bytes@time_out_first_byte,w
  2527  00D9  00BE               	movwf	_usart_timer	;volatile
  2528                           
  2529                           ;newmain1.c: 521: command_byte = manage_read_byte(1);
  2530  00DA  3001               	movlw	1
  2531  00DB  2168  3180         	fcall	_manage_read_byte
  2532  00DD  0020               	movlb	0	; select bank0
  2533  00DE  00D9               	movwf	receive_data_bytes@command_byte
  2534                           
  2535                           ;newmain1.c: 523: if(usart_fault_flag == 1)
  2536  00DF  1C6A               	btfss	_usart_fault_flag/(0+8),_usart_fault_flag& (0+7)	;volatile
  2537  00E0  28E4               	goto	l3322
  2538  00E1                     l3318:	
  2539                           
  2540                           ;newmain1.c: 524: {
  2541                           ;newmain1.c: 526: usart_fault_state = 1;
  2542  00E1  01C5               	clrf	_usart_fault_state
  2543  00E2  0AC5               	incf	_usart_fault_state,f
  2544  00E3  293B               	goto	L9
  2545  00E4                     l3322:	
  2546                           ;newmain1.c: 528: }
  2547                           
  2548                           ;newmain1.c: 527: usart_receive_state_main = 8;
  2549                           
  2550                           
  2551                           ;newmain1.c: 529: else
  2552                           ;newmain1.c: 530: {
  2553                           ;newmain1.c: 531: usart_receive_state_main = 2;
  2554  00E4  3002               	movlw	2
  2555  00E5  293C               	goto	L7
  2556  00E6                     l3324:	
  2557                           
  2558                           ;newmain1.c: 536: usart_timer = 30;
  2559  00E6  301E               	movlw	30
  2560  00E7  00BE               	movwf	_usart_timer	;volatile
  2561  00E8  01BF               	clrf	_usart_timer+1	;volatile
  2562                           
  2563                           ;newmain1.c: 538: data_high_byte = manage_read_byte(1);
  2564  00E9  3001               	movlw	1
  2565  00EA  2168  3180         	fcall	_manage_read_byte
  2566  00EC  0020               	movlb	0	; select bank0
  2567  00ED  00DA               	movwf	receive_data_bytes@data_high_byte
  2568                           
  2569                           ;newmain1.c: 540: if(usart_fault_flag == 1)
  2570  00EE  186A               	btfsc	_usart_fault_flag/(0+8),_usart_fault_flag& (0+7)	;volatile
  2571  00EF  28E1               	goto	l3318
  2572                           
  2573                           ;newmain1.c: 546: else
  2574                           ;newmain1.c: 547: {
  2575                           ;newmain1.c: 548: usart_receive_state_main = 3;
  2576  00F0  3003               	movlw	3
  2577  00F1  293C               	goto	L7
  2578  00F2                     l3336:	
  2579                           
  2580                           ;newmain1.c: 553: usart_timer = 30;
  2581  00F2  301E               	movlw	30
  2582  00F3  00BE               	movwf	_usart_timer	;volatile
  2583  00F4  01BF               	clrf	_usart_timer+1	;volatile
  2584                           
  2585                           ;newmain1.c: 555: data_low_byte = manage_read_byte(1);
  2586  00F5  3001               	movlw	1
  2587  00F6  2168  3180         	fcall	_manage_read_byte
  2588  00F8  0020               	movlb	0	; select bank0
  2589  00F9  00DB               	movwf	receive_data_bytes@data_low_byte
  2590                           
  2591                           ;newmain1.c: 557: if(usart_fault_flag == 1)
  2592  00FA  186A               	btfsc	_usart_fault_flag/(0+8),_usart_fault_flag& (0+7)	;volatile
  2593  00FB  28E1               	goto	l3318
  2594                           
  2595                           ;newmain1.c: 563: else
  2596                           ;newmain1.c: 564: {
  2597                           ;newmain1.c: 565: usart_receive_state_main = 4;
  2598  00FC  3004               	movlw	4
  2599  00FD  293C               	goto	L7
  2600  00FE                     l3348:	
  2601                           
  2602                           ;newmain1.c: 570: usart_timer = 30;
  2603  00FE  301E               	movlw	30
  2604  00FF  00BE               	movwf	_usart_timer	;volatile
  2605  0100  01BF               	clrf	_usart_timer+1	;volatile
  2606                           
  2607                           ;newmain1.c: 572: checksum_high_byte = manage_read_byte(1);
  2608  0101  3001               	movlw	1
  2609  0102  2168  3180         	fcall	_manage_read_byte
  2610  0104  0020               	movlb	0	; select bank0
  2611  0105  00D7               	movwf	receive_data_bytes@checksum_high_byte
  2612                           
  2613                           ;newmain1.c: 574: if(usart_fault_flag == 1)
  2614  0106  186A               	btfsc	_usart_fault_flag/(0+8),_usart_fault_flag& (0+7)	;volatile
  2615  0107  28E1               	goto	l3318
  2616                           
  2617                           ;newmain1.c: 580: else
  2618                           ;newmain1.c: 581: {
  2619                           ;newmain1.c: 582: usart_receive_state_main = 5;
  2620  0108  3005               	movlw	5
  2621  0109  293C               	goto	L7
  2622  010A                     l3360:	
  2623                           
  2624                           ;newmain1.c: 587: usart_timer = 30;
  2625  010A  301E               	movlw	30
  2626  010B  00BE               	movwf	_usart_timer	;volatile
  2627  010C  01BF               	clrf	_usart_timer+1	;volatile
  2628                           
  2629                           ;newmain1.c: 589: checksum_low_byte = manage_read_byte(1);
  2630  010D  3001               	movlw	1
  2631  010E  2168  3180         	fcall	_manage_read_byte
  2632  0110  0020               	movlb	0	; select bank0
  2633  0111  00D8               	movwf	receive_data_bytes@checksum_low_byte
  2634                           
  2635                           ;newmain1.c: 591: if(usart_fault_flag == 1)
  2636  0112  186A               	btfsc	_usart_fault_flag/(0+8),_usart_fault_flag& (0+7)	;volatile
  2637  0113  28E1               	goto	l3318
  2638                           
  2639                           ;newmain1.c: 597: else
  2640                           ;newmain1.c: 598: {
  2641                           ;newmain1.c: 599: usart_receive_state_main = 6;
  2642  0114  3006               	movlw	6
  2643  0115  293C               	goto	L7
  2644  0116                     l3372:	
  2645                           
  2646                           ;newmain1.c: 606: usart_checksum = (checksum_high_byte << 8) | checksum_low_byte;
  2647  0116  0857               	movf	receive_data_bytes@checksum_high_byte,w
  2648  0117  00D4               	movwf	receive_data_bytes@usart_checksum+1
  2649  0118  01D3               	clrf	receive_data_bytes@usart_checksum
  2650  0119  0858               	movf	receive_data_bytes@checksum_low_byte,w
  2651  011A  04D3               	iorwf	receive_data_bytes@usart_checksum,f
  2652                           
  2653                           ;newmain1.c: 607: usart_validation_work = 0;
  2654  011B  01D1               	clrf	receive_data_bytes@usart_validation_work
  2655  011C  01D2               	clrf	receive_data_bytes@usart_validation_work+1
  2656                           
  2657                           ;newmain1.c: 608: usart_validation_work = usart_validation_work + command_byte + data_hi
      +                          gh_byte + data_low_byte;
  2658  011D  085B               	movf	receive_data_bytes@data_low_byte,w
  2659  011E  00CB               	movwf	??_receive_data_bytes
  2660  011F  01CC               	clrf	??_receive_data_bytes+1
  2661  0120  0859               	movf	receive_data_bytes@command_byte,w
  2662  0121  075A               	addwf	receive_data_bytes@data_high_byte,w
  2663  0122  00CD               	movwf	??_receive_data_bytes+2
  2664  0123  01CE               	clrf	??_receive_data_bytes+3
  2665  0124  0DCE               	rlf	??_receive_data_bytes+3,f
  2666  0125  084B               	movf	??_receive_data_bytes,w
  2667  0126  074D               	addwf	??_receive_data_bytes+2,w
  2668  0127  00CF               	movwf	??_receive_data_bytes+4
  2669  0128  084C               	movf	??_receive_data_bytes+1,w
  2670  0129  3D4E               	addwfc	??_receive_data_bytes+3,w
  2671  012A  00D0               	movwf	??_receive_data_bytes+5
  2672  012B  084F               	movf	??_receive_data_bytes+4,w
  2673  012C  07D1               	addwf	receive_data_bytes@usart_validation_work,f
  2674  012D  0850               	movf	??_receive_data_bytes+5,w
  2675  012E  3DD2               	addwfc	receive_data_bytes@usart_validation_work+1,f
  2676                           
  2677                           ;newmain1.c: 610: if(usart_checksum == usart_validation_work)
  2678  012F  0852               	movf	receive_data_bytes@usart_validation_work+1,w
  2679  0130  0654               	xorwf	receive_data_bytes@usart_checksum+1,w
  2680  0131  1D03               	skipz
  2681  0132  2935               	goto	u2315
  2682  0133  0851               	movf	receive_data_bytes@usart_validation_work,w
  2683  0134  0653               	xorwf	receive_data_bytes@usart_checksum,w
  2684  0135                     u2315:	
  2685  0135  1D03               	skipz
  2686  0136  2939               	goto	l3382
  2687                           
  2688                           ;newmain1.c: 611: {
  2689                           ;newmain1.c: 613: usart_receive_state_main = 7;
  2690  0137  3007               	movlw	7
  2691  0138  293C               	goto	L7
  2692  0139                     l3382:	
  2693                           ;newmain1.c: 614: }
  2694                           
  2695                           
  2696                           ;newmain1.c: 615: else
  2697                           ;newmain1.c: 616: {
  2698                           ;newmain1.c: 618: usart_fault_state = 2;
  2699  0139  3002               	movlw	2
  2700  013A  00C5               	movwf	_usart_fault_state
  2701  013B                     L9:	
  2702                           
  2703                           ;newmain1.c: 619: usart_receive_state_main = 8;
  2704  013B  3008               	movlw	8
  2705  013C                     L7:	
  2706  013C  00C6               	movwf	_usart_receive_state_main
  2707  013D  295C               	goto	l3400
  2708  013E                     l3384:	
  2709                           
  2710                           ;newmain1.c: 625: data_int_value = (data_high_byte << 8) | data_low_byte;
  2711  013E  085A               	movf	receive_data_bytes@data_high_byte,w
  2712  013F  00D6               	movwf	receive_data_bytes@data_int_value+1
  2713  0140  01D5               	clrf	receive_data_bytes@data_int_value
  2714  0141  085B               	movf	receive_data_bytes@data_low_byte,w
  2715  0142  04D5               	iorwf	receive_data_bytes@data_int_value,f
  2716                           
  2717                           ;newmain1.c: 627: return data_int_value;
  2718  0143  0856               	movf	receive_data_bytes@data_int_value+1,w
  2719  0144  00FD               	movwf	?_receive_data_bytes+1
  2720  0145  0855               	movf	receive_data_bytes@data_int_value,w
  2721  0146  00FC               	movwf	?_receive_data_bytes
  2722  0147  0008               	return
  2723  0148                     l3390:	
  2724                           
  2725                           ;newmain1.c: 633: if(usart_fault_state == 1)
  2726  0148  0B45               	decfsz	_usart_fault_state,w
  2727  0149  294E               	goto	l3394
  2728                           
  2729                           ;newmain1.c: 634: {
  2730                           ;newmain1.c: 635: print_error("Comms Timeout", "");
  2731  014A  30EC               	movlw	low (STR_1| (0+32768))
  2732  014B  00F8               	movwf	print_error@top
  2733  014C  3091               	movlw	high (STR_1| (0+32768))
  2734  014D  2955               	goto	L8
  2735  014E                     l3394:	
  2736                           ;newmain1.c: 636: }
  2737                           
  2738                           
  2739                           ;newmain1.c: 637: else if(usart_fault_state == 2)
  2740  014E  3002               	movlw	2
  2741  014F  0645               	xorwf	_usart_fault_state,w
  2742  0150  1D03               	btfss	3,2
  2743  0151  295C               	goto	l3400
  2744                           
  2745                           ;newmain1.c: 638: {
  2746                           ;newmain1.c: 639: print_error("Comms_Data_Err", "");
  2747  0152  3017               	movlw	low (STR_3| (0+32768))
  2748  0153  00F8               	movwf	print_error@top
  2749  0154  3091               	movlw	high (STR_3| (0+32768))
  2750  0155                     L8:	
  2751  0155  00F9               	movwf	print_error@top+1
  2752  0156  30F9               	movlw	low ((STR_163+4)| (0+32768))
  2753  0157  00FA               	movwf	print_error@bottom
  2754  0158  3093               	movlw	high ((STR_163+4)| (0+32768))
  2755  0159  00FB               	movwf	print_error@bottom+1
  2756  015A  223C  3180         	fcall	_print_error
  2757  015C                     l3400:	
  2758  015C  0020               	movlb	0	; select bank0
  2759  015D  0846               	movf	_usart_receive_state_main,w
  2760                           
  2761                           ; Switch size 1, requested type "speed"
  2762                           ; Number of cases is 9, Range of values is 0 to 8
  2763                           ; switch strategies available:
  2764                           ; Name         Instructions Cycles
  2765                           ; direct_byte           24     6 (fixed)
  2766                           ; simple_byte           28    15 (average)
  2767                           ; jumptable            260     6 (fixed)
  2768                           ;	Chosen strategy is direct_byte
  2769  015E  0084               	movwf	4
  2770  015F  3009               	movlw	9
  2771  0160  0204               	subwf	4,w
  2772  0161  1803               	skipnc
  2773  0162  295C               	goto	l3400
  2774  0163  3194               	movlp	high S4456
  2775  0164  3504               	lslf	4,w
  2776  0165  3E00               	addlw	low S4456
  2777  0166  0082               	movwf	2
  2778  0167  0008               	return
  2779  0168                     __end_of_receive_data_bytes:	
  2780  0168                     __ptext13:	
  2781 ;; *************** function _manage_read_byte *****************
  2782 ;; Defined at:
  2783 ;;		line 454 in file "newmain1.c"
  2784 ;; Parameters:    Size  Location     Type
  2785 ;;  timeout_enab    1    wreg     unsigned char 
  2786 ;; Auto vars:     Size  Location     Type
  2787 ;;  timeout_enab    1    0[COMMON] unsigned char 
  2788 ;; Return value:  Size  Location     Type
  2789 ;;                  1    wreg      unsigned char 
  2790 ;; Registers used:
  2791 ;;		wreg, status,2, status,0
  2792 ;; Tracked objects:
  2793 ;;		On entry : 1F/0
  2794 ;;		On exit  : 16/0
  2795 ;;		Unchanged: 0/0
  2796 ;; Data sizes:     COMMON   BANK0   BANK1   BANK2   BANK3   BANK4   BANK5   BANK6   BANK7   BANK8   BANK9  BANK10  BANK1
      +1  BANK12  BANK13  BANK14  BANK15  BANK16  BANK17  BANK18
  2797 ;;      Params:         0       0       0       0       0       0       0       0       0       0       0       0       
      +0       0       0       0       0       0       0       0
  2798 ;;      Locals:         1       0       0       0       0       0       0       0       0       0       0       0       
      +0       0       0       0       0       0       0       0
  2799 ;;      Temps:          0       0       0       0       0       0       0       0       0       0       0       0       
      +0       0       0       0       0       0       0       0
  2800 ;;      Totals:         1       0       0       0       0       0       0       0       0       0       0       0       
      +0       0       0       0       0       0       0       0
  2801 ;;Total ram usage:        1 bytes
  2802 ;; Hardware stack levels used:    1
  2803 ;; Hardware stack levels required when called:    1
  2804 ;; This function calls:
  2805 ;;		Nothing
  2806 ;; This function is called by:
  2807 ;;		_receive_data_bytes
  2808 ;; This function uses a non-reentrant model
  2809 ;;
  2810                           
  2811                           
  2812                           ;psect for function _manage_read_byte
  2813  0168                     _manage_read_byte:	
  2814                           
  2815                           ;incstack = 0
  2816                           ; Regs used in _manage_read_byte: [wreg+status,2+status,0]
  2817                           ;manage_read_byte@timeout_enable stored from wreg
  2818  0168  00F0               	movwf	manage_read_byte@timeout_enable
  2819                           
  2820                           ;newmain1.c: 456: usart_fault_flag = 0;
  2821  0169  106A               	bcf	_usart_fault_flag/(0+8),_usart_fault_flag& (0+7)	;volatile
  2822  016A                     l342:	
  2823                           ;newmain1.c: 458: while(!RC2IF)
  2824                           
  2825  016A  1A94               	btfsc	20,5	;volatile
  2826  016B  2978               	goto	l347
  2827                           
  2828                           ;newmain1.c: 459: {
  2829                           ;newmain1.c: 460: if(timeout_enable == 0)
  2830  016C  0870               	movf	manage_read_byte@timeout_enable,w
  2831  016D  1D03               	btfss	3,2
  2832  016E  2972               	goto	l3056
  2833                           
  2834                           ;newmain1.c: 461: {
  2835                           ;newmain1.c: 462: usart_timer = 30;
  2836  016F  301E               	movlw	30
  2837  0170  00BE               	movwf	_usart_timer	;volatile
  2838  0171  01BF               	clrf	_usart_timer+1	;volatile
  2839  0172                     l3056:	
  2840                           
  2841                           ;newmain1.c: 463: }
  2842                           ;newmain1.c: 465: if(usart_timer == 0)
  2843  0172  083E               	movf	_usart_timer,w	;volatile
  2844  0173  043F               	iorwf	_usart_timer+1,w	;volatile
  2845  0174  1D03               	btfss	3,2
  2846  0175  296A               	goto	l342
  2847  0176                     l3058:	
  2848                           
  2849                           ;newmain1.c: 466: {
  2850                           ;newmain1.c: 467: usart_fault_flag = 1;
  2851  0176  146A               	bsf	_usart_fault_flag/(0+8),_usart_fault_flag& (0+7)	;volatile
  2852                           
  2853                           ;newmain1.c: 468: return 0;
  2854  0177  3400               	retlw	0
  2855  0178                     l347:	
  2856                           
  2857                           ;newmain1.c: 469: }
  2858                           ;newmain1.c: 476: }
  2859                           ;newmain1.c: 478: if(1 == RC2STAbits.OERR)
  2860  0178  0029               	movlb	9	; select bank9
  2861  0179  1C95               	btfss	21,1	;volatile
  2862  017A  297F               	goto	l3070
  2863                           
  2864                           ;newmain1.c: 479: {
  2865                           ;newmain1.c: 482: RC2STAbits.SPEN = 0;
  2866  017B  1395               	bcf	21,7	;volatile
  2867                           
  2868                           ;newmain1.c: 483: RC2STAbits.SPEN = 1;
  2869  017C  1795               	bsf	21,7	;volatile
  2870                           
  2871                           ;newmain1.c: 484: usart_fault_flag = 1;
  2872  017D  0020               	movlb	0	; select bank0
  2873  017E  2976               	goto	l3058
  2874  017F                     l3070:	
  2875                           
  2876                           ;newmain1.c: 486: }
  2877                           ;newmain1.c: 488: return RC2REG;
  2878  017F  0811               	movf	17,w	;volatile
  2879  0180  0008               	return
  2880  0181                     __end_of_manage_read_byte:	
  2881  0181                     __ptext18:	
  2882 ;; *************** function _lcd_set_cursor *****************
  2883 ;; Defined at:
  2884 ;;		line 2685 in file "newmain1.c"
  2885 ;; Parameters:    Size  Location     Type
  2886 ;;  row             1    wreg     unsigned char 
  2887 ;;  col             1    1[COMMON] unsigned char 
  2888 ;; Auto vars:     Size  Location     Type
  2889 ;;  row             1    2[COMMON] unsigned char 
  2890 ;;  LCD_position    1    3[COMMON] unsigned char 
  2891 ;; Return value:  Size  Location     Type
  2892 ;;		None               void
  2893 ;; Registers used:
  2894 ;;		wreg, status,2, status,0, pclath, cstack
  2895 ;; Tracked objects:
  2896 ;;		On entry : 1F/0
  2897 ;;		On exit  : 1F/4
  2898 ;;		Unchanged: 0/0
  2899 ;; Data sizes:     COMMON   BANK0   BANK1   BANK2   BANK3   BANK4   BANK5   BANK6   BANK7   BANK8   BANK9  BANK10  BANK1
      +1  BANK12  BANK13  BANK14  BANK15  BANK16  BANK17  BANK18
  2900 ;;      Params:         1       0       0       0       0       0       0       0       0       0       0       0       
      +0       0       0       0       0       0       0       0
  2901 ;;      Locals:         2       0       0       0       0       0       0       0       0       0       0       0       
      +0       0       0       0       0       0       0       0
  2902 ;;      Temps:          0       0       0       0       0       0       0       0       0       0       0       0       
      +0       0       0       0       0       0       0       0
  2903 ;;      Totals:         3       0       0       0       0       0       0       0       0       0       0       0       
      +0       0       0       0       0       0       0       0
  2904 ;;Total ram usage:        3 bytes
  2905 ;; Hardware stack levels used:    1
  2906 ;; Hardware stack levels required when called:    2
  2907 ;; This function calls:
  2908 ;;		_i2c_Start
  2909 ;;		_i2c_Stop
  2910 ;;		_i2c_Write
  2911 ;; This function is called by:
  2912 ;;		_lcd_print_int
  2913 ;; This function uses a non-reentrant model
  2914 ;;
  2915                           
  2916                           
  2917                           ;psect for function _lcd_set_cursor
  2918  0181                     _lcd_set_cursor:	
  2919                           
  2920                           ;incstack = 0
  2921                           ; Regs used in _lcd_set_cursor: [wreg+status,2+status,0+pclath+cstack]
  2922                           ;lcd_set_cursor@row stored from wreg
  2923  0181  00F2               	movwf	lcd_set_cursor@row
  2924                           
  2925                           ;newmain1.c: 2688: col--;
  2926  0182  03F1               	decf	lcd_set_cursor@col,f
  2927                           
  2928                           ;newmain1.c: 2689: i2c_Start();
  2929  0183  230C  3180         	fcall	_i2c_Start
  2930                           
  2931                           ;newmain1.c: 2690: i2c_Write(0x7C);
  2932  0185  307C               	movlw	124
  2933  0186  2300  3180         	fcall	_i2c_Write
  2934                           
  2935                           ;newmain1.c: 2691: i2c_Write(0x00);
  2936  0188  3000               	movlw	0
  2937  0189  2300  3180         	fcall	_i2c_Write
  2938                           
  2939                           ;newmain1.c: 2692: LCD_position = col & 0b11001111;
  2940  018B  0871               	movf	lcd_set_cursor@col,w
  2941  018C  00F3               	movwf	lcd_set_cursor@LCD_position
  2942  018D  30CF               	movlw	207
  2943  018E  05F3               	andwf	lcd_set_cursor@LCD_position,f
  2944                           
  2945                           ;newmain1.c: 2693: if (row == 1)
  2946  018F  0B72               	decfsz	lcd_set_cursor@row,w
  2947  0190  2993               	goto	l3140
  2948                           
  2949                           ;newmain1.c: 2694: LCD_position |= 0b10000000;
  2950  0191  17F3               	bsf	lcd_set_cursor@LCD_position,7
  2951  0192  2995               	goto	l3142
  2952  0193                     l3140:	
  2953                           
  2954                           ;newmain1.c: 2695: else
  2955                           ;newmain1.c: 2696: LCD_position |= 0b11000000;
  2956  0193  30C0               	movlw	192
  2957  0194  04F3               	iorwf	lcd_set_cursor@LCD_position,f
  2958  0195                     l3142:	
  2959                           
  2960                           ;newmain1.c: 2697: i2c_Write(LCD_position);
  2961  0195  0873               	movf	lcd_set_cursor@LCD_position,w
  2962  0196  2300  3180         	fcall	_i2c_Write
  2963                           
  2964                           ;newmain1.c: 2698: i2c_Stop();
  2965  0198  2B11               	ljmp	l2880
  2966  0199                     __end_of_lcd_set_cursor:	
  2967  0199                     __ptext14:	
  2968 ;; *************** function _lcd_print_int *****************
  2969 ;; Defined at:
  2970 ;;		line 3256 in file "newmain1.c"
  2971 ;; Parameters:    Size  Location     Type
  2972 ;;  number          2    0[BANK0 ] unsigned int 
  2973 ;;  pos             2    2[BANK0 ] unsigned int 
  2974 ;;  decimal         1    4[BANK0 ] unsigned char 
  2975 ;;  ten_thou_dig    1    5[BANK0 ] unsigned char 
  2976 ;; Auto vars:     Size  Location     Type
  2977 ;;		None
  2978 ;; Return value:  Size  Location     Type
  2979 ;;		None               void
  2980 ;; Registers used:
  2981 ;;		wreg, status,2, status,0, pclath, cstack
  2982 ;; Tracked objects:
  2983 ;;		On entry : 1F/0
  2984 ;;		On exit  : 1F/4
  2985 ;;		Unchanged: 0/0
  2986 ;; Data sizes:     COMMON   BANK0   BANK1   BANK2   BANK3   BANK4   BANK5   BANK6   BANK7   BANK8   BANK9  BANK10  BANK1
      +1  BANK12  BANK13  BANK14  BANK15  BANK16  BANK17  BANK18
  2987 ;;      Params:         0       6       0       0       0       0       0       0       0       0       0       0       
      +0       0       0       0       0       0       0       0
  2988 ;;      Locals:         0       0       0       0       0       0       0       0       0       0       0       0       
      +0       0       0       0       0       0       0       0
  2989 ;;      Temps:          0       0       0       0       0       0       0       0       0       0       0       0       
      +0       0       0       0       0       0       0       0
  2990 ;;      Totals:         0       6       0       0       0       0       0       0       0       0       0       0       
      +0       0       0       0       0       0       0       0
  2991 ;;Total ram usage:        6 bytes
  2992 ;; Hardware stack levels used:    1
  2993 ;; Hardware stack levels required when called:    3
  2994 ;; This function calls:
  2995 ;;		_i2c_write_char
  2996 ;;		_lcd_set_cursor
  2997 ;;		_ten_thou_conv
  2998 ;; This function is called by:
  2999 ;;		_main
  3000 ;; This function uses a non-reentrant model
  3001 ;;
  3002                           
  3003                           
  3004                           ;psect for function _lcd_print_int
  3005  0199                     _lcd_print_int:	
  3006                           
  3007                           ;newmain1.c: 3258: lcd_set_cursor(2, pos + 1 - ten_thou_digit);
  3008                           
  3009                           ;incstack = 0
  3010                           ; Regs used in _lcd_print_int: [wreg+status,2+status,0+pclath+cstack]
  3011  0199  084D               	movf	lcd_print_int@ten_thou_digit,w
  3012  019A  024A               	subwf	lcd_print_int@pos,w
  3013  019B  3E01               	addlw	1
  3014  019C  00F1               	movwf	lcd_set_cursor@col
  3015  019D  3002               	movlw	2
  3016  019E  2181  3180         	fcall	_lcd_set_cursor
  3017                           
  3018                           ;newmain1.c: 3259: ten_thou_conv(number);
  3019  01A0  0020               	movlb	0	; select bank0
  3020  01A1  0849               	movf	lcd_print_int@number+1,w
  3021  01A2  00F7               	movwf	ten_thou_conv@n+1
  3022  01A3  0848               	movf	lcd_print_int@number,w
  3023  01A4  00F6               	movwf	ten_thou_conv@n
  3024  01A5  2316  3180         	fcall	_ten_thou_conv
  3025                           
  3026                           ;newmain1.c: 3260: if (ten_thou_digit)
  3027  01A7  084D               	movf	lcd_print_int@ten_thou_digit,w
  3028  01A8  1903               	btfsc	3,2
  3029  01A9  29B5               	goto	l3486
  3030                           
  3031                           ;newmain1.c: 3261: {
  3032                           ;newmain1.c: 3262: if (ten_thou != 0 || decimal & 0x10)
  3033  01AA  0843               	movf	_ten_thou,w
  3034  01AB  1D03               	btfss	3,2
  3035  01AC  29AF               	goto	l3482
  3036  01AD  1E4C               	btfss	lcd_print_int@decimal,4
  3037  01AE  29B2               	goto	l3484
  3038  01AF                     l3482:	
  3039                           
  3040                           ;newmain1.c: 3263: i2c_write_char(ten_thou + 48);
  3041  01AF  0843               	movf	_ten_thou,w
  3042  01B0  3E30               	addlw	48
  3043  01B1  29B3               	goto	L10
  3044  01B2                     l3484:	
  3045                           
  3046                           ;newmain1.c: 3264: else i2c_write_char(' ');
  3047  01B2  3020               	movlw	32
  3048  01B3                     L10:	
  3049  01B3  220D  3180         	fcall	_i2c_write_char
  3050  01B5                     l3486:	
  3051                           
  3052                           ;newmain1.c: 3265: }
  3053                           ;newmain1.c: 3266: if (decimal & 0x10)i2c_write_char('.');
  3054  01B5  0020               	movlb	0	; select bank0
  3055  01B6  1E4C               	btfss	lcd_print_int@decimal,4
  3056  01B7  29BB               	goto	l3490
  3057  01B8  302E               	movlw	46
  3058  01B9  220D  3180         	fcall	_i2c_write_char
  3059  01BB                     l3490:	
  3060                           
  3061                           ;newmain1.c: 3267: if (thou != 0 || ten_thou != 0 || decimal & 0x18)
  3062  01BB  0020               	movlb	0	; select bank0
  3063  01BC  0847               	movf	_thou,w
  3064  01BD  1D03               	btfss	3,2
  3065  01BE  29C6               	goto	l3496
  3066  01BF  0843               	movf	_ten_thou,w
  3067  01C0  1D03               	btfss	3,2
  3068  01C1  29C6               	goto	l3496
  3069  01C2  084C               	movf	lcd_print_int@decimal,w
  3070  01C3  3918               	andlw	24
  3071  01C4  1903               	btfsc	3,2
  3072  01C5  29C9               	goto	l3498
  3073  01C6                     l3496:	
  3074                           
  3075                           ;newmain1.c: 3268: i2c_write_char(thou + 48);
  3076  01C6  0847               	movf	_thou,w
  3077  01C7  3E30               	addlw	48
  3078  01C8  29CA               	goto	L11
  3079  01C9                     l3498:	
  3080                           
  3081                           ;newmain1.c: 3269: else i2c_write_char(' ');
  3082  01C9  3020               	movlw	32
  3083  01CA                     L11:	
  3084  01CA  220D  3180         	fcall	_i2c_write_char
  3085                           
  3086                           ;newmain1.c: 3270: if (decimal & 0x08)i2c_write_char('.');
  3087  01CC  0020               	movlb	0	; select bank0
  3088  01CD  1DCC               	btfss	lcd_print_int@decimal,3
  3089  01CE  29D2               	goto	l3504
  3090  01CF  302E               	movlw	46
  3091  01D0  220D  3180         	fcall	_i2c_write_char
  3092  01D2                     l3504:	
  3093                           
  3094                           ;newmain1.c: 3271: if (hund != 0 || thou != 0 || ten_thou != 0 || decimal & 0x1C)
  3095  01D2  0020               	movlb	0	; select bank0
  3096  01D3  0840               	movf	_hund,w
  3097  01D4  1D03               	btfss	3,2
  3098  01D5  29E0               	goto	l3512
  3099  01D6  0847               	movf	_thou,w
  3100  01D7  1D03               	btfss	3,2
  3101  01D8  29E0               	goto	l3512
  3102  01D9  0843               	movf	_ten_thou,w
  3103  01DA  1D03               	btfss	3,2
  3104  01DB  29E0               	goto	l3512
  3105  01DC  084C               	movf	lcd_print_int@decimal,w
  3106  01DD  391C               	andlw	28
  3107  01DE  1903               	btfsc	3,2
  3108  01DF  29E3               	goto	l3514
  3109  01E0                     l3512:	
  3110                           
  3111                           ;newmain1.c: 3272: i2c_write_char(hund + 48);
  3112  01E0  0840               	movf	_hund,w
  3113  01E1  3E30               	addlw	48
  3114  01E2  29E4               	goto	L12
  3115  01E3                     l3514:	
  3116                           
  3117                           ;newmain1.c: 3273: else i2c_write_char(' ');
  3118  01E3  3020               	movlw	32
  3119  01E4                     L12:	
  3120  01E4  220D  3180         	fcall	_i2c_write_char
  3121                           
  3122                           ;newmain1.c: 3274: if (decimal & 0x04)i2c_write_char('.');
  3123  01E6  0020               	movlb	0	; select bank0
  3124  01E7  1D4C               	btfss	lcd_print_int@decimal,2
  3125  01E8  29EC               	goto	l3520
  3126  01E9  302E               	movlw	46
  3127  01EA  220D  3180         	fcall	_i2c_write_char
  3128  01EC                     l3520:	
  3129                           
  3130                           ;newmain1.c: 3275: if (ten != 0 || hund != 0 || thou != 0 || ten_thou != 0 || decimal & 
      +                          0x1E)
  3131  01EC  0020               	movlb	0	; select bank0
  3132  01ED  0842               	movf	_ten,w
  3133  01EE  1D03               	btfss	3,2
  3134  01EF  29FD               	goto	l3530
  3135  01F0  0840               	movf	_hund,w
  3136  01F1  1D03               	btfss	3,2
  3137  01F2  29FD               	goto	l3530
  3138  01F3  0847               	movf	_thou,w
  3139  01F4  1D03               	btfss	3,2
  3140  01F5  29FD               	goto	l3530
  3141  01F6  0843               	movf	_ten_thou,w
  3142  01F7  1D03               	btfss	3,2
  3143  01F8  29FD               	goto	l3530
  3144  01F9  084C               	movf	lcd_print_int@decimal,w
  3145  01FA  391E               	andlw	30
  3146  01FB  1903               	btfsc	3,2
  3147  01FC  2A00               	goto	l3532
  3148  01FD                     l3530:	
  3149                           
  3150                           ;newmain1.c: 3276: i2c_write_char(ten + 48);
  3151  01FD  0842               	movf	_ten,w
  3152  01FE  3E30               	addlw	48
  3153  01FF  2A01               	goto	L13
  3154  0200                     l3532:	
  3155                           
  3156                           ;newmain1.c: 3277: else i2c_write_char(' ');
  3157  0200  3020               	movlw	32
  3158  0201                     L13:	
  3159  0201  220D  3180         	fcall	_i2c_write_char
  3160                           
  3161                           ;newmain1.c: 3278: if (decimal & 0x02)i2c_write_char('.');
  3162  0203  0020               	movlb	0	; select bank0
  3163  0204  1CCC               	btfss	lcd_print_int@decimal,1
  3164  0205  2A09               	goto	l705
  3165  0206  302E               	movlw	46
  3166  0207  220D  3180         	fcall	_i2c_write_char
  3167  0209                     l705:	
  3168                           
  3169                           ;newmain1.c: 3279: i2c_write_char(unit + 48);
  3170  0209  0020               	movlb	0	; select bank0
  3171  020A  0844               	movf	_unit,w
  3172  020B  3E30               	addlw	48
  3173  020C  2A0D               	ljmp	_i2c_write_char
  3174  020D                     __end_of_lcd_print_int:	
  3175  020D                     __ptext19:	
  3176 ;; *************** function _i2c_write_char *****************
  3177 ;; Defined at:
  3178 ;;		line 2605 in file "newmain1.c"
  3179 ;; Parameters:    Size  Location     Type
  3180 ;;  char_data       1    wreg     unsigned char 
  3181 ;; Auto vars:     Size  Location     Type
  3182 ;;  char_data       1    1[COMMON] unsigned char 
  3183 ;; Return value:  Size  Location     Type
  3184 ;;		None               void
  3185 ;; Registers used:
  3186 ;;		wreg, status,2, status,0, pclath, cstack
  3187 ;; Tracked objects:
  3188 ;;		On entry : 1F/0
  3189 ;;		On exit  : 1F/4
  3190 ;;		Unchanged: 0/0
  3191 ;; Data sizes:     COMMON   BANK0   BANK1   BANK2   BANK3   BANK4   BANK5   BANK6   BANK7   BANK8   BANK9  BANK10  BANK1
      +1  BANK12  BANK13  BANK14  BANK15  BANK16  BANK17  BANK18
  3192 ;;      Params:         0       0       0       0       0       0       0       0       0       0       0       0       
      +0       0       0       0       0       0       0       0
  3193 ;;      Locals:         1       0       0       0       0       0       0       0       0       0       0       0       
      +0       0       0       0       0       0       0       0
  3194 ;;      Temps:          0       0       0       0       0       0       0       0       0       0       0       0       
      +0       0       0       0       0       0       0       0
  3195 ;;      Totals:         1       0       0       0       0       0       0       0       0       0       0       0       
      +0       0       0       0       0       0       0       0
  3196 ;;Total ram usage:        1 bytes
  3197 ;; Hardware stack levels used:    1
  3198 ;; Hardware stack levels required when called:    2
  3199 ;; This function calls:
  3200 ;;		_i2c_Start
  3201 ;;		_i2c_Stop
  3202 ;;		_i2c_Write
  3203 ;; This function is called by:
  3204 ;;		_lcd_print_int
  3205 ;; This function uses a non-reentrant model
  3206 ;;
  3207                           
  3208                           
  3209                           ;psect for function _i2c_write_char
  3210  020D                     _i2c_write_char:	
  3211                           
  3212                           ;incstack = 0
  3213                           ; Regs used in _i2c_write_char: [wreg+status,2+status,0+pclath+cstack]
  3214                           ;i2c_write_char@char_data stored from wreg
  3215  020D  00F1               	movwf	i2c_write_char@char_data
  3216                           
  3217                           ;newmain1.c: 2606: i2c_Start();
  3218  020E  230C  3180         	fcall	_i2c_Start
  3219                           
  3220                           ;newmain1.c: 2607: i2c_Write(0x7C);
  3221  0210  307C               	movlw	124
  3222  0211  2300  3180         	fcall	_i2c_Write
  3223                           
  3224                           ;newmain1.c: 2608: i2c_Write(0x40);
  3225  0213  3040               	movlw	64
  3226  0214  2300  3180         	fcall	_i2c_Write
  3227                           
  3228                           ;newmain1.c: 2609: i2c_Write(char_data);
  3229  0216  0871               	movf	i2c_write_char@char_data,w
  3230  0217  2300  3180         	fcall	_i2c_Write
  3231                           
  3232                           ;newmain1.c: 2610: i2c_Stop();
  3233  0219  2B11               	ljmp	l2880
  3234  021A                     __end_of_i2c_write_char:	
  3235  021A                     __ptext5:	
  3236 ;; *************** function _print_screen *****************
  3237 ;; Defined at:
  3238 ;;		line 3050 in file "newmain1.c"
  3239 ;; Parameters:    Size  Location     Type
  3240 ;;  top             2    4[COMMON] PTR const unsigned char 
  3241 ;;		 -> STR_177(12), STR_175(16), STR_173(16), STR_171(12), 
  3242 ;;		 -> STR_169(15), STR_167(13), STR_165(16), STR_163(5), 
  3243 ;;		 -> STR_161(8), STR_159(17), STR_155(10), STR_153(18), 
  3244 ;;		 -> STR_151(16), STR_149(9), STR_147(12), STR_145(10), 
  3245 ;;		 -> STR_135(16), STR_131(8), STR_111(8), STR_107(8), 
  3246 ;;		 -> STR_105(10), STR_103(9), STR_101(14), STR_99(13), 
  3247 ;;		 -> STR_97(6), STR_95(6), STR_73(8), STR_49(12), 
  3248 ;;		 -> STR_45(14), STR_43(12), STR_37(15), STR_31(13), 
  3249 ;;		 -> STR_25(14), STR_21(13), STR_17(10), STR_13(15), 
  3250 ;;		 -> STR_11(16), STR_9(6), STR_7(16), STR_5(13), 
  3251 ;;  bottom          2    6[COMMON] PTR const unsigned char 
  3252 ;;		 -> STR_178(17), STR_176(14), STR_174(14), STR_172(14), 
  3253 ;;		 -> STR_170(14), STR_168(8), STR_166(9), STR_164(9), 
  3254 ;;		 -> STR_162(9), STR_160(17), STR_156(14), STR_154(14), 
  3255 ;;		 -> STR_152(14), STR_150(14), STR_148(14), STR_146(1), 
  3256 ;;		 -> STR_136(1), STR_132(10), STR_112(14), STR_108(13), 
  3257 ;;		 -> STR_106(16), STR_104(16), STR_102(16), STR_100(16), 
  3258 ;;		 -> STR_98(10), STR_96(10), STR_74(14), STR_50(5), 
  3259 ;;		 -> STR_46(1), STR_44(9), STR_38(1), STR_32(1), 
  3260 ;;		 -> STR_26(1), STR_22(1), STR_18(10), STR_14(8), 
  3261 ;;		 -> STR_12(22), STR_10(9), STR_8(22), STR_6(17), 
  3262 ;; Auto vars:     Size  Location     Type
  3263 ;;		None
  3264 ;; Return value:  Size  Location     Type
  3265 ;;		None               void
  3266 ;; Registers used:
  3267 ;;		wreg, fsr0l, fsr0h, status,2, status,0, pclath, cstack
  3268 ;; Tracked objects:
  3269 ;;		On entry : 0/4
  3270 ;;		On exit  : 1F/4
  3271 ;;		Unchanged: 0/0
  3272 ;; Data sizes:     COMMON   BANK0   BANK1   BANK2   BANK3   BANK4   BANK5   BANK6   BANK7   BANK8   BANK9  BANK10  BANK1
      +1  BANK12  BANK13  BANK14  BANK15  BANK16  BANK17  BANK18
  3273 ;;      Params:         4       0       0       0       0       0       0       0       0       0       0       0       
      +0       0       0       0       0       0       0       0
  3274 ;;      Locals:         0       0       0       0       0       0       0       0       0       0       0       0       
      +0       0       0       0       0       0       0       0
  3275 ;;      Temps:          0       0       0       0       0       0       0       0       0       0       0       0       
      +0       0       0       0       0       0       0       0
  3276 ;;      Totals:         4       0       0       0       0       0       0       0       0       0       0       0       
      +0       0       0       0       0       0       0       0
  3277 ;;Total ram usage:        4 bytes
  3278 ;; Hardware stack levels used:    1
  3279 ;; Hardware stack levels required when called:    3
  3280 ;; This function calls:
  3281 ;;		_clear_lcd
  3282 ;;		_i2c_Write_string
  3283 ;;		_i2c_first_line
  3284 ;;		_i2c_second_line
  3285 ;; This function is called by:
  3286 ;;		_main
  3287 ;;		_print_error
  3288 ;; This function uses a non-reentrant model
  3289 ;;
  3290                           
  3291                           
  3292                           ;psect for function _print_screen
  3293  021A                     _print_screen:	
  3294                           
  3295                           ;newmain1.c: 3052: clear_lcd();
  3296                           
  3297                           ;incstack = 0
  3298                           ; Regs used in _print_screen: [wreg-fsr0h+status,2+status,0+pclath+cstack]
  3299  021A  2298  3180         	fcall	_clear_lcd
  3300                           
  3301                           ;newmain1.c: 3053: i2c_first_line();
  3302  021C  2287  3180         	fcall	_i2c_first_line
  3303                           
  3304                           ;newmain1.c: 3054: i2c_Write_string(top);
  3305  021E  0875               	movf	print_screen@top+1,w
  3306  021F  00F2               	movwf	i2c_Write_string@data+1
  3307  0220  0874               	movf	print_screen@top,w
  3308  0221  00F1               	movwf	i2c_Write_string@data
  3309  0222  22AD  3180         	fcall	_i2c_Write_string
  3310                           
  3311                           ;newmain1.c: 3055: i2c_second_line();
  3312  0224  222B  3180         	fcall	_i2c_second_line
  3313                           
  3314                           ;newmain1.c: 3056: i2c_Write_string(bottom);
  3315  0226  0877               	movf	print_screen@bottom+1,w
  3316  0227  00F2               	movwf	i2c_Write_string@data+1
  3317  0228  0876               	movf	print_screen@bottom,w
  3318  0229  00F1               	movwf	i2c_Write_string@data
  3319  022A  2AAD               	ljmp	l2882
  3320  022B                     __end_of_print_screen:	
  3321  022B                     __ptext6:	
  3322 ;; *************** function _i2c_second_line *****************
  3323 ;; Defined at:
  3324 ;;		line 2676 in file "newmain1.c"
  3325 ;; Parameters:    Size  Location     Type
  3326 ;;		None
  3327 ;; Auto vars:     Size  Location     Type
  3328 ;;		None
  3329 ;; Return value:  Size  Location     Type
  3330 ;;		None               void
  3331 ;; Registers used:
  3332 ;;		wreg, status,2, status,0, pclath, cstack
  3333 ;; Tracked objects:
  3334 ;;		On entry : 1F/4
  3335 ;;		On exit  : 1F/4
  3336 ;;		Unchanged: 0/0
  3337 ;; Data sizes:     COMMON   BANK0   BANK1   BANK2   BANK3   BANK4   BANK5   BANK6   BANK7   BANK8   BANK9  BANK10  BANK1
      +1  BANK12  BANK13  BANK14  BANK15  BANK16  BANK17  BANK18
  3338 ;;      Params:         0       0       0       0       0       0       0       0       0       0       0       0       
      +0       0       0       0       0       0       0       0
  3339 ;;      Locals:         0       0       0       0       0       0       0       0       0       0       0       0       
      +0       0       0       0       0       0       0       0
  3340 ;;      Temps:          1       0       0       0       0       0       0       0       0       0       0       0       
      +0       0       0       0       0       0       0       0
  3341 ;;      Totals:         1       0       0       0       0       0       0       0       0       0       0       0       
      +0       0       0       0       0       0       0       0
  3342 ;;Total ram usage:        1 bytes
  3343 ;; Hardware stack levels used:    1
  3344 ;; Hardware stack levels required when called:    2
  3345 ;; This function calls:
  3346 ;;		_i2c_Start
  3347 ;;		_i2c_Stop
  3348 ;;		_i2c_Write
  3349 ;; This function is called by:
  3350 ;;		_print_error
  3351 ;;		_print_screen
  3352 ;; This function uses a non-reentrant model
  3353 ;;
  3354                           
  3355                           
  3356                           ;psect for function _i2c_second_line
  3357  022B                     _i2c_second_line:	
  3358                           
  3359                           ;newmain1.c: 2677: i2c_Start();
  3360                           
  3361                           ;incstack = 0
  3362                           ; Regs used in _i2c_second_line: [wreg+status,2+status,0+pclath+cstack]
  3363  022B  230C  3180         	fcall	_i2c_Start
  3364                           
  3365                           ;newmain1.c: 2678: i2c_Write(0x7C);
  3366  022D  307C               	movlw	124
  3367  022E  2300  3180         	fcall	_i2c_Write
  3368                           
  3369                           ;newmain1.c: 2679: i2c_Write(0x00);
  3370  0230  3000               	movlw	0
  3371  0231  2300  3180         	fcall	_i2c_Write
  3372                           
  3373                           ;newmain1.c: 2680: i2c_Write(0xC0);
  3374  0233  30C0               	movlw	192
  3375  0234  2300  3180         	fcall	_i2c_Write
  3376                           
  3377                           ;newmain1.c: 2681: _delay((unsigned long)((27)*(16000000/4000000.0)));
  3378  0236  3023               	movlw	35
  3379  0237  00F1               	movwf	??_i2c_second_line
  3380  0238                     u4127:	
  3381  0238  0BF1               	decfsz	??_i2c_second_line,f
  3382  0239  2A38               	goto	u4127
  3383  023A  3200               	nop2	;nop
  3384                           
  3385                           ;newmain1.c: 2682: i2c_Stop();
  3386  023B  2B11               	ljmp	l2880
  3387  023C                     __end_of_i2c_second_line:	
  3388  023C                     __ptext4:	
  3389 ;; *************** function _print_error *****************
  3390 ;; Defined at:
  3391 ;;		line 3027 in file "newmain1.c"
  3392 ;; Parameters:    Size  Location     Type
  3393 ;;  top             2    8[COMMON] PTR const unsigned char 
  3394 ;;		 -> STR_157(17), STR_143(12), STR_141(12), STR_139(11), 
  3395 ;;		 -> STR_137(11), STR_133(9), STR_129(12), STR_127(12), 
  3396 ;;		 -> STR_125(12), STR_123(12), STR_121(12), STR_119(12), 
  3397 ;;		 -> STR_117(12), STR_115(12), STR_113(12), STR_109(6), 
  3398 ;;		 -> STR_93(6), STR_91(6), STR_89(6), STR_87(6), 
  3399 ;;		 -> STR_85(6), STR_83(6), STR_81(6), STR_79(6), 
  3400 ;;		 -> STR_77(6), STR_75(6), STR_71(15), STR_69(15), 
  3401 ;;		 -> STR_67(15), STR_65(10), STR_63(10), STR_61(9), 
  3402 ;;		 -> STR_59(9), STR_57(11), STR_55(11), STR_53(13), 
  3403 ;;		 -> STR_51(13), STR_47(12), STR_41(13), STR_39(13), 
  3404 ;;		 -> STR_35(11), STR_33(11), STR_29(12), STR_27(12), 
  3405 ;;		 -> STR_23(15), STR_19(10), STR_15(6), STR_3(15), 
  3406 ;;		 -> STR_1(14), 
  3407 ;;  bottom          2   10[COMMON] PTR const unsigned char 
  3408 ;;		 -> STR_158(17), STR_144(13), STR_142(14), STR_140(15), 
  3409 ;;		 -> STR_138(16), STR_134(8), STR_130(14), STR_128(14), 
  3410 ;;		 -> STR_126(14), STR_124(14), STR_122(14), STR_120(14), 
  3411 ;;		 -> STR_118(13), STR_116(14), STR_114(14), STR_110(15), 
  3412 ;;		 -> STR_94(14), STR_92(14), STR_90(12), STR_88(9), 
  3413 ;;		 -> STR_86(9), STR_84(12), STR_82(16), STR_80(14), 
  3414 ;;		 -> STR_78(14), STR_76(14), STR_72(6), STR_70(7), 
  3415 ;;		 -> STR_68(13), STR_66(8), STR_64(9), STR_62(8), 
  3416 ;;		 -> STR_60(9), STR_58(15), STR_56(16), STR_54(8), 
  3417 ;;		 -> STR_52(9), STR_48(6), STR_42(9), STR_40(8), 
  3418 ;;		 -> STR_36(9), STR_34(8), STR_30(9), STR_28(8), 
  3419 ;;		 -> STR_24(8), STR_20(9), STR_16(12), STR_4(1), 
  3420 ;;		 -> STR_2(1), 
  3421 ;; Auto vars:     Size  Location     Type
  3422 ;;		None
  3423 ;; Return value:  Size  Location     Type
  3424 ;;		None               void
  3425 ;; Registers used:
  3426 ;;		wreg, fsr0l, fsr0h, status,2, status,0, pclath, cstack
  3427 ;; Tracked objects:
  3428 ;;		On entry : 13/0
  3429 ;;		On exit  : 0/0
  3430 ;;		Unchanged: 0/0
  3431 ;; Data sizes:     COMMON   BANK0   BANK1   BANK2   BANK3   BANK4   BANK5   BANK6   BANK7   BANK8   BANK9  BANK10  BANK1
      +1  BANK12  BANK13  BANK14  BANK15  BANK16  BANK17  BANK18
  3432 ;;      Params:         4       0       0       0       0       0       0       0       0       0       0       0       
      +0       0       0       0       0       0       0       0
  3433 ;;      Locals:         0       0       0       0       0       0       0       0       0       0       0       0       
      +0       0       0       0       0       0       0       0
  3434 ;;      Temps:          0       3       0       0       0       0       0       0       0       0       0       0       
      +0       0       0       0       0       0       0       0
  3435 ;;      Totals:         4       3       0       0       0       0       0       0       0       0       0       0       
      +0       0       0       0       0       0       0       0
  3436 ;;Total ram usage:        7 bytes
  3437 ;; Hardware stack levels used:    1
  3438 ;; Hardware stack levels required when called:    4
  3439 ;; This function calls:
  3440 ;;		_buzz_one
  3441 ;;		_clear_lcd
  3442 ;;		_debug_fast_tx
  3443 ;;		_i2c_Write_string
  3444 ;;		_i2c_first_line
  3445 ;;		_i2c_second_line
  3446 ;;		_power_supply_set
  3447 ;;		_print_screen
  3448 ;; This function is called by:
  3449 ;;		_receive_data_bytes
  3450 ;;		_main
  3451 ;; This function uses a non-reentrant model
  3452 ;;
  3453                           
  3454                           
  3455                           ;psect for function _print_error
  3456  023C                     _print_error:	
  3457                           
  3458                           ;newmain1.c: 3029: CCPR9L = 0;
  3459                           
  3460                           ;incstack = 0
  3461                           ; Regs used in _print_error: [wreg-fsr0h+status,2+status,0+pclath+cstack]
  3462  023C  002C               	movlb	12	; select bank12
  3463  023D  019A               	clrf	26	;volatile
  3464                           
  3465                           ;newmain1.c: 3030: power_supply_set(4);
  3466  023E  3004               	movlw	4
  3467  023F  242B  3180         	fcall	_power_supply_set
  3468                           
  3469                           ;newmain1.c: 3033: RE0 = 0;
  3470  0241  0020               	movlb	0	; select bank0
  3471  0242  1010               	bcf	16,0	;volatile
  3472                           
  3473                           ;newmain1.c: 3034: debug_fast_tx(12345);
  3474  0243  3039               	movlw	57
  3475  0244  00F0               	movwf	debug_fast_tx@data
  3476  0245  3030               	movlw	48
  3477  0246  00F1               	movwf	debug_fast_tx@data+1
  3478  0247  23FE  3180         	fcall	_debug_fast_tx
  3479                           
  3480                           ;newmain1.c: 3035: buzz_one(1000);
  3481  0249  30E8               	movlw	232
  3482  024A  00F0               	movwf	buzz_one@time
  3483  024B  3003               	movlw	3
  3484  024C  00F1               	movwf	buzz_one@time+1
  3485  024D  23FD  3180         	fcall	_buzz_one
  3486  024F                     l3084:	
  3487                           
  3488                           ;newmain1.c: 3037: {
  3489                           ;newmain1.c: 3038: clear_lcd();
  3490  024F  2298  3180         	fcall	_clear_lcd
  3491                           
  3492                           ;newmain1.c: 3039: i2c_first_line();
  3493  0251  2287  3180         	fcall	_i2c_first_line
  3494                           
  3495                           ;newmain1.c: 3040: i2c_Write_string(top);
  3496  0253  0879               	movf	print_error@top+1,w
  3497  0254  00F2               	movwf	i2c_Write_string@data+1
  3498  0255  0878               	movf	print_error@top,w
  3499  0256  00F1               	movwf	i2c_Write_string@data
  3500  0257  22AD  3180         	fcall	_i2c_Write_string
  3501                           
  3502                           ;newmain1.c: 3041: i2c_second_line();
  3503  0259  222B  3180         	fcall	_i2c_second_line
  3504                           
  3505                           ;newmain1.c: 3042: i2c_Write_string(bottom);
  3506  025B  087B               	movf	print_error@bottom+1,w
  3507  025C  00F2               	movwf	i2c_Write_string@data+1
  3508  025D  087A               	movf	print_error@bottom,w
  3509  025E  00F1               	movwf	i2c_Write_string@data
  3510  025F  22AD  3180         	fcall	_i2c_Write_string
  3511                           
  3512                           ;newmain1.c: 3043: _delay((unsigned long)((2000)*(16000000/4000.0)));
  3513  0261  3029               	movlw	41
  3514  0262  0020               	movlb	0	; select bank0
  3515  0263  00CA               	movwf	??_print_error+2
  3516  0264  3096               	movlw	150
  3517  0265  00C9               	movwf	??_print_error+1
  3518  0266  30A6               	movlw	166
  3519  0267  00C8               	movwf	??_print_error
  3520  0268                     u4107:	
  3521  0268  0BC8               	decfsz	??_print_error,f
  3522  0269  2A68               	goto	u4107
  3523  026A  0BC9               	decfsz	??_print_error+1,f
  3524  026B  2A68               	goto	u4107
  3525  026C  0BCA               	decfsz	??_print_error+2,f
  3526  026D  2A68               	goto	u4107
  3527                           
  3528                           ;newmain1.c: 3044: print_screen("Press START", " to restart test");
  3529  026E  30A6               	movlw	low (STR_177| (0+32768))
  3530  026F  00F4               	movwf	print_screen@top
  3531  0270  3092               	movlw	high (STR_177| (0+32768))
  3532  0271  00F5               	movwf	print_screen@top+1
  3533  0272  305B               	movlw	low (STR_178| (0+32768))
  3534  0273  00F6               	movwf	print_screen@bottom
  3535  0274  3090               	movlw	high (STR_178| (0+32768))
  3536  0275  00F7               	movwf	print_screen@bottom+1
  3537  0276  221A  3180         	fcall	_print_screen
  3538                           
  3539                           ;newmain1.c: 3046: _delay((unsigned long)((1200)*(16000000/4000.0)));
  3540  0278  3019               	movlw	25
  3541  0279  0020               	movlb	0	; select bank0
  3542  027A  00CA               	movwf	??_print_error+2
  3543  027B  305A               	movlw	90
  3544  027C  00C9               	movwf	??_print_error+1
  3545  027D  30C8               	movlw	200
  3546  027E  00C8               	movwf	??_print_error
  3547  027F                     u4117:	
  3548  027F  0BC8               	decfsz	??_print_error,f
  3549  0280  2A7F               	goto	u4117
  3550  0281  0BC9               	decfsz	??_print_error+1,f
  3551  0282  2A7F               	goto	u4117
  3552  0283  0BCA               	decfsz	??_print_error+2,f
  3553  0284  2A7F               	goto	u4117
  3554  0285  3200               	nop2
  3555  0286  2A4F               	goto	l3084
  3556  0287                     __end_of_print_error:	
  3557  0287                     __ptext7:	
  3558 ;; *************** function _i2c_first_line *****************
  3559 ;; Defined at:
  3560 ;;		line 2667 in file "newmain1.c"
  3561 ;; Parameters:    Size  Location     Type
  3562 ;;		None
  3563 ;; Auto vars:     Size  Location     Type
  3564 ;;		None
  3565 ;; Return value:  Size  Location     Type
  3566 ;;		None               void
  3567 ;; Registers used:
  3568 ;;		wreg, status,2, status,0, pclath, cstack
  3569 ;; Tracked objects:
  3570 ;;		On entry : 1F/4
  3571 ;;		On exit  : 1F/4
  3572 ;;		Unchanged: 0/0
  3573 ;; Data sizes:     COMMON   BANK0   BANK1   BANK2   BANK3   BANK4   BANK5   BANK6   BANK7   BANK8   BANK9  BANK10  BANK1
      +1  BANK12  BANK13  BANK14  BANK15  BANK16  BANK17  BANK18
  3574 ;;      Params:         0       0       0       0       0       0       0       0       0       0       0       0       
      +0       0       0       0       0       0       0       0
  3575 ;;      Locals:         0       0       0       0       0       0       0       0       0       0       0       0       
      +0       0       0       0       0       0       0       0
  3576 ;;      Temps:          1       0       0       0       0       0       0       0       0       0       0       0       
      +0       0       0       0       0       0       0       0
  3577 ;;      Totals:         1       0       0       0       0       0       0       0       0       0       0       0       
      +0       0       0       0       0       0       0       0
  3578 ;;Total ram usage:        1 bytes
  3579 ;; Hardware stack levels used:    1
  3580 ;; Hardware stack levels required when called:    2
  3581 ;; This function calls:
  3582 ;;		_i2c_Start
  3583 ;;		_i2c_Stop
  3584 ;;		_i2c_Write
  3585 ;; This function is called by:
  3586 ;;		_print_error
  3587 ;;		_print_screen
  3588 ;; This function uses a non-reentrant model
  3589 ;;
  3590                           
  3591                           
  3592                           ;psect for function _i2c_first_line
  3593  0287                     _i2c_first_line:	
  3594                           
  3595                           ;newmain1.c: 2668: i2c_Start();
  3596                           
  3597                           ;incstack = 0
  3598                           ; Regs used in _i2c_first_line: [wreg+status,2+status,0+pclath+cstack]
  3599  0287  230C  3180         	fcall	_i2c_Start
  3600                           
  3601                           ;newmain1.c: 2669: i2c_Write(0x7C);
  3602  0289  307C               	movlw	124
  3603  028A  2300  3180         	fcall	_i2c_Write
  3604                           
  3605                           ;newmain1.c: 2670: i2c_Write(0x00);
  3606  028C  3000               	movlw	0
  3607  028D  2300  3180         	fcall	_i2c_Write
  3608                           
  3609                           ;newmain1.c: 2671: i2c_Write(0x80);
  3610  028F  3080               	movlw	128
  3611  0290  2300  3180         	fcall	_i2c_Write
  3612                           
  3613                           ;newmain1.c: 2672: _delay((unsigned long)((27)*(16000000/4000000.0)));
  3614  0292  3023               	movlw	35
  3615  0293  00F1               	movwf	??_i2c_first_line
  3616  0294                     u4137:	
  3617  0294  0BF1               	decfsz	??_i2c_first_line,f
  3618  0295  2A94               	goto	u4137
  3619  0296  3200               	nop2	;nop
  3620                           
  3621                           ;newmain1.c: 2673: i2c_Stop();
  3622  0297  2B11               	ljmp	l2880
  3623  0298                     __end_of_i2c_first_line:	
  3624  0298                     __ptext9:	
  3625 ;; *************** function _clear_lcd *****************
  3626 ;; Defined at:
  3627 ;;		line 2658 in file "newmain1.c"
  3628 ;; Parameters:    Size  Location     Type
  3629 ;;		None
  3630 ;; Auto vars:     Size  Location     Type
  3631 ;;		None
  3632 ;; Return value:  Size  Location     Type
  3633 ;;		None               void
  3634 ;; Registers used:
  3635 ;;		wreg, status,2, status,0, pclath, cstack
  3636 ;; Tracked objects:
  3637 ;;		On entry : 0/0
  3638 ;;		On exit  : 1F/4
  3639 ;;		Unchanged: 0/0
  3640 ;; Data sizes:     COMMON   BANK0   BANK1   BANK2   BANK3   BANK4   BANK5   BANK6   BANK7   BANK8   BANK9  BANK10  BANK1
      +1  BANK12  BANK13  BANK14  BANK15  BANK16  BANK17  BANK18
  3641 ;;      Params:         0       0       0       0       0       0       0       0       0       0       0       0       
      +0       0       0       0       0       0       0       0
  3642 ;;      Locals:         0       0       0       0       0       0       0       0       0       0       0       0       
      +0       0       0       0       0       0       0       0
  3643 ;;      Temps:          2       0       0       0       0       0       0       0       0       0       0       0       
      +0       0       0       0       0       0       0       0
  3644 ;;      Totals:         2       0       0       0       0       0       0       0       0       0       0       0       
      +0       0       0       0       0       0       0       0
  3645 ;;Total ram usage:        2 bytes
  3646 ;; Hardware stack levels used:    1
  3647 ;; Hardware stack levels required when called:    2
  3648 ;; This function calls:
  3649 ;;		_i2c_Start
  3650 ;;		_i2c_Stop
  3651 ;;		_i2c_Write
  3652 ;; This function is called by:
  3653 ;;		_print_error
  3654 ;;		_print_screen
  3655 ;; This function uses a non-reentrant model
  3656 ;;
  3657                           
  3658                           
  3659                           ;psect for function _clear_lcd
  3660  0298                     _clear_lcd:	
  3661                           
  3662                           ;newmain1.c: 2659: i2c_Start();
  3663                           
  3664                           ;incstack = 0
  3665                           ; Regs used in _clear_lcd: [wreg+status,2+status,0+pclath+cstack]
  3666  0298  230C  3180         	fcall	_i2c_Start
  3667                           
  3668                           ;newmain1.c: 2660: i2c_Write(0x7C);
  3669  029A  307C               	movlw	124
  3670  029B  2300  3180         	fcall	_i2c_Write
  3671                           
  3672                           ;newmain1.c: 2661: i2c_Write(0x00);
  3673  029D  3000               	movlw	0
  3674  029E  2300  3180         	fcall	_i2c_Write
  3675                           
  3676                           ;newmain1.c: 2662: i2c_Write(0x01);
  3677  02A0  3001               	movlw	1
  3678  02A1  2300  3180         	fcall	_i2c_Write
  3679                           
  3680                           ;newmain1.c: 2663: _delay((unsigned long)((2)*(16000000/4000.0)));
  3681  02A3  300B               	movlw	11
  3682  02A4  00F2               	movwf	??_clear_lcd+1
  3683  02A5  3062               	movlw	98
  3684  02A6  00F1               	movwf	??_clear_lcd
  3685  02A7                     u4147:	
  3686  02A7  0BF1               	decfsz	??_clear_lcd,f
  3687  02A8  2AA7               	goto	u4147
  3688  02A9  0BF2               	decfsz	??_clear_lcd+1,f
  3689  02AA  2AA7               	goto	u4147
  3690  02AB  0000               	nop
  3691                           
  3692                           ;newmain1.c: 2664: i2c_Stop();
  3693  02AC  2B11               	ljmp	l2880
  3694  02AD                     __end_of_clear_lcd:	
  3695  02AD                     __ptext8:	
  3696 ;; *************** function _i2c_Write_string *****************
  3697 ;; Defined at:
  3698 ;;		line 2592 in file "newmain1.c"
  3699 ;; Parameters:    Size  Location     Type
  3700 ;;  data            2    1[COMMON] PTR const unsigned char 
  3701 ;;		 -> STR_178(17), STR_177(12), STR_176(14), STR_175(16), 
  3702 ;;		 -> STR_174(14), STR_173(16), STR_172(14), STR_171(12), 
  3703 ;;		 -> STR_170(14), STR_169(15), STR_168(8), STR_167(13), 
  3704 ;;		 -> STR_166(9), STR_165(16), STR_164(9), STR_163(5), 
  3705 ;;		 -> STR_162(9), STR_161(8), STR_160(17), STR_159(17), 
  3706 ;;		 -> STR_158(17), STR_157(17), STR_156(14), STR_155(10), 
  3707 ;;		 -> STR_154(14), STR_153(18), STR_152(14), STR_151(16), 
  3708 ;;		 -> STR_150(14), STR_149(9), STR_148(14), STR_147(12), 
  3709 ;;		 -> STR_146(1), STR_145(10), STR_144(13), STR_143(12), 
  3710 ;;		 -> STR_142(14), STR_141(12), STR_140(15), STR_139(11), 
  3711 ;;		 -> STR_138(16), STR_137(11), STR_136(1), STR_135(16), 
  3712 ;;		 -> STR_134(8), STR_133(9), STR_132(10), STR_131(8), 
  3713 ;;		 -> STR_130(14), STR_129(12), STR_128(14), STR_127(12), 
  3714 ;;		 -> STR_126(14), STR_125(12), STR_124(14), STR_123(12), 
  3715 ;;		 -> STR_122(14), STR_121(12), STR_120(14), STR_119(12), 
  3716 ;;		 -> STR_118(13), STR_117(12), STR_116(14), STR_115(12), 
  3717 ;;		 -> STR_114(14), STR_113(12), STR_112(14), STR_111(8), 
  3718 ;;		 -> STR_110(15), STR_109(6), STR_108(13), STR_107(8), 
  3719 ;;		 -> STR_106(16), STR_105(10), STR_104(16), STR_103(9), 
  3720 ;;		 -> STR_102(16), STR_101(14), STR_100(16), STR_99(13), 
  3721 ;;		 -> STR_98(10), STR_97(6), STR_96(10), STR_95(6), 
  3722 ;;		 -> STR_94(14), STR_93(6), STR_92(14), STR_91(6), 
  3723 ;;		 -> STR_90(12), STR_89(6), STR_88(9), STR_87(6), 
  3724 ;;		 -> STR_86(9), STR_85(6), STR_84(12), STR_83(6), 
  3725 ;;		 -> STR_82(16), STR_81(6), STR_80(14), STR_79(6), 
  3726 ;;		 -> STR_78(14), STR_77(6), STR_76(14), STR_75(6), 
  3727 ;;		 -> STR_74(14), STR_73(8), STR_72(6), STR_71(15), 
  3728 ;;		 -> STR_70(7), STR_69(15), STR_68(13), STR_67(15), 
  3729 ;;		 -> STR_66(8), STR_65(10), STR_64(9), STR_63(10), 
  3730 ;;		 -> STR_62(8), STR_61(9), STR_60(9), STR_59(9), 
  3731 ;;		 -> STR_58(15), STR_57(11), STR_56(16), STR_55(11), 
  3732 ;;		 -> STR_54(8), STR_53(13), STR_52(9), STR_51(13), 
  3733 ;;		 -> STR_50(5), STR_49(12), STR_48(6), STR_47(12), 
  3734 ;;		 -> STR_46(1), STR_45(14), STR_44(9), STR_43(12), 
  3735 ;;		 -> STR_42(9), STR_41(13), STR_40(8), STR_39(13), 
  3736 ;;		 -> STR_38(1), STR_37(15), STR_36(9), STR_35(11), 
  3737 ;;		 -> STR_34(8), STR_33(11), STR_32(1), STR_31(13), 
  3738 ;;		 -> STR_30(9), STR_29(12), STR_28(8), STR_27(12), 
  3739 ;;		 -> STR_26(1), STR_25(14), STR_24(8), STR_23(15), 
  3740 ;;		 -> STR_22(1), STR_21(13), STR_20(9), STR_19(10), 
  3741 ;;		 -> STR_18(10), STR_17(10), STR_16(12), STR_15(6), 
  3742 ;;		 -> STR_14(8), STR_13(15), STR_12(22), STR_11(16), 
  3743 ;;		 -> STR_10(9), STR_9(6), STR_8(22), STR_7(16), 
  3744 ;;		 -> STR_6(17), STR_5(13), STR_4(1), STR_3(15), 
  3745 ;;		 -> STR_2(1), STR_1(14), 
  3746 ;; Auto vars:     Size  Location     Type
  3747 ;;		None
  3748 ;; Return value:  Size  Location     Type
  3749 ;;		None               void
  3750 ;; Registers used:
  3751 ;;		wreg, fsr0l, fsr0h, status,2, status,0, pclath, cstack
  3752 ;; Tracked objects:
  3753 ;;		On entry : 1F/4
  3754 ;;		On exit  : 1F/4
  3755 ;;		Unchanged: 0/0
  3756 ;; Data sizes:     COMMON   BANK0   BANK1   BANK2   BANK3   BANK4   BANK5   BANK6   BANK7   BANK8   BANK9  BANK10  BANK1
      +1  BANK12  BANK13  BANK14  BANK15  BANK16  BANK17  BANK18
  3757 ;;      Params:         2       0       0       0       0       0       0       0       0       0       0       0       
      +0       0       0       0       0       0       0       0
  3758 ;;      Locals:         0       0       0       0       0       0       0       0       0       0       0       0       
      +0       0       0       0       0       0       0       0
  3759 ;;      Temps:          1       0       0       0       0       0       0       0       0       0       0       0       
      +0       0       0       0       0       0       0       0
  3760 ;;      Totals:         3       0       0       0       0       0       0       0       0       0       0       0       
      +0       0       0       0       0       0       0       0
  3761 ;;Total ram usage:        3 bytes
  3762 ;; Hardware stack levels used:    1
  3763 ;; Hardware stack levels required when called:    2
  3764 ;; This function calls:
  3765 ;;		_i2c_Start
  3766 ;;		_i2c_Stop
  3767 ;;		_i2c_Write
  3768 ;; This function is called by:
  3769 ;;		_print_error
  3770 ;;		_print_screen
  3771 ;; This function uses a non-reentrant model
  3772 ;;
  3773                           
  3774                           
  3775                           ;psect for function _i2c_Write_string
  3776  02AD                     _i2c_Write_string:	
  3777  02AD                     l2882:	
  3778                           ;incstack = 0
  3779                           ; Regs used in _i2c_Write_string: [wreg-fsr0h+status,2+status,0+pclath+cstack]
  3780                           
  3781                           
  3782                           ;newmain1.c: 2593: i2c_Start();
  3783  02AD  230C  3180         	fcall	_i2c_Start
  3784                           
  3785                           ;newmain1.c: 2594: i2c_Write(0x7C);
  3786  02AF  307C               	movlw	124
  3787  02B0  2300  3180         	fcall	_i2c_Write
  3788                           
  3789                           ;newmain1.c: 2595: i2c_Write(0x40);
  3790  02B2  3040               	movlw	64
  3791  02B3  2300  3180         	fcall	_i2c_Write
  3792  02B5                     l2892:	
  3793                           ;newmain1.c: 2597: while (*data != (0))
  3794                           
  3795  02B5  0871               	movf	i2c_Write_string@data,w
  3796  02B6  0084               	movwf	4
  3797  02B7  0872               	movf	i2c_Write_string@data+1,w
  3798  02B8  0085               	movwf	5
  3799  02B9  0012               	moviw fsr0++
  3800  02BA  1903               	btfsc	3,2
  3801  02BB  2AC7               	goto	l2894
  3802                           
  3803                           ;newmain1.c: 2598: {
  3804                           ;newmain1.c: 2599: i2c_Write(*data);
  3805  02BC  0871               	movf	i2c_Write_string@data,w
  3806  02BD  0084               	movwf	4
  3807  02BE  0872               	movf	i2c_Write_string@data+1,w
  3808  02BF  0085               	movwf	5
  3809  02C0  0800               	movf	0,w	;code access
  3810  02C1  2300  3180         	fcall	_i2c_Write
  3811                           
  3812                           ;newmain1.c: 2600: data++;
  3813  02C3  0AF1               	incf	i2c_Write_string@data,f
  3814  02C4  1903               	skipnz
  3815  02C5  0AF2               	incf	i2c_Write_string@data+1,f
  3816  02C6  2AB5               	goto	l2892
  3817  02C7                     l2894:	
  3818                           
  3819                           ;newmain1.c: 2601: }
  3820                           ;newmain1.c: 2602: i2c_Stop();
  3821  02C7  2B11               	ljmp	l2880
  3822  02C8                     __end_of_i2c_Write_string:	
  3823  02C8                     __ptext22:	
  3824 ;; *************** function _init_i2c_lcd_5v *****************
  3825 ;; Defined at:
  3826 ;;		line 2614 in file "newmain1.c"
  3827 ;; Parameters:    Size  Location     Type
  3828 ;;  contrast        1    wreg     unsigned char 
  3829 ;;  single1_doub    1    1[COMMON] unsigned char 
  3830 ;; Auto vars:     Size  Location     Type
  3831 ;;  contrast        1    4[COMMON] unsigned char 
  3832 ;; Return value:  Size  Location     Type
  3833 ;;		None               void
  3834 ;; Registers used:
  3835 ;;		wreg, status,2, status,0, pclath, cstack
  3836 ;; Tracked objects:
  3837 ;;		On entry : 1F/4
  3838 ;;		On exit  : 1F/4
  3839 ;;		Unchanged: 0/0
  3840 ;; Data sizes:     COMMON   BANK0   BANK1   BANK2   BANK3   BANK4   BANK5   BANK6   BANK7   BANK8   BANK9  BANK10  BANK1
      +1  BANK12  BANK13  BANK14  BANK15  BANK16  BANK17  BANK18
  3841 ;;      Params:         1       0       0       0       0       0       0       0       0       0       0       0       
      +0       0       0       0       0       0       0       0
  3842 ;;      Locals:         1       0       0       0       0       0       0       0       0       0       0       0       
      +0       0       0       0       0       0       0       0
  3843 ;;      Temps:          2       0       0       0       0       0       0       0       0       0       0       0       
      +0       0       0       0       0       0       0       0
  3844 ;;      Totals:         4       0       0       0       0       0       0       0       0       0       0       0       
      +0       0       0       0       0       0       0       0
  3845 ;;Total ram usage:        4 bytes
  3846 ;; Hardware stack levels used:    1
  3847 ;; Hardware stack levels required when called:    2
  3848 ;; This function calls:
  3849 ;;		_i2c_Start
  3850 ;;		_i2c_Stop
  3851 ;;		_i2c_Write
  3852 ;; This function is called by:
  3853 ;;		_main
  3854 ;; This function uses a non-reentrant model
  3855 ;;
  3856                           
  3857                           
  3858                           ;psect for function _init_i2c_lcd_5v
  3859  02C8                     _init_i2c_lcd_5v:	
  3860                           
  3861                           ;incstack = 0
  3862                           ; Regs used in _init_i2c_lcd_5v: [wreg+status,2+status,0+pclath+cstack]
  3863                           ;init_i2c_lcd_5v@contrast stored from wreg
  3864  02C8  00F4               	movwf	init_i2c_lcd_5v@contrast
  3865                           
  3866                           ;newmain1.c: 2616: i2c_Start();
  3867  02C9  230C  3180         	fcall	_i2c_Start
  3868                           
  3869                           ;newmain1.c: 2617: i2c_Write(0x7C);
  3870  02CB  307C               	movlw	124
  3871  02CC  2300  3180         	fcall	_i2c_Write
  3872                           
  3873                           ;newmain1.c: 2618: i2c_Write(0x00);
  3874  02CE  3000               	movlw	0
  3875  02CF  2300  3180         	fcall	_i2c_Write
  3876                           
  3877                           ;newmain1.c: 2619: i2c_Write(0x39);
  3878  02D1  3039               	movlw	57
  3879  02D2  2300  3180         	fcall	_i2c_Write
  3880                           
  3881                           ;newmain1.c: 2620: i2c_Write(0x1C);
  3882  02D4  301C               	movlw	28
  3883  02D5  2300  3180         	fcall	_i2c_Write
  3884                           
  3885                           ;newmain1.c: 2621: i2c_Write(0x70 | contrast);
  3886  02D7  0874               	movf	init_i2c_lcd_5v@contrast,w
  3887  02D8  3870               	iorlw	112
  3888  02D9  2300  3180         	fcall	_i2c_Write
  3889                           
  3890                           ;newmain1.c: 2622: i2c_Write(0x50);
  3891  02DB  3050               	movlw	80
  3892  02DC  2300  3180         	fcall	_i2c_Write
  3893                           
  3894                           ;newmain1.c: 2623: i2c_Write(0x6C);
  3895  02DE  306C               	movlw	108
  3896  02DF  2300  3180         	fcall	_i2c_Write
  3897                           
  3898                           ;newmain1.c: 2624: if (single1_double2 == 1)
  3899  02E1  0B71               	decfsz	init_i2c_lcd_5v@single1_double2,w
  3900  02E2  2AE6               	goto	l3448
  3901                           
  3902                           ;newmain1.c: 2625: i2c_Write(0x38);
  3903  02E3  3038               	movlw	56
  3904  02E4  2300  3180         	fcall	_i2c_Write
  3905  02E6                     l3448:	
  3906                           
  3907                           ;newmain1.c: 2626: if (single1_double2 == 2)
  3908  02E6  3002               	movlw	2
  3909  02E7  0671               	xorwf	init_i2c_lcd_5v@single1_double2,w
  3910  02E8  1D03               	btfss	3,2
  3911  02E9  2AED               	goto	l609
  3912                           
  3913                           ;newmain1.c: 2627: i2c_Write(0x34);
  3914  02EA  3034               	movlw	52
  3915  02EB  2300  3180         	fcall	_i2c_Write
  3916  02ED                     l609:	
  3917                           
  3918                           ;newmain1.c: 2628: i2c_Write(0x0C);
  3919  02ED  300C               	movlw	12
  3920  02EE  2300  3180         	fcall	_i2c_Write
  3921                           
  3922                           ;newmain1.c: 2629: i2c_Write(0x06);
  3923  02F0  3006               	movlw	6
  3924  02F1  2300  3180         	fcall	_i2c_Write
  3925                           
  3926                           ;newmain1.c: 2630: i2c_Write(0x01);
  3927  02F3  3001               	movlw	1
  3928  02F4  2300  3180         	fcall	_i2c_Write
  3929                           
  3930                           ;newmain1.c: 2631: _delay((unsigned long)((2)*(16000000/4000.0)));
  3931  02F6  300B               	movlw	11
  3932  02F7  00F3               	movwf	??_init_i2c_lcd_5v+1
  3933  02F8  3062               	movlw	98
  3934  02F9  00F2               	movwf	??_init_i2c_lcd_5v
  3935  02FA                     u4157:	
  3936  02FA  0BF2               	decfsz	??_init_i2c_lcd_5v,f
  3937  02FB  2AFA               	goto	u4157
  3938  02FC  0BF3               	decfsz	??_init_i2c_lcd_5v+1,f
  3939  02FD  2AFA               	goto	u4157
  3940  02FE  0000               	nop
  3941                           
  3942                           ;newmain1.c: 2632: i2c_Stop();
  3943  02FF  2B11               	ljmp	l2880
  3944  0300                     __end_of_init_i2c_lcd_5v:	
  3945  0300                     __ptext23:	
  3946 ;; *************** function _i2c_Write *****************
  3947 ;; Defined at:
  3948 ;;		line 2580 in file "newmain1.c"
  3949 ;; Parameters:    Size  Location     Type
  3950 ;;  data            1    wreg     unsigned char 
  3951 ;; Auto vars:     Size  Location     Type
  3952 ;;  data            1    0[COMMON] unsigned char 
  3953 ;; Return value:  Size  Location     Type
  3954 ;;		None               void
  3955 ;; Registers used:
  3956 ;;		wreg, status,2
  3957 ;; Tracked objects:
  3958 ;;		On entry : 1F/4
  3959 ;;		On exit  : 1F/4
  3960 ;;		Unchanged: 0/0
  3961 ;; Data sizes:     COMMON   BANK0   BANK1   BANK2   BANK3   BANK4   BANK5   BANK6   BANK7   BANK8   BANK9  BANK10  BANK1
      +1  BANK12  BANK13  BANK14  BANK15  BANK16  BANK17  BANK18
  3962 ;;      Params:         0       0       0       0       0       0       0       0       0       0       0       0       
      +0       0       0       0       0       0       0       0
  3963 ;;      Locals:         1       0       0       0       0       0       0       0       0       0       0       0       
      +0       0       0       0       0       0       0       0
  3964 ;;      Temps:          0       0       0       0       0       0       0       0       0       0       0       0       
      +0       0       0       0       0       0       0       0
  3965 ;;      Totals:         1       0       0       0       0       0       0       0       0       0       0       0       
      +0       0       0       0       0       0       0       0
  3966 ;;Total ram usage:        1 bytes
  3967 ;; Hardware stack levels used:    1
  3968 ;; Hardware stack levels required when called:    1
  3969 ;; This function calls:
  3970 ;;		Nothing
  3971 ;; This function is called by:
  3972 ;;		_i2c_Write_string
  3973 ;;		_i2c_write_char
  3974 ;;		_init_i2c_lcd_5v
  3975 ;;		_clear_lcd
  3976 ;;		_i2c_first_line
  3977 ;;		_i2c_second_line
  3978 ;;		_lcd_set_cursor
  3979 ;; This function uses a non-reentrant model
  3980 ;;
  3981                           
  3982                           
  3983                           ;psect for function _i2c_Write
  3984  0300                     _i2c_Write:	
  3985                           
  3986                           ;incstack = 0
  3987                           ; Regs used in _i2c_Write: [wreg+status,2]
  3988                           ;i2c_Write@data stored from wreg
  3989  0300  00F0               	movwf	i2c_Write@data
  3990                           
  3991                           ;newmain1.c: 2581: SSP1BUF = data;
  3992  0301  0870               	movf	i2c_Write@data,w
  3993  0302  0091               	movwf	17	;volatile
  3994  0303                     l584:	
  3995                           ;newmain1.c: 2582: while (SSP1STATbits.BF == 1);
  3996                           
  3997  0303  1814               	btfsc	20,0	;volatile
  3998  0304  2B03               	goto	l584
  3999  0305                     l2876:	
  4000  0305  0816               	movf	22,w	;volatile
  4001  0306  391F               	andlw	31
  4002  0307  1D03               	btfss	3,2
  4003  0308  2B05               	goto	l2876
  4004  0309  1D14               	btfss	20,2	;volatile
  4005  030A  0008               	return
  4006  030B  2B05               	goto	l2876
  4007  030C                     __end_of_i2c_Write:	
  4008  030C                     __ptext25:	
  4009 ;; *************** function _i2c_Start *****************
  4010 ;; Defined at:
  4011 ;;		line 2572 in file "newmain1.c"
  4012 ;; Parameters:    Size  Location     Type
  4013 ;;		None
  4014 ;; Auto vars:     Size  Location     Type
  4015 ;;		None
  4016 ;; Return value:  Size  Location     Type
  4017 ;;		None               void
  4018 ;; Registers used:
  4019 ;;		None
  4020 ;; Tracked objects:
  4021 ;;		On entry : 0/4
  4022 ;;		On exit  : 1F/4
  4023 ;;		Unchanged: 0/0
  4024 ;; Data sizes:     COMMON   BANK0   BANK1   BANK2   BANK3   BANK4   BANK5   BANK6   BANK7   BANK8   BANK9  BANK10  BANK1
      +1  BANK12  BANK13  BANK14  BANK15  BANK16  BANK17  BANK18
  4025 ;;      Params:         0       0       0       0       0       0       0       0       0       0       0       0       
      +0       0       0       0       0       0       0       0
  4026 ;;      Locals:         0       0       0       0       0       0       0       0       0       0       0       0       
      +0       0       0       0       0       0       0       0
  4027 ;;      Temps:          0       0       0       0       0       0       0       0       0       0       0       0       
      +0       0       0       0       0       0       0       0
  4028 ;;      Totals:         0       0       0       0       0       0       0       0       0       0       0       0       
      +0       0       0       0       0       0       0       0
  4029 ;;Total ram usage:        0 bytes
  4030 ;; Hardware stack levels used:    1
  4031 ;; Hardware stack levels required when called:    1
  4032 ;; This function calls:
  4033 ;;		Nothing
  4034 ;; This function is called by:
  4035 ;;		_i2c_Write_string
  4036 ;;		_i2c_write_char
  4037 ;;		_init_i2c_lcd_5v
  4038 ;;		_clear_lcd
  4039 ;;		_i2c_first_line
  4040 ;;		_i2c_second_line
  4041 ;;		_lcd_set_cursor
  4042 ;; This function uses a non-reentrant model
  4043 ;;
  4044                           
  4045                           
  4046                           ;psect for function _i2c_Start
  4047  030C                     _i2c_Start:	
  4048                           
  4049                           ;newmain1.c: 2574: SSP1CON2bits.SEN = 1;
  4050                           
  4051                           ;incstack = 0
  4052                           ; Regs used in _i2c_Start: []
  4053  030C  0024               	movlb	4	; select bank4
  4054  030D  1416               	bsf	22,0	;volatile
  4055  030E                     l578:	
  4056                           ;newmain1.c: 2576: while (SSP1CON2bits.SEN == 1);
  4057                           
  4058  030E  1C16               	btfss	22,0	;volatile
  4059  030F  0008               	return
  4060  0310  2B0E               	goto	l578
  4061  0311                     __end_of_i2c_Start:	
  4062  0311                     __ptext24:	
  4063 ;; *************** function _i2c_Stop *****************
  4064 ;; Defined at:
  4065 ;;		line 2586 in file "newmain1.c"
  4066 ;; Parameters:    Size  Location     Type
  4067 ;;		None
  4068 ;; Auto vars:     Size  Location     Type
  4069 ;;		None
  4070 ;; Return value:  Size  Location     Type
  4071 ;;		None               void
  4072 ;; Registers used:
  4073 ;;		None
  4074 ;; Tracked objects:
  4075 ;;		On entry : 0/4
  4076 ;;		On exit  : 1F/4
  4077 ;;		Unchanged: 0/0
  4078 ;; Data sizes:     COMMON   BANK0   BANK1   BANK2   BANK3   BANK4   BANK5   BANK6   BANK7   BANK8   BANK9  BANK10  BANK1
      +1  BANK12  BANK13  BANK14  BANK15  BANK16  BANK17  BANK18
  4079 ;;      Params:         0       0       0       0       0       0       0       0       0       0       0       0       
      +0       0       0       0       0       0       0       0
  4080 ;;      Locals:         0       0       0       0       0       0       0       0       0       0       0       0       
      +0       0       0       0       0       0       0       0
  4081 ;;      Temps:          0       0       0       0       0       0       0       0       0       0       0       0       
      +0       0       0       0       0       0       0       0
  4082 ;;      Totals:         0       0       0       0       0       0       0       0       0       0       0       0       
      +0       0       0       0       0       0       0       0
  4083 ;;Total ram usage:        0 bytes
  4084 ;; Hardware stack levels used:    1
  4085 ;; Hardware stack levels required when called:    1
  4086 ;; This function calls:
  4087 ;;		Nothing
  4088 ;; This function is called by:
  4089 ;;		_i2c_Write_string
  4090 ;;		_i2c_write_char
  4091 ;;		_init_i2c_lcd_5v
  4092 ;;		_clear_lcd
  4093 ;;		_i2c_first_line
  4094 ;;		_i2c_second_line
  4095 ;;		_lcd_set_cursor
  4096 ;; This function uses a non-reentrant model
  4097 ;;
  4098                           
  4099                           
  4100                           ;psect for function _i2c_Stop
  4101  0311                     _i2c_Stop:	
  4102  0311                     l2880:	
  4103                           ;incstack = 0
  4104                           ; Regs used in _i2c_Stop: []
  4105                           
  4106                           
  4107                           ;newmain1.c: 2587: SSP1CON2bits.PEN = 1;
  4108  0311  0024               	movlb	4	; select bank4
  4109  0312  1516               	bsf	22,2	;volatile
  4110  0313                     l593:	
  4111                           ;newmain1.c: 2588: while (SSP1CON2bits.PEN == 1);
  4112                           
  4113  0313  1D16               	btfss	22,2	;volatile
  4114  0314  0008               	return
  4115  0315  2B13               	goto	l593
  4116  0316                     __end_of_i2c_Stop:	
  4117  0316                     __ptext15:	
  4118 ;; *************** function _ten_thou_conv *****************
  4119 ;; Defined at:
  4120 ;;		line 2940 in file "newmain1.c"
  4121 ;; Parameters:    Size  Location     Type
  4122 ;;  n               2    6[COMMON] int 
  4123 ;; Auto vars:     Size  Location     Type
  4124 ;;		None
  4125 ;; Return value:  Size  Location     Type
  4126 ;;		None               void
  4127 ;; Registers used:
  4128 ;;		wreg, status,2, status,0, pclath, cstack
  4129 ;; Tracked objects:
  4130 ;;		On entry : 1F/0
  4131 ;;		On exit  : 1F/0
  4132 ;;		Unchanged: 0/0
  4133 ;; Data sizes:     COMMON   BANK0   BANK1   BANK2   BANK3   BANK4   BANK5   BANK6   BANK7   BANK8   BANK9  BANK10  BANK1
      +1  BANK12  BANK13  BANK14  BANK15  BANK16  BANK17  BANK18
  4134 ;;      Params:         2       0       0       0       0       0       0       0       0       0       0       0       
      +0       0       0       0       0       0       0       0
  4135 ;;      Locals:         0       0       0       0       0       0       0       0       0       0       0       0       
      +0       0       0       0       0       0       0       0
  4136 ;;      Temps:          3       0       0       0       0       0       0       0       0       0       0       0       
      +0       0       0       0       0       0       0       0
  4137 ;;      Totals:         5       0       0       0       0       0       0       0       0       0       0       0       
      +0       0       0       0       0       0       0       0
  4138 ;;Total ram usage:        5 bytes
  4139 ;; Hardware stack levels used:    1
  4140 ;; Hardware stack levels required when called:    2
  4141 ;; This function calls:
  4142 ;;		___bmul
  4143 ;;		___wmul
  4144 ;; This function is called by:
  4145 ;;		_lcd_print_int
  4146 ;; This function uses a non-reentrant model
  4147 ;;
  4148                           
  4149                           
  4150                           ;psect for function _ten_thou_conv
  4151  0316                     _ten_thou_conv:	
  4152                           
  4153                           ;newmain1.c: 2942: unit = n & 0x1F;
  4154                           
  4155                           ;incstack = 0
  4156                           ; Regs used in _ten_thou_conv: [wreg+status,2+status,0+pclath+cstack]
  4157  0316  0876               	movf	ten_thou_conv@n,w
  4158  0317  00C4               	movwf	_unit
  4159  0318  301F               	movlw	31
  4160  0319  05C4               	andwf	_unit,f
  4161                           
  4162                           ;newmain1.c: 2943: ten = (n >> 5) & 0xF;
  4163  031A  0877               	movf	ten_thou_conv@n+1,w
  4164  031B  00F9               	movwf	??_ten_thou_conv+1
  4165  031C  0876               	movf	ten_thou_conv@n,w
  4166  031D  00F8               	movwf	??_ten_thou_conv
  4167  031E  3005               	movlw	5
  4168  031F  00FA               	movwf	??_ten_thou_conv+2
  4169  0320                     u2055:	
  4170  0320  0D79               	rlf	??_ten_thou_conv+1,w
  4171  0321  0CF9               	rrf	??_ten_thou_conv+1,f
  4172  0322  0CF8               	rrf	??_ten_thou_conv,f
  4173  0323  0BFA               	decfsz	??_ten_thou_conv+2,f
  4174  0324  2B20               	goto	u2055
  4175  0325  0878               	movf	??_ten_thou_conv,w
  4176  0326  00C2               	movwf	_ten
  4177  0327  300F               	movlw	15
  4178  0328  05C2               	andwf	_ten,f
  4179                           
  4180                           ;newmain1.c: 2944: hund = (n >> 9) & 0xF;
  4181  0329  0877               	movf	ten_thou_conv@n+1,w
  4182  032A  00F9               	movwf	??_ten_thou_conv+1
  4183  032B  0876               	movf	ten_thou_conv@n,w
  4184  032C  00F8               	movwf	??_ten_thou_conv
  4185  032D  3009               	movlw	9
  4186  032E  00FA               	movwf	??_ten_thou_conv+2
  4187  032F                     u2065:	
  4188  032F  0D79               	rlf	??_ten_thou_conv+1,w
  4189  0330  0CF9               	rrf	??_ten_thou_conv+1,f
  4190  0331  0CF8               	rrf	??_ten_thou_conv,f
  4191  0332  0BFA               	decfsz	??_ten_thou_conv+2,f
  4192  0333  2B2F               	goto	u2065
  4193  0334  0878               	movf	??_ten_thou_conv,w
  4194  0335  00C0               	movwf	_hund
  4195  0336  300F               	movlw	15
  4196  0337  05C0               	andwf	_hund,f
  4197                           
  4198                           ;newmain1.c: 2945: thou = (n >> 13) & 0x7;
  4199  0338  0877               	movf	ten_thou_conv@n+1,w
  4200  0339  00F9               	movwf	??_ten_thou_conv+1
  4201  033A  0876               	movf	ten_thou_conv@n,w
  4202  033B  00F8               	movwf	??_ten_thou_conv
  4203  033C  300D               	movlw	13
  4204  033D  00FA               	movwf	??_ten_thou_conv+2
  4205  033E                     u2075:	
  4206  033E  0D79               	rlf	??_ten_thou_conv+1,w
  4207  033F  0CF9               	rrf	??_ten_thou_conv+1,f
  4208  0340  0CF8               	rrf	??_ten_thou_conv,f
  4209  0341  0BFA               	decfsz	??_ten_thou_conv+2,f
  4210  0342  2B3E               	goto	u2075
  4211  0343  0878               	movf	??_ten_thou_conv,w
  4212  0344  00C7               	movwf	_thou
  4213  0345  3007               	movlw	7
  4214  0346  05C7               	andwf	_thou,f
  4215                           
  4216                           ;newmain1.c: 2947: unit = 2 * (thou + hund + ten) + unit;
  4217  0347  0847               	movf	_thou,w
  4218  0348  0740               	addwf	_hund,w
  4219  0349  0742               	addwf	_ten,w
  4220  034A  0709               	addwf	9,w
  4221  034B  07C4               	addwf	_unit,f
  4222                           
  4223                           ;newmain1.c: 2948: ten_thou = (unit * 0x67) >> 10;
  4224  034C  0844               	movf	_unit,w
  4225  034D  00F0               	movwf	___wmul@multiplier
  4226  034E  3067               	movlw	103
  4227  034F  01F1               	clrf	___wmul@multiplier+1
  4228  0350  00F2               	movwf	___wmul@multiplicand
  4229  0351  01F3               	clrf	___wmul@multiplicand+1
  4230  0352  23E8  3180         	fcall	___wmul
  4231  0354  0870               	movf	?___wmul,w
  4232  0355  00F8               	movwf	??_ten_thou_conv
  4233  0356  0871               	movf	?___wmul+1,w
  4234  0357  00F9               	movwf	??_ten_thou_conv+1
  4235  0358  300A               	movlw	10
  4236  0359  00FA               	movwf	??_ten_thou_conv+2
  4237  035A                     u2085:	
  4238  035A  0D79               	rlf	??_ten_thou_conv+1,w
  4239  035B  0CF9               	rrf	??_ten_thou_conv+1,f
  4240  035C  0CF8               	rrf	??_ten_thou_conv,f
  4241  035D  0BFA               	decfsz	??_ten_thou_conv+2,f
  4242  035E  2B5A               	goto	u2085
  4243  035F  0878               	movf	??_ten_thou_conv,w
  4244  0360  00C3               	movwf	_ten_thou
  4245                           
  4246                           ;newmain1.c: 2949: unit = unit - 10 * ten_thou;
  4247  0361  30F6               	movlw	246
  4248  0362  00F0               	movwf	___bmul@multiplicand
  4249  0363  0843               	movf	_ten_thou,w
  4250  0364  23C5  3180         	fcall	___bmul
  4251  0366  07C4               	addwf	_unit,f
  4252                           
  4253                           ;newmain1.c: 2951: ten = 9 * thou + hund + 3 * ten + ten_thou;
  4254  0367  3009               	movlw	9
  4255  0368  00F0               	movwf	___bmul@multiplicand
  4256  0369  0847               	movf	_thou,w
  4257  036A  23C5  3180         	fcall	___bmul
  4258  036C  00F8               	movwf	??_ten_thou_conv
  4259  036D  0842               	movf	_ten,w
  4260  036E  0742               	addwf	_ten,w
  4261  036F  0742               	addwf	_ten,w
  4262  0370  0778               	addwf	??_ten_thou_conv,w
  4263  0371  0740               	addwf	_hund,w
  4264  0372  0743               	addwf	_ten_thou,w
  4265  0373  00C2               	movwf	_ten
  4266                           
  4267                           ;newmain1.c: 2952: ten_thou = (ten * 0x67) >> 10;
  4268  0374  00F0               	movwf	___wmul@multiplier
  4269  0375  3067               	movlw	103
  4270  0376  01F1               	clrf	___wmul@multiplier+1
  4271  0377  00F2               	movwf	___wmul@multiplicand
  4272  0378  01F3               	clrf	___wmul@multiplicand+1
  4273  0379  23E8  3180         	fcall	___wmul
  4274  037B  0870               	movf	?___wmul,w
  4275  037C  00F8               	movwf	??_ten_thou_conv
  4276  037D  0871               	movf	?___wmul+1,w
  4277  037E  00F9               	movwf	??_ten_thou_conv+1
  4278  037F  300A               	movlw	10
  4279  0380  00FA               	movwf	??_ten_thou_conv+2
  4280  0381                     u2095:	
  4281  0381  0D79               	rlf	??_ten_thou_conv+1,w
  4282  0382  0CF9               	rrf	??_ten_thou_conv+1,f
  4283  0383  0CF8               	rrf	??_ten_thou_conv,f
  4284  0384  0BFA               	decfsz	??_ten_thou_conv+2,f
  4285  0385  2B81               	goto	u2095
  4286  0386  0878               	movf	??_ten_thou_conv,w
  4287  0387  00C3               	movwf	_ten_thou
  4288                           
  4289                           ;newmain1.c: 2953: ten = ten - 10 * ten_thou;
  4290  0388  30F6               	movlw	246
  4291  0389  00F0               	movwf	___bmul@multiplicand
  4292  038A  0843               	movf	_ten_thou,w
  4293  038B  23C5  3180         	fcall	___bmul
  4294  038D  07C2               	addwf	_ten,f
  4295                           
  4296                           ;newmain1.c: 2955: hund = thou + 5 * hund + ten_thou;
  4297  038E  3005               	movlw	5
  4298  038F  00F0               	movwf	___bmul@multiplicand
  4299  0390  0840               	movf	_hund,w
  4300  0391  23C5  3180         	fcall	___bmul
  4301  0393  0747               	addwf	_thou,w
  4302  0394  0743               	addwf	_ten_thou,w
  4303  0395  00C0               	movwf	_hund
  4304                           
  4305                           ;newmain1.c: 2956: ten_thou = (hund * 0x67) >> 10;
  4306  0396  00F0               	movwf	___wmul@multiplier
  4307  0397  3067               	movlw	103
  4308  0398  01F1               	clrf	___wmul@multiplier+1
  4309  0399  00F2               	movwf	___wmul@multiplicand
  4310  039A  01F3               	clrf	___wmul@multiplicand+1
  4311  039B  23E8  3180         	fcall	___wmul
  4312  039D  0870               	movf	?___wmul,w
  4313  039E  00F8               	movwf	??_ten_thou_conv
  4314  039F  0871               	movf	?___wmul+1,w
  4315  03A0  00F9               	movwf	??_ten_thou_conv+1
  4316  03A1  300A               	movlw	10
  4317  03A2  00FA               	movwf	??_ten_thou_conv+2
  4318  03A3                     u2105:	
  4319  03A3  0D79               	rlf	??_ten_thou_conv+1,w
  4320  03A4  0CF9               	rrf	??_ten_thou_conv+1,f
  4321  03A5  0CF8               	rrf	??_ten_thou_conv,f
  4322  03A6  0BFA               	decfsz	??_ten_thou_conv+2,f
  4323  03A7  2BA3               	goto	u2105
  4324  03A8  0878               	movf	??_ten_thou_conv,w
  4325  03A9  00C3               	movwf	_ten_thou
  4326                           
  4327                           ;newmain1.c: 2957: hund = hund - 10 * ten_thou;
  4328  03AA  30F6               	movlw	246
  4329  03AB  00F0               	movwf	___bmul@multiplicand
  4330  03AC  0843               	movf	_ten_thou,w
  4331  03AD  23C5  3180         	fcall	___bmul
  4332  03AF  07C0               	addwf	_hund,f
  4333                           
  4334                           ;newmain1.c: 2959: thou = 8 * thou + ten_thou;
  4335  03B0  0847               	movf	_thou,w
  4336  03B1  0709               	addwf	9,w
  4337  03B2  0709               	addwf	9,w
  4338  03B3  0709               	addwf	9,w
  4339  03B4  0743               	addwf	_ten_thou,w
  4340  03B5  00C7               	movwf	_thou
  4341                           
  4342                           ;newmain1.c: 2960: ten_thou = (thou * 0x1A) >> 8;
  4343  03B6  00F0               	movwf	___wmul@multiplier
  4344  03B7  301A               	movlw	26
  4345  03B8  01F1               	clrf	___wmul@multiplier+1
  4346  03B9  00F2               	movwf	___wmul@multiplicand
  4347  03BA  01F3               	clrf	___wmul@multiplicand+1
  4348  03BB  23E8  3180         	fcall	___wmul
  4349  03BD  0871               	movf	?___wmul+1,w
  4350  03BE  00C3               	movwf	_ten_thou
  4351                           
  4352                           ;newmain1.c: 2961: thou = thou - 10 * ten_thou;
  4353  03BF  30F6               	movlw	246
  4354  03C0  00F0               	movwf	___bmul@multiplicand
  4355  03C1  0843               	movf	_ten_thou,w
  4356  03C2  23C5               	fcall	___bmul
  4357  03C3  07C7               	addwf	_thou,f
  4358  03C4  0008               	return
  4359  03C5                     __end_of_ten_thou_conv:	
  4360  03C5                     __ptext17:	
  4361 ;; *************** function ___bmul *****************
  4362 ;; Defined at:
  4363 ;;		line 4 in file "C:\Program Files (x86)\Microchip\xc8\v1.35\sources\common\Umul8.c"
  4364 ;; Parameters:    Size  Location     Type
  4365 ;;  multiplier      1    wreg     unsigned char 
  4366 ;;  multiplicand    1    0[COMMON] unsigned char 
  4367 ;; Auto vars:     Size  Location     Type
  4368 ;;  multiplier      1    2[COMMON] unsigned char 
  4369 ;;  product         1    1[COMMON] unsigned char 
  4370 ;; Return value:  Size  Location     Type
  4371 ;;                  1    wreg      unsigned char 
  4372 ;; Registers used:
  4373 ;;		wreg, status,2, status,0
  4374 ;; Tracked objects:
  4375 ;;		On entry : 1F/0
  4376 ;;		On exit  : 1F/0
  4377 ;;		Unchanged: 1F/0
  4378 ;; Data sizes:     COMMON   BANK0   BANK1   BANK2   BANK3   BANK4   BANK5   BANK6   BANK7   BANK8   BANK9  BANK10  BANK1
      +1  BANK12  BANK13  BANK14  BANK15  BANK16  BANK17  BANK18
  4379 ;;      Params:         1       0       0       0       0       0       0       0       0       0       0       0       
      +0       0       0       0       0       0       0       0
  4380 ;;      Locals:         2       0       0       0       0       0       0       0       0       0       0       0       
      +0       0       0       0       0       0       0       0
  4381 ;;      Temps:          0       0       0       0       0       0       0       0       0       0       0       0       
      +0       0       0       0       0       0       0       0
  4382 ;;      Totals:         3       0       0       0       0       0       0       0       0       0       0       0       
      +0       0       0       0       0       0       0       0
  4383 ;;Total ram usage:        3 bytes
  4384 ;; Hardware stack levels used:    1
  4385 ;; Hardware stack levels required when called:    1
  4386 ;; This function calls:
  4387 ;;		Nothing
  4388 ;; This function is called by:
  4389 ;;		_ten_thou_conv
  4390 ;; This function uses a non-reentrant model
  4391 ;;
  4392                           
  4393                           
  4394                           ;psect for function ___bmul
  4395  03C5                     ___bmul:	
  4396                           
  4397                           ;incstack = 0
  4398                           ; Regs used in ___bmul: [wreg+status,2+status,0]
  4399                           ;___bmul@multiplier stored from wreg
  4400  03C5  00F2               	movwf	___bmul@multiplier
  4401  03C6  01F1               	clrf	___bmul@product
  4402  03C7  0870               	movf	___bmul@multiplicand,w
  4403  03C8  1872               	btfsc	___bmul@multiplier,0
  4404  03C9  07F1               	addwf	___bmul@product,f
  4405  03CA  35F0               	lslf	___bmul@multiplicand,f
  4406  03CB  0870               	movf	___bmul@multiplicand,w
  4407  03CC  18F2               	btfsc	___bmul@multiplier,1
  4408  03CD  07F1               	addwf	___bmul@product,f
  4409  03CE  35F0               	lslf	___bmul@multiplicand,f
  4410  03CF  0870               	movf	___bmul@multiplicand,w
  4411  03D0  1972               	btfsc	___bmul@multiplier,2
  4412  03D1  07F1               	addwf	___bmul@product,f
  4413  03D2  35F0               	lslf	___bmul@multiplicand,f
  4414  03D3  0870               	movf	___bmul@multiplicand,w
  4415  03D4  19F2               	btfsc	___bmul@multiplier,3
  4416  03D5  07F1               	addwf	___bmul@product,f
  4417  03D6  35F0               	lslf	___bmul@multiplicand,f
  4418  03D7  0870               	movf	___bmul@multiplicand,w
  4419  03D8  1A72               	btfsc	___bmul@multiplier,4
  4420  03D9  07F1               	addwf	___bmul@product,f
  4421  03DA  35F0               	lslf	___bmul@multiplicand,f
  4422  03DB  0870               	movf	___bmul@multiplicand,w
  4423  03DC  1AF2               	btfsc	___bmul@multiplier,5
  4424  03DD  07F1               	addwf	___bmul@product,f
  4425  03DE  35F0               	lslf	___bmul@multiplicand,f
  4426  03DF  0870               	movf	___bmul@multiplicand,w
  4427  03E0  1B72               	btfsc	___bmul@multiplier,6
  4428  03E1  07F1               	addwf	___bmul@product,f
  4429  03E2  35F0               	lslf	___bmul@multiplicand,f
  4430  03E3  0870               	movf	___bmul@multiplicand,w
  4431  03E4  1BF2               	btfsc	___bmul@multiplier,7
  4432  03E5  07F1               	addwf	___bmul@product,f
  4433  03E6  0871               	movf	___bmul@product,w
  4434  03E7  0008               	return
  4435  03E8                     __end_of___bmul:	
  4436  03E8                     __ptext16:	
  4437 ;; *************** function ___wmul *****************
  4438 ;; Defined at:
  4439 ;;		line 15 in file "C:\Program Files (x86)\Microchip\xc8\v1.35\sources\common\Umul16.c"
  4440 ;; Parameters:    Size  Location     Type
  4441 ;;  multiplier      2    0[COMMON] unsigned int 
  4442 ;;  multiplicand    2    2[COMMON] unsigned int 
  4443 ;; Auto vars:     Size  Location     Type
  4444 ;;  product         2    4[COMMON] unsigned int 
  4445 ;; Return value:  Size  Location     Type
  4446 ;;                  2    0[COMMON] unsigned int 
  4447 ;; Registers used:
  4448 ;;		wreg, status,2, status,0
  4449 ;; Tracked objects:
  4450 ;;		On entry : 1F/0
  4451 ;;		On exit  : 1F/0
  4452 ;;		Unchanged: 1F/0
  4453 ;; Data sizes:     COMMON   BANK0   BANK1   BANK2   BANK3   BANK4   BANK5   BANK6   BANK7   BANK8   BANK9  BANK10  BANK1
      +1  BANK12  BANK13  BANK14  BANK15  BANK16  BANK17  BANK18
  4454 ;;      Params:         4       0       0       0       0       0       0       0       0       0       0       0       
      +0       0       0       0       0       0       0       0
  4455 ;;      Locals:         2       0       0       0       0       0       0       0       0       0       0       0       
      +0       0       0       0       0       0       0       0
  4456 ;;      Temps:          0       0       0       0       0       0       0       0       0       0       0       0       
      +0       0       0       0       0       0       0       0
  4457 ;;      Totals:         6       0       0       0       0       0       0       0       0       0       0       0       
      +0       0       0       0       0       0       0       0
  4458 ;;Total ram usage:        6 bytes
  4459 ;; Hardware stack levels used:    1
  4460 ;; Hardware stack levels required when called:    1
  4461 ;; This function calls:
  4462 ;;		Nothing
  4463 ;; This function is called by:
  4464 ;;		_ten_thou_conv
  4465 ;; This function uses a non-reentrant model
  4466 ;;
  4467                           
  4468                           
  4469                           ;psect for function ___wmul
  4470  03E8                     ___wmul:	
  4471                           
  4472                           ;incstack = 0
  4473                           ; Regs used in ___wmul: [wreg+status,2+status,0]
  4474  03E8  01F4               	clrf	___wmul@product
  4475  03E9  01F5               	clrf	___wmul@product+1
  4476  03EA                     l2956:	
  4477  03EA  1C70               	btfss	___wmul@multiplier,0
  4478  03EB  2BF0               	goto	l2960
  4479  03EC  0872               	movf	___wmul@multiplicand,w
  4480  03ED  07F4               	addwf	___wmul@product,f
  4481  03EE  0873               	movf	___wmul@multiplicand+1,w
  4482  03EF  3DF5               	addwfc	___wmul@product+1,f
  4483  03F0                     l2960:	
  4484  03F0  35F2               	lslf	___wmul@multiplicand,f
  4485  03F1  0DF3               	rlf	___wmul@multiplicand+1,f
  4486  03F2  36F1               	lsrf	___wmul@multiplier+1,f
  4487  03F3  0CF0               	rrf	___wmul@multiplier,f
  4488  03F4  0870               	movf	___wmul@multiplier,w
  4489  03F5  0471               	iorwf	___wmul@multiplier+1,w
  4490  03F6  1D03               	btfss	3,2
  4491  03F7  2BEA               	goto	l2956
  4492  03F8  0875               	movf	___wmul@product+1,w
  4493  03F9  00F1               	movwf	?___wmul+1
  4494  03FA  0874               	movf	___wmul@product,w
  4495  03FB  00F0               	movwf	?___wmul
  4496  03FC  0008               	return
  4497  03FD                     __end_of___wmul:	
  4498  03FD                     __ptext12:	
  4499 ;; *************** function _buzz_one *****************
  4500 ;; Defined at:
  4501 ;;		line 2560 in file "newmain1.c"
  4502 ;; Parameters:    Size  Location     Type
  4503 ;;  time            2    0[COMMON] unsigned int 
  4504 ;; Auto vars:     Size  Location     Type
  4505 ;;		None
  4506 ;; Return value:  Size  Location     Type
  4507 ;;		None               void
  4508 ;; Registers used:
  4509 ;;		None
  4510 ;; Tracked objects:
  4511 ;;		On entry : 0/0
  4512 ;;		On exit  : 0/0
  4513 ;;		Unchanged: 0/0
  4514 ;; Data sizes:     COMMON   BANK0   BANK1   BANK2   BANK3   BANK4   BANK5   BANK6   BANK7   BANK8   BANK9  BANK10  BANK1
      +1  BANK12  BANK13  BANK14  BANK15  BANK16  BANK17  BANK18
  4515 ;;      Params:         2       0       0       0       0       0       0       0       0       0       0       0       
      +0       0       0       0       0       0       0       0
  4516 ;;      Locals:         0       0       0       0       0       0       0       0       0       0       0       0       
      +0       0       0       0       0       0       0       0
  4517 ;;      Temps:          0       0       0       0       0       0       0       0       0       0       0       0       
      +0       0       0       0       0       0       0       0
  4518 ;;      Totals:         2       0       0       0       0       0       0       0       0       0       0       0       
      +0       0       0       0       0       0       0       0
  4519 ;;Total ram usage:        2 bytes
  4520 ;; Hardware stack levels used:    1
  4521 ;; Hardware stack levels required when called:    1
  4522 ;; This function calls:
  4523 ;;		Nothing
  4524 ;; This function is called by:
  4525 ;;		_main
  4526 ;;		_print_error
  4527 ;; This function uses a non-reentrant model
  4528 ;;
  4529                           
  4530                           
  4531                           ;psect for function _buzz_one
  4532  03FD                     _buzz_one:	
  4533                           
  4534                           ;incstack = 0
  4535                           ; Regs used in _buzz_one: []
  4536  03FD  0008               	return
  4537  03FE                     __end_of_buzz_one:	
  4538  03FE                     __ptext11:	
  4539 ;; *************** function _debug_fast_tx *****************
  4540 ;; Defined at:
  4541 ;;		line 3736 in file "newmain1.c"
  4542 ;; Parameters:    Size  Location     Type
  4543 ;;  data            2    0[COMMON] unsigned int 
  4544 ;; Auto vars:     Size  Location     Type
  4545 ;;  i               1    2[COMMON] unsigned char 
  4546 ;; Return value:  Size  Location     Type
  4547 ;;		None               void
  4548 ;; Registers used:
  4549 ;;		wreg, status,2, status,0
  4550 ;; Tracked objects:
  4551 ;;		On entry : 0/0
  4552 ;;		On exit  : 0/0
  4553 ;;		Unchanged: 0/0
  4554 ;; Data sizes:     COMMON   BANK0   BANK1   BANK2   BANK3   BANK4   BANK5   BANK6   BANK7   BANK8   BANK9  BANK10  BANK1
      +1  BANK12  BANK13  BANK14  BANK15  BANK16  BANK17  BANK18
  4555 ;;      Params:         2       0       0       0       0       0       0       0       0       0       0       0       
      +0       0       0       0       0       0       0       0
  4556 ;;      Locals:         1       0       0       0       0       0       0       0       0       0       0       0       
      +0       0       0       0       0       0       0       0
  4557 ;;      Temps:          0       0       0       0       0       0       0       0       0       0       0       0       
      +0       0       0       0       0       0       0       0
  4558 ;;      Totals:         3       0       0       0       0       0       0       0       0       0       0       0       
      +0       0       0       0       0       0       0       0
  4559 ;;Total ram usage:        3 bytes
  4560 ;; Hardware stack levels used:    1
  4561 ;; Hardware stack levels required when called:    1
  4562 ;; This function calls:
  4563 ;;		Nothing
  4564 ;; This function is called by:
  4565 ;;		_main
  4566 ;;		_print_error
  4567 ;; This function uses a non-reentrant model
  4568 ;;
  4569                           
  4570                           
  4571                           ;psect for function _debug_fast_tx
  4572  03FE                     _debug_fast_tx:	
  4573                           
  4574                           ;newmain1.c: 3737: GIE = 0;
  4575                           
  4576                           ;incstack = 0
  4577                           ; Regs used in _debug_fast_tx: [wreg+status,2+status,0]
  4578  03FE  138B               	bcf	11,7	;volatile
  4579                           
  4580                           ;newmain1.c: 3738: LATD2 = 0;
  4581  03FF  0022               	movlb	2	; select bank2
  4582  0400  110F               	bcf	15,2	;volatile
  4583                           
  4584                           ;newmain1.c: 3744: __nop();
  4585  0401  0000               	nop
  4586                           
  4587                           ;newmain1.c: 3745: __nop();
  4588  0402  0000               	nop
  4589                           
  4590                           ;newmain1.c: 3746: __nop();
  4591  0403  0000               	nop
  4592                           
  4593                           ;newmain1.c: 3747: __nop();
  4594  0404  0000               	nop
  4595                           
  4596                           ;newmain1.c: 3748: __nop();
  4597  0405  0000               	nop
  4598                           
  4599                           ;newmain1.c: 3749: __nop();
  4600  0406  0000               	nop
  4601                           
  4602                           ;newmain1.c: 3750: __nop();
  4603  0407  0000               	nop
  4604                           
  4605                           ;newmain1.c: 3751: __nop();
  4606  0408  0000               	nop
  4607                           
  4608                           ;newmain1.c: 3752: __nop();
  4609  0409  0000               	nop
  4610                           
  4611                           ;newmain1.c: 3753: unsigned char i;
  4612                           ;newmain1.c: 3754: for (i = 0; i < 16; i++) {
  4613  040A  01F2               	clrf	debug_fast_tx@i
  4614  040B                     l850:	
  4615                           
  4616                           ;newmain1.c: 3755: LATD2 = data & 0x01;
  4617  040B  1C70               	btfss	debug_fast_tx@data,0
  4618  040C  2C10               	goto	u1770
  4619  040D  0022               	movlb	2	; select bank2
  4620  040E  150F               	bsf	15,2	;volatile
  4621  040F  2C12               	goto	l2950
  4622  0410                     u1770:	
  4623  0410  0022               	movlb	2	; select bank2
  4624  0411  110F               	bcf	15,2	;volatile
  4625  0412                     l2950:	
  4626  0412  3010               	movlw	16
  4627                           
  4628                           ;newmain1.c: 3756: data = data >> 1;
  4629  0413  36F1               	lsrf	debug_fast_tx@data+1,f
  4630  0414  0CF0               	rrf	debug_fast_tx@data,f
  4631  0415  0AF2               	incf	debug_fast_tx@i,f
  4632  0416  0272               	subwf	debug_fast_tx@i,w
  4633  0417  1C03               	skipc
  4634  0418  2C0B               	goto	l850
  4635                           
  4636                           ;newmain1.c: 3757: }
  4637                           ;newmain1.c: 3758: __nop();
  4638  0419  0000               	nop
  4639                           
  4640                           ;newmain1.c: 3759: __nop();
  4641  041A  0000               	nop
  4642                           
  4643                           ;newmain1.c: 3760: __nop();
  4644  041B  0000               	nop
  4645                           
  4646                           ;newmain1.c: 3761: __nop();
  4647  041C  0000               	nop
  4648                           
  4649                           ;newmain1.c: 3762: __nop();
  4650  041D  0000               	nop
  4651                           
  4652                           ;newmain1.c: 3763: __nop();
  4653  041E  0000               	nop
  4654                           
  4655                           ;newmain1.c: 3764: LATD2 = 1;
  4656  041F  0022               	movlb	2	; select bank2
  4657  0420  150F               	bsf	15,2	;volatile
  4658                           
  4659                           ;newmain1.c: 3765: __nop();
  4660  0421  0000               	nop
  4661                           
  4662                           ;newmain1.c: 3766: __nop();
  4663  0422  0000               	nop
  4664                           
  4665                           ;newmain1.c: 3767: __nop();
  4666  0423  0000               	nop
  4667                           
  4668                           ;newmain1.c: 3768: __nop();
  4669  0424  0000               	nop
  4670                           
  4671                           ;newmain1.c: 3769: __nop();
  4672  0425  0000               	nop
  4673                           
  4674                           ;newmain1.c: 3770: __nop();
  4675  0426  0000               	nop
  4676                           
  4677                           ;newmain1.c: 3771: __nop();
  4678  0427  0000               	nop
  4679                           
  4680                           ;newmain1.c: 3772: __nop();
  4681  0428  0000               	nop
  4682                           
  4683                           ;newmain1.c: 3773: GIE = 1;
  4684  0429  178B               	bsf	11,7	;volatile
  4685  042A  0008               	return
  4686  042B                     __end_of_debug_fast_tx:	
  4687  042B                     __ptext10:	
  4688 ;; *************** function _power_supply_set *****************
  4689 ;; Defined at:
  4690 ;;		line 3595 in file "newmain1.c"
  4691 ;; Parameters:    Size  Location     Type
  4692 ;;  supply          1    wreg     unsigned char 
  4693 ;; Auto vars:     Size  Location     Type
  4694 ;;  supply          1    0[COMMON] unsigned char 
  4695 ;; Return value:  Size  Location     Type
  4696 ;;		None               void
  4697 ;; Registers used:
  4698 ;;		wreg, fsr0l, fsr0h, status,2, status,0
  4699 ;; Tracked objects:
  4700 ;;		On entry : 0/8
  4701 ;;		On exit  : 0/0
  4702 ;;		Unchanged: 0/0
  4703 ;; Data sizes:     COMMON   BANK0   BANK1   BANK2   BANK3   BANK4   BANK5   BANK6   BANK7   BANK8   BANK9  BANK10  BANK1
      +1  BANK12  BANK13  BANK14  BANK15  BANK16  BANK17  BANK18
  4704 ;;      Params:         0       0       0       0       0       0       0       0       0       0       0       0       
      +0       0       0       0       0       0       0       0
  4705 ;;      Locals:         1       0       0       0       0       0       0       0       0       0       0       0       
      +0       0       0       0       0       0       0       0
  4706 ;;      Temps:          0       0       0       0       0       0       0       0       0       0       0       0       
      +0       0       0       0       0       0       0       0
  4707 ;;      Totals:         1       0       0       0       0       0       0       0       0       0       0       0       
      +0       0       0       0       0       0       0       0
  4708 ;;Total ram usage:        1 bytes
  4709 ;; Hardware stack levels used:    1
  4710 ;; Hardware stack levels required when called:    1
  4711 ;; This function calls:
  4712 ;;		Nothing
  4713 ;; This function is called by:
  4714 ;;		_main
  4715 ;;		_print_error
  4716 ;; This function uses a non-reentrant model
  4717 ;;
  4718                           
  4719                           
  4720                           ;psect for function _power_supply_set
  4721  042B                     _power_supply_set:	
  4722                           
  4723                           ;incstack = 0
  4724                           ; Regs used in _power_supply_set: [wreg-fsr0h+status,2+status,0]
  4725                           ;power_supply_set@supply stored from wreg
  4726  042B  00F0               	movwf	power_supply_set@supply
  4727                           
  4728                           ;newmain1.c: 3597: switch (supply)
  4729  042C  2C4F               	goto	l2930
  4730  042D                     l814:	
  4731                           ;newmain1.c: 3598: {
  4732                           ;newmain1.c: 3599: case 0:
  4733                           
  4734                           
  4735                           ;newmain1.c: 3600: LATA6 = 0;
  4736  042D  0022               	movlb	2	; select bank2
  4737  042E  130C               	bcf	12,6	;volatile
  4738                           
  4739                           ;newmain1.c: 3601: LATD4 = 1;
  4740  042F  160F               	bsf	15,4	;volatile
  4741                           
  4742                           ;newmain1.c: 3602: LATD5 = 0;
  4743  0430  128F               	bcf	15,5	;volatile
  4744                           
  4745                           ;newmain1.c: 3603: LATD6 = 0;
  4746  0431  130F               	bcf	15,6	;volatile
  4747                           
  4748                           ;newmain1.c: 3604: LATD7 = 0;
  4749  0432  138F               	bcf	15,7	;volatile
  4750                           
  4751                           ;newmain1.c: 3606: LATB5 = 0;
  4752  0433  128D               	bcf	13,5	;volatile
  4753                           
  4754                           ;newmain1.c: 3607: break;
  4755  0434  0008               	return
  4756  0435                     l816:	
  4757                           ;newmain1.c: 3608: case 1:
  4758                           
  4759                           
  4760                           ;newmain1.c: 3609: LATA6 = 0;
  4761  0435  0022               	movlb	2	; select bank2
  4762  0436  130C               	bcf	12,6	;volatile
  4763                           
  4764                           ;newmain1.c: 3610: LATD4 = 1;
  4765  0437  160F               	bsf	15,4	;volatile
  4766                           
  4767                           ;newmain1.c: 3611: LATD5 = 1;
  4768  0438  168F               	bsf	15,5	;volatile
  4769                           
  4770                           ;newmain1.c: 3612: LATD6 = 0;
  4771  0439  130F               	bcf	15,6	;volatile
  4772                           
  4773                           ;newmain1.c: 3613: LATD7 = 0;
  4774  043A  138F               	bcf	15,7	;volatile
  4775                           
  4776                           ;newmain1.c: 3615: LATB5 = 0;
  4777  043B  128D               	bcf	13,5	;volatile
  4778                           
  4779                           ;newmain1.c: 3616: break;
  4780  043C  0008               	return
  4781  043D                     l817:	
  4782                           ;newmain1.c: 3617: case 2:
  4783                           
  4784                           
  4785                           ;newmain1.c: 3618: LATA6 = 0;
  4786  043D  0022               	movlb	2	; select bank2
  4787  043E  130C               	bcf	12,6	;volatile
  4788                           
  4789                           ;newmain1.c: 3619: LATD4 = 0;
  4790  043F  120F               	bcf	15,4	;volatile
  4791                           
  4792                           ;newmain1.c: 3620: LATD5 = 0;
  4793  0440  128F               	bcf	15,5	;volatile
  4794                           
  4795                           ;newmain1.c: 3621: LATD6 = 0;
  4796  0441  130F               	bcf	15,6	;volatile
  4797                           
  4798                           ;newmain1.c: 3622: LATD7 = 0;
  4799  0442  138F               	bcf	15,7	;volatile
  4800                           
  4801                           ;newmain1.c: 3624: LATB5 = 0;
  4802  0443  128D               	bcf	13,5	;volatile
  4803                           
  4804                           ;newmain1.c: 3625: break;
  4805  0444  0008               	return
  4806  0445                     l819:	
  4807                           ;newmain1.c: 3635: case 4:
  4808                           
  4809                           
  4810                           ;newmain1.c: 3636: LATA6 = 0;
  4811  0445  0022               	movlb	2	; select bank2
  4812  0446  130C               	bcf	12,6	;volatile
  4813                           
  4814                           ;newmain1.c: 3637: LATD4 = 0;
  4815  0447  120F               	bcf	15,4	;volatile
  4816                           
  4817                           ;newmain1.c: 3638: LATD5 = 0;
  4818  0448  128F               	bcf	15,5	;volatile
  4819                           
  4820                           ;newmain1.c: 3639: LATD6 = 0;
  4821  0449  130F               	bcf	15,6	;volatile
  4822                           
  4823                           ;newmain1.c: 3640: LATD7 = 0;
  4824  044A  138F               	bcf	15,7	;volatile
  4825                           
  4826                           ;newmain1.c: 3641: LATB4 = 0;
  4827  044B  120D               	bcf	13,4	;volatile
  4828                           
  4829                           ;newmain1.c: 3642: LATB6 = 0;
  4830  044C  130D               	bcf	13,6	;volatile
  4831                           
  4832                           ;newmain1.c: 3643: LATB5 = 0;
  4833  044D  128D               	bcf	13,5	;volatile
  4834                           
  4835                           ;newmain1.c: 3644: break;
  4836  044E  0008               	return
  4837  044F                     l2930:	
  4838  044F  0870               	movf	power_supply_set@supply,w
  4839                           
  4840                           ; Switch size 1, requested type "speed"
  4841                           ; Number of cases is 5, Range of values is 0 to 4
  4842                           ; switch strategies available:
  4843                           ; Name         Instructions Cycles
  4844                           ; direct_byte           16     6 (fixed)
  4845                           ; simple_byte           16     9 (average)
  4846                           ; jumptable            260     6 (fixed)
  4847                           ;	Chosen strategy is direct_byte
  4848  0450  0084               	movwf	4
  4849  0451  3005               	movlw	5
  4850  0452  0204               	subwf	4,w
  4851  0453  1803               	skipnc
  4852  0454  0008               	return
  4853  0455  3187               	movlp	high S4458
  4854  0456  3504               	lslf	4,w
  4855  0457  3EF6               	addlw	low S4458
  4856  0458  0082               	movwf	2
  4857  0459  0008               	return
  4858  045A                     __end_of_power_supply_set:	
  4859                           
  4860                           	psect	swtext1
  4861  1400                     __pswtext1:	
  4862  1400                     S4456:	
  4863  1400  3180  28D0         	ljmp	l3306
  4864  1402  3180  28D6         	ljmp	l3312
  4865  1404  3180  28E6         	ljmp	l3324
  4866  1406  3180  28F2         	ljmp	l3336
  4867  1408  3180  28FE         	ljmp	l3348
  4868  140A  3181  290A         	ljmp	l3360
  4869  140C  3181  2916         	ljmp	l3372
  4870  140E  3181  293E         	ljmp	l3384
  4871  1410  3181  2948         	ljmp	l3390
  4872                           
  4873                           	psect	swtext2
  4874  07F6                     __pswtext2:	
  4875  07F6                     S4458:	
  4876  07F6  3184  2C2D         	ljmp	l814
  4877  07F8  3184  2C35         	ljmp	l816
  4878  07FA  3184  2C3D         	ljmp	l817
  4879  07FC  3184  2C3D         	ljmp	l817
  4880  07FE  3184  2C45         	ljmp	l819
  4881                           
  4882                           	psect	text20
  4883  1420                     __ptext20:	
  4884 ;; *************** function _init_uart2 *****************
  4885 ;; Defined at:
  4886 ;;		line 3309 in file "newmain1.c"
  4887 ;; Parameters:    Size  Location     Type
  4888 ;;		None
  4889 ;; Auto vars:     Size  Location     Type
  4890 ;;		None
  4891 ;; Return value:  Size  Location     Type
  4892 ;;		None               void
  4893 ;; Registers used:
  4894 ;;		wreg, status,2
  4895 ;; Tracked objects:
  4896 ;;		On entry : 0/4
  4897 ;;		On exit  : 1F/9
  4898 ;;		Unchanged: 0/0
  4899 ;; Data sizes:     COMMON   BANK0   BANK1   BANK2   BANK3   BANK4   BANK5   BANK6   BANK7   BANK8   BANK9  BANK10  BANK1
      +1  BANK12  BANK13  BANK14  BANK15  BANK16  BANK17  BANK18
  4900 ;;      Params:         0       0       0       0       0       0       0       0       0       0       0       0       
      +0       0       0       0       0       0       0       0
  4901 ;;      Locals:         0       0       0       0       0       0       0       0       0       0       0       0       
      +0       0       0       0       0       0       0       0
  4902 ;;      Temps:          0       0       0       0       0       0       0       0       0       0       0       0       
      +0       0       0       0       0       0       0       0
  4903 ;;      Totals:         0       0       0       0       0       0       0       0       0       0       0       0       
      +0       0       0       0       0       0       0       0
  4904 ;;Total ram usage:        0 bytes
  4905 ;; Hardware stack levels used:    1
  4906 ;; Hardware stack levels required when called:    1
  4907 ;; This function calls:
  4908 ;;		Nothing
  4909 ;; This function is called by:
  4910 ;;		_main
  4911 ;; This function uses a non-reentrant model
  4912 ;;
  4913                           
  4914                           
  4915                           ;psect for function _init_uart2
  4916  1420                     _init_uart2:	
  4917                           
  4918                           ;newmain1.c: 3311: TX2STA = 0b00100000;
  4919                           
  4920                           ;incstack = 0
  4921                           ; Regs used in _init_uart2: [wreg+status,2]
  4922  1420  3020               	movlw	32
  4923  1421  0029               	movlb	9	; select bank9
  4924  1422  0096               	movwf	22	;volatile
  4925                           
  4926                           ;newmain1.c: 3312: RC2STA = 0b10010000;
  4927  1423  3090               	movlw	144
  4928  1424  0095               	movwf	21	;volatile
  4929                           
  4930                           ;newmain1.c: 3313: BAUD2CON = 0b00001000;
  4931  1425  3008               	movlw	8
  4932  1426  0097               	movwf	23	;volatile
  4933                           
  4934                           ;newmain1.c: 3314: SP2BRGH = 0x00;
  4935  1427  0194               	clrf	20	;volatile
  4936                           
  4937                           ;newmain1.c: 3315: SP2BRGL = 103;
  4938  1428  3067               	movlw	103
  4939  1429  0093               	movwf	19	;volatile
  4940  142A  0008               	return
  4941  142B                     __end_of_init_uart2:	
  4942                           
  4943                           	psect	text21
  4944  142B                     __ptext21:	
  4945 ;; *************** function _init_uart1 *****************
  4946 ;; Defined at:
  4947 ;;		line 3299 in file "newmain1.c"
  4948 ;; Parameters:    Size  Location     Type
  4949 ;;		None
  4950 ;; Auto vars:     Size  Location     Type
  4951 ;;		None
  4952 ;; Return value:  Size  Location     Type
  4953 ;;		None               void
  4954 ;; Registers used:
  4955 ;;		wreg, status,2
  4956 ;; Tracked objects:
  4957 ;;		On entry : 1F/9
  4958 ;;		On exit  : 1F/3
  4959 ;;		Unchanged: 0/0
  4960 ;; Data sizes:     COMMON   BANK0   BANK1   BANK2   BANK3   BANK4   BANK5   BANK6   BANK7   BANK8   BANK9  BANK10  BANK1
      +1  BANK12  BANK13  BANK14  BANK15  BANK16  BANK17  BANK18
  4961 ;;      Params:         0       0       0       0       0       0       0       0       0       0       0       0       
      +0       0       0       0       0       0       0       0
  4962 ;;      Locals:         0       0       0       0       0       0       0       0       0       0       0       0       
      +0       0       0       0       0       0       0       0
  4963 ;;      Temps:          0       0       0       0       0       0       0       0       0       0       0       0       
      +0       0       0       0       0       0       0       0
  4964 ;;      Totals:         0       0       0       0       0       0       0       0       0       0       0       0       
      +0       0       0       0       0       0       0       0
  4965 ;;Total ram usage:        0 bytes
  4966 ;; Hardware stack levels used:    1
  4967 ;; Hardware stack levels required when called:    1
  4968 ;; This function calls:
  4969 ;;		Nothing
  4970 ;; This function is called by:
  4971 ;;		_main
  4972 ;; This function uses a non-reentrant model
  4973 ;;
  4974                           
  4975                           
  4976                           ;psect for function _init_uart1
  4977  142B                     _init_uart1:	
  4978                           
  4979                           ;newmain1.c: 3301: TX1STA = 0b00100000;
  4980                           
  4981                           ;incstack = 0
  4982                           ; Regs used in _init_uart1: [wreg+status,2]
  4983  142B  3020               	movlw	32
  4984  142C  0023               	movlb	3	; select bank3
  4985  142D  009E               	movwf	30	;volatile
  4986                           
  4987                           ;newmain1.c: 3302: RC1STA = 0b10010000;
  4988  142E  3090               	movlw	144
  4989  142F  009D               	movwf	29	;volatile
  4990                           
  4991                           ;newmain1.c: 3303: BAUD1CON = 0b00001000;
  4992  1430  3008               	movlw	8
  4993  1431  009F               	movwf	31	;volatile
  4994                           
  4995                           ;newmain1.c: 3304: SP1BRGH = 0x00;
  4996  1432  019C               	clrf	28	;volatile
  4997                           
  4998                           ;newmain1.c: 3305: SP1BRGL = 103;
  4999  1433  3067               	movlw	103
  5000  1434  009B               	movwf	27	;volatile
  5001  1435  0008               	return
  5002  1436                     __end_of_init_uart1:	
  5003                           
  5004                           	psect	text26
  5005  081F                     __ptext26:	
  5006 ;; *************** function _init_i2c *****************
  5007 ;; Defined at:
  5008 ;;		line 3507 in file "newmain1.c"
  5009 ;; Parameters:    Size  Location     Type
  5010 ;;		None
  5011 ;; Auto vars:     Size  Location     Type
  5012 ;;		None
  5013 ;; Return value:  Size  Location     Type
  5014 ;;		None               void
  5015 ;; Registers used:
  5016 ;;		wreg
  5017 ;; Tracked objects:
  5018 ;;		On entry : 1F/0
  5019 ;;		On exit  : 1F/4
  5020 ;;		Unchanged: 0/0
  5021 ;; Data sizes:     COMMON   BANK0   BANK1   BANK2   BANK3   BANK4   BANK5   BANK6   BANK7   BANK8   BANK9  BANK10  BANK1
      +1  BANK12  BANK13  BANK14  BANK15  BANK16  BANK17  BANK18
  5022 ;;      Params:         0       0       0       0       0       0       0       0       0       0       0       0       
      +0       0       0       0       0       0       0       0
  5023 ;;      Locals:         0       0       0       0       0       0       0       0       0       0       0       0       
      +0       0       0       0       0       0       0       0
  5024 ;;      Temps:          3       0       0       0       0       0       0       0       0       0       0       0       
      +0       0       0       0       0       0       0       0
  5025 ;;      Totals:         3       0       0       0       0       0       0       0       0       0       0       0       
      +0       0       0       0       0       0       0       0
  5026 ;;Total ram usage:        3 bytes
  5027 ;; Hardware stack levels used:    1
  5028 ;; Hardware stack levels required when called:    1
  5029 ;; This function calls:
  5030 ;;		Nothing
  5031 ;; This function is called by:
  5032 ;;		_main
  5033 ;; This function uses a non-reentrant model
  5034 ;;
  5035                           
  5036                           
  5037                           ;psect for function _init_i2c
  5038  081F                     _init_i2c:	
  5039                           
  5040                           ;newmain1.c: 3508: RA5 = 1;
  5041                           
  5042                           ;incstack = 0
  5043                           ; Regs used in _init_i2c: [wreg]
  5044  081F  168C               	bsf	12,5	;volatile
  5045                           
  5046                           ;newmain1.c: 3509: _delay((unsigned long)((200)*(16000000/4000.0)));
  5047  0820  3005               	movlw	5
  5048  0821  00F2               	movwf	??_init_i2c+2
  5049  0822  300F               	movlw	15
  5050  0823  00F1               	movwf	??_init_i2c+1
  5051  0824  30F4               	movlw	244
  5052  0825  00F0               	movwf	??_init_i2c
  5053  0826                     u4167:	
  5054  0826  0BF0               	decfsz	??_init_i2c,f
  5055  0827  2826               	goto	u4167
  5056  0828  0BF1               	decfsz	??_init_i2c+1,f
  5057  0829  2826               	goto	u4167
  5058  082A  0BF2               	decfsz	??_init_i2c+2,f
  5059  082B  2826               	goto	u4167
  5060                           
  5061                           ;newmain1.c: 3510: TRISC3 = 1;
  5062  082C  0021               	movlb	1	; select bank1
  5063  082D  158E               	bsf	14,3	;volatile
  5064                           
  5065                           ;newmain1.c: 3511: TRISC4 = 1;
  5066  082E  160E               	bsf	14,4	;volatile
  5067                           
  5068                           ;newmain1.c: 3512: SSP1STAT |= 0x80;
  5069  082F  0024               	movlb	4	; select bank4
  5070  0830  1794               	bsf	20,7	;volatile
  5071                           
  5072                           ;newmain1.c: 3513: SSP1CON1 = 0x28;
  5073  0831  3028               	movlw	40
  5074  0832  0095               	movwf	21	;volatile
  5075                           
  5076                           ;newmain1.c: 3514: SSP1ADD = 0x14;
  5077  0833  3014               	movlw	20
  5078  0834  0092               	movwf	18	;volatile
  5079  0835  0008               	return
  5080  0836                     __end_of_init_i2c:	
  5081                           
  5082                           	psect	text27
  5083  080A                     __ptext27:	
  5084 ;; *************** function _init_current_sink *****************
  5085 ;; Defined at:
  5086 ;;		line 3582 in file "newmain1.c"
  5087 ;; Parameters:    Size  Location     Type
  5088 ;;		None
  5089 ;; Auto vars:     Size  Location     Type
  5090 ;;		None
  5091 ;; Return value:  Size  Location     Type
  5092 ;;		None               void
  5093 ;; Registers used:
  5094 ;;		wreg, status,2
  5095 ;; Tracked objects:
  5096 ;;		On entry : 1F/1
  5097 ;;		On exit  : 1F/C
  5098 ;;		Unchanged: 0/0
  5099 ;; Data sizes:     COMMON   BANK0   BANK1   BANK2   BANK3   BANK4   BANK5   BANK6   BANK7   BANK8   BANK9  BANK10  BANK1
      +1  BANK12  BANK13  BANK14  BANK15  BANK16  BANK17  BANK18
  5100 ;;      Params:         0       0       0       0       0       0       0       0       0       0       0       0       
      +0       0       0       0       0       0       0       0
  5101 ;;      Locals:         0       0       0       0       0       0       0       0       0       0       0       0       
      +0       0       0       0       0       0       0       0
  5102 ;;      Temps:          0       0       0       0       0       0       0       0       0       0       0       0       
      +0       0       0       0       0       0       0       0
  5103 ;;      Totals:         0       0       0       0       0       0       0       0       0       0       0       0       
      +0       0       0       0       0       0       0       0
  5104 ;;Total ram usage:        0 bytes
  5105 ;; Hardware stack levels used:    1
  5106 ;; Hardware stack levels required when called:    1
  5107 ;; This function calls:
  5108 ;;		Nothing
  5109 ;; This function is called by:
  5110 ;;		_main
  5111 ;; This function uses a non-reentrant model
  5112 ;;
  5113                           
  5114                           
  5115                           ;psect for function _init_current_sink
  5116  080A                     _init_current_sink:	
  5117                           
  5118                           ;newmain1.c: 3584: T2CON = 0b00000110;
  5119                           
  5120                           ;incstack = 0
  5121                           ; Regs used in _init_current_sink: [wreg+status,2]
  5122  080A  3006               	movlw	6
  5123  080B  0020               	movlb	0	; select bank0
  5124  080C  009C               	movwf	28	;volatile
  5125                           
  5126                           ;newmain1.c: 3585: PR2 = 0xFA;
  5127  080D  30FA               	movlw	250
  5128  080E  009B               	movwf	27	;volatile
  5129                           
  5130                           ;newmain1.c: 3586: PIE1bits.TMR2IE = 1;
  5131  080F  0021               	movlb	1	; select bank1
  5132  0810  1491               	bsf	17,1	;volatile
  5133                           
  5134                           ;newmain1.c: 3588: T8CON = 0b00000100;
  5135  0811  3004               	movlw	4
  5136  0812  002B               	movlb	11	; select bank11
  5137  0813  0097               	movwf	23	;volatile
  5138                           
  5139                           ;newmain1.c: 3589: PR8 = 0xFF;
  5140  0814  30FF               	movlw	255
  5141  0815  0096               	movwf	22	;volatile
  5142                           
  5143                           ;newmain1.c: 3590: CCP9CON = 0b00001100;
  5144  0816  300C               	movlw	12
  5145  0817  002C               	movlb	12	; select bank12
  5146  0818  009C               	movwf	28	;volatile
  5147                           
  5148                           ;newmain1.c: 3591: CCPTMRS2 = 0b00000001;
  5149  0819  3001               	movlw	1
  5150  081A  0025               	movlb	5	; select bank5
  5151  081B  009F               	movwf	31	;volatile
  5152                           
  5153                           ;newmain1.c: 3592: CCPR9L = 0x00;
  5154  081C  002C               	movlb	12	; select bank12
  5155  081D  019A               	clrf	26	;volatile
  5156  081E  0008               	return
  5157  081F                     __end_of_init_current_sink:	
  5158                           
  5159                           	psect	text28
  5160  1436                     __ptext28:	
  5161 ;; *************** function _init_ADC *****************
  5162 ;; Defined at:
  5163 ;;		line 3517 in file "newmain1.c"
  5164 ;; Parameters:    Size  Location     Type
  5165 ;;		None
  5166 ;; Auto vars:     Size  Location     Type
  5167 ;;		None
  5168 ;; Return value:  Size  Location     Type
  5169 ;;		None               void
  5170 ;; Registers used:
  5171 ;;		wreg, status,2
  5172 ;; Tracked objects:
  5173 ;;		On entry : 0/8
  5174 ;;		On exit  : 1F/1
  5175 ;;		Unchanged: 0/0
  5176 ;; Data sizes:     COMMON   BANK0   BANK1   BANK2   BANK3   BANK4   BANK5   BANK6   BANK7   BANK8   BANK9  BANK10  BANK1
      +1  BANK12  BANK13  BANK14  BANK15  BANK16  BANK17  BANK18
  5177 ;;      Params:         0       0       0       0       0       0       0       0       0       0       0       0       
      +0       0       0       0       0       0       0       0
  5178 ;;      Locals:         0       0       0       0       0       0       0       0       0       0       0       0       
      +0       0       0       0       0       0       0       0
  5179 ;;      Temps:          0       0       0       0       0       0       0       0       0       0       0       0       
      +0       0       0       0       0       0       0       0
  5180 ;;      Totals:         0       0       0       0       0       0       0       0       0       0       0       0       
      +0       0       0       0       0       0       0       0
  5181 ;;Total ram usage:        0 bytes
  5182 ;; Hardware stack levels used:    1
  5183 ;; Hardware stack levels required when called:    1
  5184 ;; This function calls:
  5185 ;;		Nothing
  5186 ;; This function is called by:
  5187 ;;		_main
  5188 ;; This function uses a non-reentrant model
  5189 ;;
  5190                           
  5191                           
  5192                           ;psect for function _init_ADC
  5193  1436                     _init_ADC:	
  5194                           
  5195                           ;newmain1.c: 3518: FVRCON = 0b10000011;
  5196                           
  5197                           ;incstack = 0
  5198                           ; Regs used in _init_ADC: [wreg+status,2]
  5199  1436  3083               	movlw	131
  5200  1437  0022               	movlb	2	; select bank2
  5201  1438  0097               	movwf	23	;volatile
  5202                           
  5203                           ;newmain1.c: 3519: ADCON0 = 0b00000001;
  5204  1439  3001               	movlw	1
  5205  143A  0021               	movlb	1	; select bank1
  5206  143B  009D               	movwf	29	;volatile
  5207                           
  5208                           ;newmain1.c: 3520: ADCON1 = 0b10100011;
  5209  143C  30A3               	movlw	163
  5210  143D  009E               	movwf	30	;volatile
  5211                           
  5212                           ;newmain1.c: 3521: ADRESH = 0b00000000;
  5213  143E  019C               	clrf	28	;volatile
  5214                           
  5215                           ;newmain1.c: 3522: ADRESL = 0b00000000;
  5216  143F  019B               	clrf	27	;volatile
  5217  1440  0008               	return
  5218  1441                     __end_of_init_ADC:	
  5219                           
  5220                           	psect	text29
  5221  045A                     __ptext29:	
  5222 ;; *************** function _get_current *****************
  5223 ;; Defined at:
  5224 ;;		line 3648 in file "newmain1.c"
  5225 ;; Parameters:    Size  Location     Type
  5226 ;;		None
  5227 ;; Auto vars:     Size  Location     Type
  5228 ;;  temp            2   27[BANK0 ] unsigned int 
  5229 ;; Return value:  Size  Location     Type
  5230 ;;                  2   25[BANK0 ] unsigned int 
  5231 ;; Registers used:
  5232 ;;		wreg, status,2, status,0, pclath, cstack
  5233 ;; Tracked objects:
  5234 ;;		On entry : 1B/4
  5235 ;;		On exit  : 1F/0
  5236 ;;		Unchanged: 0/0
  5237 ;; Data sizes:     COMMON   BANK0   BANK1   BANK2   BANK3   BANK4   BANK5   BANK6   BANK7   BANK8   BANK9  BANK10  BANK1
      +1  BANK12  BANK13  BANK14  BANK15  BANK16  BANK17  BANK18
  5238 ;;      Params:         0       2       0       0       0       0       0       0       0       0       0       0       
      +0       0       0       0       0       0       0       0
  5239 ;;      Locals:         0       2       0       0       0       0       0       0       0       0       0       0       
      +0       0       0       0       0       0       0       0
  5240 ;;      Temps:          0       0       0       0       0       0       0       0       0       0       0       0       
      +0       0       0       0       0       0       0       0
  5241 ;;      Totals:         0       4       0       0       0       0       0       0       0       0       0       0       
      +0       0       0       0       0       0       0       0
  5242 ;;Total ram usage:        4 bytes
  5243 ;; Hardware stack levels used:    1
  5244 ;; Hardware stack levels required when called:    3
  5245 ;; This function calls:
  5246 ;;		_ADC_get_val
  5247 ;;		___ftmul
  5248 ;;		___fttol
  5249 ;;		___lwtoft
  5250 ;; This function is called by:
  5251 ;;		_main
  5252 ;; This function uses a non-reentrant model
  5253 ;;
  5254                           
  5255                           
  5256                           ;psect for function _get_current
  5257  045A                     _get_current:	
  5258                           
  5259                           ;newmain1.c: 3650: unsigned int temp;
  5260                           ;newmain1.c: 3651: temp = ADC_get_val(0b01010001);
  5261                           
  5262                           ;incstack = 0
  5263                           ; Regs used in _get_current: [wreg+status,2+status,0+pclath+cstack]
  5264  045A  3051               	movlw	81
  5265  045B  2486  3184         	fcall	_ADC_get_val
  5266  045D  0871               	movf	?_ADC_get_val+1,w
  5267  045E  0020               	movlb	0	; select bank0
  5268  045F  00E4               	movwf	get_current@temp+1
  5269  0460  0870               	movf	?_ADC_get_val,w
  5270  0461  00E3               	movwf	get_current@temp
  5271                           
  5272                           ;newmain1.c: 3653: temp = temp * 1.28;
  5273  0462  0864               	movf	get_current@temp+1,w
  5274  0463  00F9               	movwf	___lwtoft@c+1
  5275  0464  0863               	movf	get_current@temp,w
  5276  0465  00F8               	movwf	___lwtoft@c
  5277  0466  250D  3184         	fcall	___lwtoft
  5278  0468  0878               	movf	?___lwtoft,w
  5279  0469  00CB               	movwf	___ftmul@f2
  5280  046A  0879               	movf	?___lwtoft+1,w
  5281  046B  00CC               	movwf	___ftmul@f2+1
  5282  046C  087A               	movf	?___lwtoft+2,w
  5283  046D  00CD               	movwf	___ftmul@f2+2
  5284  046E  30D7               	movlw	215
  5285  046F  00C8               	movwf	___ftmul@f1
  5286  0470  30A3               	movlw	163
  5287  0471  00C9               	movwf	___ftmul@f1+1
  5288  0472  303F               	movlw	63
  5289  0473  00CA               	movwf	___ftmul@f1+2
  5290  0474  24A3  3184         	fcall	___ftmul
  5291  0476  0848               	movf	?___ftmul,w
  5292  0477  00D4               	movwf	___fttol@f1
  5293  0478  0849               	movf	?___ftmul+1,w
  5294  0479  00D5               	movwf	___fttol@f1+1
  5295  047A  084A               	movf	?___ftmul+2,w
  5296  047B  00D6               	movwf	___fttol@f1+2
  5297  047C  255B               	fcall	___fttol
  5298  047D  0855               	movf	?___fttol+1,w
  5299  047E  00E4               	movwf	get_current@temp+1
  5300  047F  0854               	movf	?___fttol,w
  5301  0480  00E3               	movwf	get_current@temp
  5302                           
  5303                           ;newmain1.c: 3659: return temp;
  5304  0481  0864               	movf	get_current@temp+1,w
  5305  0482  00E2               	movwf	?_get_current+1
  5306  0483  0863               	movf	get_current@temp,w
  5307  0484  00E1               	movwf	?_get_current
  5308  0485  0008               	return
  5309  0486                     __end_of_get_current:	
  5310  0486                     __ptext34:	
  5311 ;; *************** function _ADC_get_val *****************
  5312 ;; Defined at:
  5313 ;;		line 3543 in file "newmain1.c"
  5314 ;; Parameters:    Size  Location     Type
  5315 ;;  channel         1    wreg     unsigned char 
  5316 ;; Auto vars:     Size  Location     Type
  5317 ;;  channel         1    4[COMMON] unsigned char 
  5318 ;;  return_val      2    5[COMMON] unsigned int 
  5319 ;; Return value:  Size  Location     Type
  5320 ;;                  2    0[COMMON] unsigned int 
  5321 ;; Registers used:
  5322 ;;		wreg
  5323 ;; Tracked objects:
  5324 ;;		On entry : 0/4
  5325 ;;		On exit  : 1F/1
  5326 ;;		Unchanged: 0/0
  5327 ;; Data sizes:     COMMON   BANK0   BANK1   BANK2   BANK3   BANK4   BANK5   BANK6   BANK7   BANK8   BANK9  BANK10  BANK1
      +1  BANK12  BANK13  BANK14  BANK15  BANK16  BANK17  BANK18
  5328 ;;      Params:         2       0       0       0       0       0       0       0       0       0       0       0       
      +0       0       0       0       0       0       0       0
  5329 ;;      Locals:         3       0       0       0       0       0       0       0       0       0       0       0       
      +0       0       0       0       0       0       0       0
  5330 ;;      Temps:          2       0       0       0       0       0       0       0       0       0       0       0       
      +0       0       0       0       0       0       0       0
  5331 ;;      Totals:         7       0       0       0       0       0       0       0       0       0       0       0       
      +0       0       0       0       0       0       0       0
  5332 ;;Total ram usage:        7 bytes
  5333 ;; Hardware stack levels used:    1
  5334 ;; Hardware stack levels required when called:    1
  5335 ;; This function calls:
  5336 ;;		Nothing
  5337 ;; This function is called by:
  5338 ;;		_main
  5339 ;;		_get_current
  5340 ;; This function uses a non-reentrant model
  5341 ;;
  5342                           
  5343                           
  5344                           ;psect for function _ADC_get_val
  5345  0486                     _ADC_get_val:	
  5346                           
  5347                           ;incstack = 0
  5348                           ; Regs used in _ADC_get_val: [wreg]
  5349                           ;ADC_get_val@channel stored from wreg
  5350  0486  00F4               	movwf	ADC_get_val@channel
  5351                           
  5352                           ;newmain1.c: 3545: unsigned int return_val;
  5353                           ;newmain1.c: 3546: GIE = 0;
  5354  0487  138B               	bcf	11,7	;volatile
  5355                           
  5356                           ;newmain1.c: 3547: ADCON0 = channel;
  5357  0488  0874               	movf	ADC_get_val@channel,w
  5358  0489  0021               	movlb	1	; select bank1
  5359  048A  009D               	movwf	29	;volatile
  5360                           
  5361                           ;newmain1.c: 3548: _delay((unsigned long)((1)*(16000000/4000.0)));
  5362  048B  3006               	movlw	6
  5363  048C  00F3               	movwf	??_ADC_get_val+1
  5364  048D  3030               	movlw	48
  5365  048E  00F2               	movwf	??_ADC_get_val
  5366  048F                     u4177:	
  5367  048F  0BF2               	decfsz	??_ADC_get_val,f
  5368  0490  2C8F               	goto	u4177
  5369  0491  0BF3               	decfsz	??_ADC_get_val+1,f
  5370  0492  2C8F               	goto	u4177
  5371  0493  0000               	nop
  5372                           
  5373                           ;newmain1.c: 3550: ADCON0bits.GO_nDONE = 1;
  5374  0494  0021               	movlb	1	; select bank1
  5375  0495  149D               	bsf	29,1	;volatile
  5376  0496                     l793:	
  5377                           ;newmain1.c: 3552: while (ADCON0bits.GO_nDONE == 1);
  5378                           
  5379  0496  189D               	btfsc	29,1	;volatile
  5380  0497  2C96               	goto	l793
  5381                           
  5382                           ;newmain1.c: 3553: {}
  5383                           ;newmain1.c: 3555: return_val = ADRESH << 8 | ADRESL;
  5384  0498  081C               	movf	28,w	;volatile
  5385  0499  00F6               	movwf	ADC_get_val@return_val+1
  5386  049A  01F5               	clrf	ADC_get_val@return_val
  5387  049B  081B               	movf	27,w	;volatile
  5388  049C  04F5               	iorwf	ADC_get_val@return_val,f
  5389                           
  5390                           ;newmain1.c: 3556: GIE = 1;
  5391  049D  178B               	bsf	11,7	;volatile
  5392                           
  5393                           ;newmain1.c: 3557: return return_val;
  5394  049E  0876               	movf	ADC_get_val@return_val+1,w
  5395  049F  00F1               	movwf	?_ADC_get_val+1
  5396  04A0  0875               	movf	ADC_get_val@return_val,w
  5397  04A1  00F0               	movwf	?_ADC_get_val
  5398  04A2  0008               	return
  5399  04A3                     __end_of_ADC_get_val:	
  5400  04A3                     __ptext32:	
  5401 ;; *************** function ___ftmul *****************
  5402 ;; Defined at:
  5403 ;;		line 62 in file "C:\Program Files (x86)\Microchip\xc8\v1.35\sources\common\ftmul.c"
  5404 ;; Parameters:    Size  Location     Type
  5405 ;;  f1              3    0[BANK0 ] float 
  5406 ;;  f2              3    3[BANK0 ] float 
  5407 ;; Auto vars:     Size  Location     Type
  5408 ;;  f3_as_produc    3    7[BANK0 ] unsigned um
  5409 ;;  sign            1   11[BANK0 ] unsigned char 
  5410 ;;  cntr            1   10[BANK0 ] unsigned char 
  5411 ;;  exp             1    6[BANK0 ] unsigned char 
  5412 ;; Return value:  Size  Location     Type
  5413 ;;                  3    0[BANK0 ] float 
  5414 ;; Registers used:
  5415 ;;		wreg, status,2, status,0, pclath, cstack
  5416 ;; Tracked objects:
  5417 ;;		On entry : 1F/0
  5418 ;;		On exit  : 1F/0
  5419 ;;		Unchanged: 0/0
  5420 ;; Data sizes:     COMMON   BANK0   BANK1   BANK2   BANK3   BANK4   BANK5   BANK6   BANK7   BANK8   BANK9  BANK10  BANK1
      +1  BANK12  BANK13  BANK14  BANK15  BANK16  BANK17  BANK18
  5421 ;;      Params:         0       6       0       0       0       0       0       0       0       0       0       0       
      +0       0       0       0       0       0       0       0
  5422 ;;      Locals:         0       6       0       0       0       0       0       0       0       0       0       0       
      +0       0       0       0       0       0       0       0
  5423 ;;      Temps:          3       0       0       0       0       0       0       0       0       0       0       0       
      +0       0       0       0       0       0       0       0
  5424 ;;      Totals:         3      12       0       0       0       0       0       0       0       0       0       0       
      +0       0       0       0       0       0       0       0
  5425 ;;Total ram usage:       15 bytes
  5426 ;; Hardware stack levels used:    1
  5427 ;; Hardware stack levels required when called:    2
  5428 ;; This function calls:
  5429 ;;		___ftpack
  5430 ;; This function is called by:
  5431 ;;		_get_current
  5432 ;; This function uses a non-reentrant model
  5433 ;;
  5434                           
  5435                           
  5436                           ;psect for function ___ftmul
  5437  04A3                     ___ftmul:	
  5438                           
  5439                           ;incstack = 0
  5440                           ; Regs used in ___ftmul: [wreg+status,2+status,0+pclath+cstack]
  5441  04A3  0848               	movf	___ftmul@f1,w
  5442  04A4  00FB               	movwf	??___ftmul
  5443  04A5  0849               	movf	___ftmul@f1+1,w
  5444  04A6  00FC               	movwf	??___ftmul+1
  5445  04A7  084A               	movf	___ftmul@f1+2,w
  5446  04A8  00FD               	movwf	??___ftmul+2
  5447  04A9  1003               	clrc
  5448  04AA  0D7C               	rlf	??___ftmul+1,w
  5449  04AB  0D7D               	rlf	??___ftmul+2,w
  5450  04AC  00CE               	movwf	___ftmul@exp
  5451  04AD  084E               	movf	___ftmul@exp,w
  5452  04AE  1D03               	btfss	3,2
  5453  04AF  2CB4               	goto	l3190
  5454  04B0  01C8               	clrf	?___ftmul
  5455  04B1  01C9               	clrf	?___ftmul+1
  5456  04B2  01CA               	clrf	?___ftmul+2
  5457  04B3  0008               	return
  5458  04B4                     l3190:	
  5459  04B4  084B               	movf	___ftmul@f2,w
  5460  04B5  00FB               	movwf	??___ftmul
  5461  04B6  084C               	movf	___ftmul@f2+1,w
  5462  04B7  00FC               	movwf	??___ftmul+1
  5463  04B8  084D               	movf	___ftmul@f2+2,w
  5464  04B9  00FD               	movwf	??___ftmul+2
  5465  04BA  1003               	clrc
  5466  04BB  0D7C               	rlf	??___ftmul+1,w
  5467  04BC  0D7D               	rlf	??___ftmul+2,w
  5468  04BD  00D3               	movwf	___ftmul@sign
  5469  04BE  0853               	movf	___ftmul@sign,w
  5470  04BF  1D03               	btfss	3,2
  5471  04C0  2CC5               	goto	l3194
  5472  04C1  01C8               	clrf	?___ftmul
  5473  04C2  01C9               	clrf	?___ftmul+1
  5474  04C3  01CA               	clrf	?___ftmul+2
  5475  04C4  0008               	return
  5476  04C5                     l3194:	
  5477  04C5  0853               	movf	___ftmul@sign,w
  5478  04C6  3E7B               	addlw	123
  5479  04C7  07CE               	addwf	___ftmul@exp,f
  5480  04C8  084A               	movf	___ftmul@f1+2,w
  5481  04C9  00D3               	movwf	___ftmul@sign
  5482  04CA  084D               	movf	___ftmul@f2+2,w
  5483  04CB  06D3               	xorwf	___ftmul@sign,f
  5484  04CC  3080               	movlw	128
  5485  04CD  05D3               	andwf	___ftmul@sign,f
  5486  04CE  30FF               	movlw	255
  5487  04CF  17C9               	bsf	___ftmul@f1+1,7
  5488  04D0  17CC               	bsf	___ftmul@f2+1,7
  5489  04D1  05CB               	andwf	___ftmul@f2,f
  5490  04D2  05CC               	andwf	___ftmul@f2+1,f
  5491  04D3  3007               	movlw	7
  5492  04D4  01CD               	clrf	___ftmul@f2+2
  5493  04D5  01CF               	clrf	___ftmul@f3_as_product
  5494  04D6  01D0               	clrf	___ftmul@f3_as_product+1
  5495  04D7  01D1               	clrf	___ftmul@f3_as_product+2
  5496  04D8  00D2               	movwf	___ftmul@cntr
  5497  04D9                     l3212:	
  5498  04D9  1C48               	btfss	___ftmul@f1,0
  5499  04DA  2CE1               	goto	l3216
  5500  04DB  084B               	movf	___ftmul@f2,w
  5501  04DC  07CF               	addwf	___ftmul@f3_as_product,f
  5502  04DD  084C               	movf	___ftmul@f2+1,w
  5503  04DE  3DD0               	addwfc	___ftmul@f3_as_product+1,f
  5504  04DF  084D               	movf	___ftmul@f2+2,w
  5505  04E0  3DD1               	addwfc	___ftmul@f3_as_product+2,f
  5506  04E1                     l3216:	
  5507  04E1  36CA               	lsrf	___ftmul@f1+2,f
  5508  04E2  0CC9               	rrf	___ftmul@f1+1,f
  5509  04E3  0CC8               	rrf	___ftmul@f1,f
  5510  04E4  35CB               	lslf	___ftmul@f2,f
  5511  04E5  0DCC               	rlf	___ftmul@f2+1,f
  5512  04E6  0DCD               	rlf	___ftmul@f2+2,f
  5513  04E7  0BD2               	decfsz	___ftmul@cntr,f
  5514  04E8  2CD9               	goto	l3212
  5515  04E9  3009               	movlw	9
  5516  04EA  00D2               	movwf	___ftmul@cntr
  5517  04EB                     l3224:	
  5518  04EB  1C48               	btfss	___ftmul@f1,0
  5519  04EC  2CF3               	goto	l3228
  5520  04ED  084B               	movf	___ftmul@f2,w
  5521  04EE  07CF               	addwf	___ftmul@f3_as_product,f
  5522  04EF  084C               	movf	___ftmul@f2+1,w
  5523  04F0  3DD0               	addwfc	___ftmul@f3_as_product+1,f
  5524  04F1  084D               	movf	___ftmul@f2+2,w
  5525  04F2  3DD1               	addwfc	___ftmul@f3_as_product+2,f
  5526  04F3                     l3228:	
  5527  04F3  36CA               	lsrf	___ftmul@f1+2,f
  5528  04F4  0CC9               	rrf	___ftmul@f1+1,f
  5529  04F5  0CC8               	rrf	___ftmul@f1,f
  5530  04F6  36D1               	lsrf	___ftmul@f3_as_product+2,f
  5531  04F7  0CD0               	rrf	___ftmul@f3_as_product+1,f
  5532  04F8  0CCF               	rrf	___ftmul@f3_as_product,f
  5533  04F9  0BD2               	decfsz	___ftmul@cntr,f
  5534  04FA  2CEB               	goto	l3224
  5535  04FB  084F               	movf	___ftmul@f3_as_product,w
  5536  04FC  00F0               	movwf	___ftpack@arg
  5537  04FD  0850               	movf	___ftmul@f3_as_product+1,w
  5538  04FE  00F1               	movwf	___ftpack@arg+1
  5539  04FF  0851               	movf	___ftmul@f3_as_product+2,w
  5540  0500  00F2               	movwf	___ftpack@arg+2
  5541  0501  084E               	movf	___ftmul@exp,w
  5542  0502  00F3               	movwf	___ftpack@exp
  5543  0503  0853               	movf	___ftmul@sign,w
  5544  0504  00F4               	movwf	___ftpack@sign
  5545  0505  251D               	fcall	___ftpack
  5546  0506  0870               	movf	?___ftpack,w
  5547  0507  00C8               	movwf	?___ftmul
  5548  0508  0871               	movf	?___ftpack+1,w
  5549  0509  00C9               	movwf	?___ftmul+1
  5550  050A  0872               	movf	?___ftpack+2,w
  5551  050B  00CA               	movwf	?___ftmul+2
  5552  050C  0008               	return
  5553  050D                     __end_of___ftmul:	
  5554  050D                     __ptext30:	
  5555 ;; *************** function ___lwtoft *****************
  5556 ;; Defined at:
  5557 ;;		line 28 in file "C:\Program Files (x86)\Microchip\xc8\v1.35\sources\common\lwtoft.c"
  5558 ;; Parameters:    Size  Location     Type
  5559 ;;  c               2    8[COMMON] unsigned int 
  5560 ;; Auto vars:     Size  Location     Type
  5561 ;;		None
  5562 ;; Return value:  Size  Location     Type
  5563 ;;                  3    8[COMMON] float 
  5564 ;; Registers used:
  5565 ;;		wreg, status,2, status,0, pclath, cstack
  5566 ;; Tracked objects:
  5567 ;;		On entry : 1F/0
  5568 ;;		On exit  : 1F/0
  5569 ;;		Unchanged: 1F/0
  5570 ;; Data sizes:     COMMON   BANK0   BANK1   BANK2   BANK3   BANK4   BANK5   BANK6   BANK7   BANK8   BANK9  BANK10  BANK1
      +1  BANK12  BANK13  BANK14  BANK15  BANK16  BANK17  BANK18
  5571 ;;      Params:         3       0       0       0       0       0       0       0       0       0       0       0       
      +0       0       0       0       0       0       0       0
  5572 ;;      Locals:         0       0       0       0       0       0       0       0       0       0       0       0       
      +0       0       0       0       0       0       0       0
  5573 ;;      Temps:          0       0       0       0       0       0       0       0       0       0       0       0       
      +0       0       0       0       0       0       0       0
  5574 ;;      Totals:         3       0       0       0       0       0       0       0       0       0       0       0       
      +0       0       0       0       0       0       0       0
  5575 ;;Total ram usage:        3 bytes
  5576 ;; Hardware stack levels used:    1
  5577 ;; Hardware stack levels required when called:    2
  5578 ;; This function calls:
  5579 ;;		___ftpack
  5580 ;; This function is called by:
  5581 ;;		_get_current
  5582 ;; This function uses a non-reentrant model
  5583 ;;
  5584                           
  5585                           
  5586                           ;psect for function ___lwtoft
  5587  050D                     ___lwtoft:	
  5588                           
  5589                           ;incstack = 0
  5590                           ; Regs used in ___lwtoft: [wreg+status,2+status,0+pclath+cstack]
  5591  050D  0878               	movf	___lwtoft@c,w
  5592  050E  00F0               	movwf	___ftpack@arg
  5593  050F  0879               	movf	___lwtoft@c+1,w
  5594  0510  00F1               	movwf	___ftpack@arg+1
  5595  0511  308E               	movlw	142
  5596  0512  01F2               	clrf	___ftpack@arg+2
  5597  0513  00F3               	movwf	___ftpack@exp
  5598  0514  01F4               	clrf	___ftpack@sign
  5599  0515  251D               	fcall	___ftpack
  5600  0516  0870               	movf	?___ftpack,w
  5601  0517  00F8               	movwf	?___lwtoft
  5602  0518  0871               	movf	?___ftpack+1,w
  5603  0519  00F9               	movwf	?___lwtoft+1
  5604  051A  0872               	movf	?___ftpack+2,w
  5605  051B  00FA               	movwf	?___lwtoft+2
  5606  051C  0008               	return
  5607  051D                     __end_of___lwtoft:	
  5608  051D                     __ptext33:	
  5609 ;; *************** function ___ftpack *****************
  5610 ;; Defined at:
  5611 ;;		line 62 in file "C:\Program Files (x86)\Microchip\xc8\v1.35\sources\common\float.c"
  5612 ;; Parameters:    Size  Location     Type
  5613 ;;  arg             3    0[COMMON] unsigned um
  5614 ;;  exp             1    3[COMMON] unsigned char 
  5615 ;;  sign            1    4[COMMON] unsigned char 
  5616 ;; Auto vars:     Size  Location     Type
  5617 ;;		None
  5618 ;; Return value:  Size  Location     Type
  5619 ;;                  3    0[COMMON] float 
  5620 ;; Registers used:
  5621 ;;		wreg, status,2, status,0
  5622 ;; Tracked objects:
  5623 ;;		On entry : 1F/0
  5624 ;;		On exit  : 1F/0
  5625 ;;		Unchanged: 1F/0
  5626 ;; Data sizes:     COMMON   BANK0   BANK1   BANK2   BANK3   BANK4   BANK5   BANK6   BANK7   BANK8   BANK9  BANK10  BANK1
      +1  BANK12  BANK13  BANK14  BANK15  BANK16  BANK17  BANK18
  5627 ;;      Params:         5       0       0       0       0       0       0       0       0       0       0       0       
      +0       0       0       0       0       0       0       0
  5628 ;;      Locals:         0       0       0       0       0       0       0       0       0       0       0       0       
      +0       0       0       0       0       0       0       0
  5629 ;;      Temps:          3       0       0       0       0       0       0       0       0       0       0       0       
      +0       0       0       0       0       0       0       0
  5630 ;;      Totals:         8       0       0       0       0       0       0       0       0       0       0       0       
      +0       0       0       0       0       0       0       0
  5631 ;;Total ram usage:        8 bytes
  5632 ;; Hardware stack levels used:    1
  5633 ;; Hardware stack levels required when called:    1
  5634 ;; This function calls:
  5635 ;;		Nothing
  5636 ;; This function is called by:
  5637 ;;		___ftmul
  5638 ;;		___lwtoft
  5639 ;; This function uses a non-reentrant model
  5640 ;;
  5641                           
  5642                           
  5643                           ;psect for function ___ftpack
  5644  051D                     ___ftpack:	
  5645                           
  5646                           ;incstack = 0
  5647                           ; Regs used in ___ftpack: [wreg+status,2+status,0]
  5648  051D  0873               	movf	___ftpack@exp,w
  5649  051E  1903               	btfsc	3,2
  5650  051F  2D25               	goto	l1044
  5651  0520  0872               	movf	___ftpack@arg+2,w
  5652  0521  0471               	iorwf	___ftpack@arg+1,w
  5653  0522  0470               	iorwf	___ftpack@arg,w
  5654  0523  1D03               	skipz
  5655  0524  2D2D               	goto	l3028
  5656  0525                     l1044:	
  5657  0525  01F0               	clrf	?___ftpack
  5658  0526  01F1               	clrf	?___ftpack+1
  5659  0527  01F2               	clrf	?___ftpack+2
  5660  0528  0008               	return
  5661  0529                     l3026:	
  5662  0529  0AF3               	incf	___ftpack@exp,f
  5663  052A  36F2               	lsrf	___ftpack@arg+2,f
  5664  052B  0CF1               	rrf	___ftpack@arg+1,f
  5665  052C  0CF0               	rrf	___ftpack@arg,f
  5666  052D                     l3028:	
  5667  052D  30FE               	movlw	254
  5668  052E  0572               	andwf	___ftpack@arg+2,w
  5669  052F  1903               	btfsc	3,2
  5670  0530  2D3B               	goto	l3032
  5671  0531  2D29               	goto	l3026
  5672  0532                     l3030:	
  5673  0532  0AF3               	incf	___ftpack@exp,f
  5674  0533  0AF0               	incf	___ftpack@arg,f
  5675  0534  1903               	skipnz
  5676  0535  0AF1               	incf	___ftpack@arg+1,f
  5677  0536  1903               	skipnz
  5678  0537  0AF2               	incf	___ftpack@arg+2,f
  5679  0538  36F2               	lsrf	___ftpack@arg+2,f
  5680  0539  0CF1               	rrf	___ftpack@arg+1,f
  5681  053A  0CF0               	rrf	___ftpack@arg,f
  5682  053B                     l3032:	
  5683  053B  30FF               	movlw	255
  5684  053C  0572               	andwf	___ftpack@arg+2,w
  5685  053D  1903               	btfsc	3,2
  5686  053E  2D48               	goto	l3036
  5687  053F  2D32               	goto	l3030
  5688  0540                     l3038:	
  5689  0540  3002               	movlw	2
  5690  0541  0273               	subwf	___ftpack@exp,w
  5691  0542  1C03               	btfss	3,0
  5692  0543  2D4A               	goto	l1056
  5693  0544  03F3               	decf	___ftpack@exp,f
  5694  0545  35F0               	lslf	___ftpack@arg,f
  5695  0546  0DF1               	rlf	___ftpack@arg+1,f
  5696  0547  0DF2               	rlf	___ftpack@arg+2,f
  5697  0548                     l3036:	
  5698  0548  1FF1               	btfss	___ftpack@arg+1,7
  5699  0549  2D40               	goto	l3038
  5700  054A                     l1056:	
  5701  054A  1C73               	btfss	___ftpack@exp,0
  5702  054B  13F1               	bcf	___ftpack@arg+1,7
  5703  054C  36F3               	lsrf	___ftpack@exp,f
  5704  054D  0873               	movf	___ftpack@exp,w
  5705  054E  00F7               	movwf	??___ftpack+2
  5706  054F  01F6               	clrf	??___ftpack+1
  5707  0550  01F5               	clrf	??___ftpack
  5708  0551  0875               	movf	??___ftpack,w
  5709  0552  04F0               	iorwf	___ftpack@arg,f
  5710  0553  0876               	movf	??___ftpack+1,w
  5711  0554  04F1               	iorwf	___ftpack@arg+1,f
  5712  0555  0877               	movf	??___ftpack+2,w
  5713  0556  04F2               	iorwf	___ftpack@arg+2,f
  5714  0557  0874               	movf	___ftpack@sign,w
  5715  0558  1D03               	btfss	3,2
  5716  0559  17F2               	bsf	___ftpack@arg+2,7
  5717  055A  0008               	return
  5718  055B                     __end_of___ftpack:	
  5719  055B                     __ptext31:	
  5720 ;; *************** function ___fttol *****************
  5721 ;; Defined at:
  5722 ;;		line 44 in file "C:\Program Files (x86)\Microchip\xc8\v1.35\sources\common\fttol.c"
  5723 ;; Parameters:    Size  Location     Type
  5724 ;;  f1              3   12[BANK0 ] float 
  5725 ;; Auto vars:     Size  Location     Type
  5726 ;;  lval            4   20[BANK0 ] unsigned long 
  5727 ;;  exp1            1   24[BANK0 ] unsigned char 
  5728 ;;  sign1           1   19[BANK0 ] unsigned char 
  5729 ;; Return value:  Size  Location     Type
  5730 ;;                  4   12[BANK0 ] long 
  5731 ;; Registers used:
  5732 ;;		wreg, status,2, status,0
  5733 ;; Tracked objects:
  5734 ;;		On entry : 1F/0
  5735 ;;		On exit  : 1F/0
  5736 ;;		Unchanged: 0/0
  5737 ;; Data sizes:     COMMON   BANK0   BANK1   BANK2   BANK3   BANK4   BANK5   BANK6   BANK7   BANK8   BANK9  BANK10  BANK1
      +1  BANK12  BANK13  BANK14  BANK15  BANK16  BANK17  BANK18
  5738 ;;      Params:         0       4       0       0       0       0       0       0       0       0       0       0       
      +0       0       0       0       0       0       0       0
  5739 ;;      Locals:         0       6       0       0       0       0       0       0       0       0       0       0       
      +0       0       0       0       0       0       0       0
  5740 ;;      Temps:          0       3       0       0       0       0       0       0       0       0       0       0       
      +0       0       0       0       0       0       0       0
  5741 ;;      Totals:         0      13       0       0       0       0       0       0       0       0       0       0       
      +0       0       0       0       0       0       0       0
  5742 ;;Total ram usage:       13 bytes
  5743 ;; Hardware stack levels used:    1
  5744 ;; Hardware stack levels required when called:    1
  5745 ;; This function calls:
  5746 ;;		Nothing
  5747 ;; This function is called by:
  5748 ;;		_get_current
  5749 ;; This function uses a non-reentrant model
  5750 ;;
  5751                           
  5752                           
  5753                           ;psect for function ___fttol
  5754  055B                     ___fttol:	
  5755                           
  5756                           ;incstack = 0
  5757                           ; Regs used in ___fttol: [wreg+status,2+status,0]
  5758  055B  0854               	movf	___fttol@f1,w
  5759  055C  00D8               	movwf	??___fttol
  5760  055D  0855               	movf	___fttol@f1+1,w
  5761  055E  00D9               	movwf	??___fttol+1
  5762  055F  0856               	movf	___fttol@f1+2,w
  5763  0560  00DA               	movwf	??___fttol+2
  5764  0561  1003               	clrc
  5765  0562  0D59               	rlf	??___fttol+1,w
  5766  0563  0D5A               	rlf	??___fttol+2,w
  5767  0564  00E0               	movwf	___fttol@exp1
  5768  0565  0860               	movf	___fttol@exp1,w
  5769  0566  1D03               	btfss	3,2
  5770  0567  2D6D               	goto	l3242
  5771  0568                     l3240:	
  5772  0568  01D4               	clrf	?___fttol
  5773  0569  01D5               	clrf	?___fttol+1
  5774  056A  01D6               	clrf	?___fttol+2
  5775  056B  01D7               	clrf	?___fttol+3
  5776  056C  0008               	return
  5777  056D                     l3242:	
  5778  056D  0854               	movf	___fttol@f1,w
  5779  056E  00D8               	movwf	??___fttol
  5780  056F  0855               	movf	___fttol@f1+1,w
  5781  0570  00D9               	movwf	??___fttol+1
  5782  0571  0856               	movf	___fttol@f1+2,w
  5783  0572  00DA               	movwf	??___fttol+2
  5784  0573  3017               	movlw	23
  5785  0574                     u2185:	
  5786  0574  36DA               	lsrf	??___fttol+2,f
  5787  0575  0CD9               	rrf	??___fttol+1,f
  5788  0576  0CD8               	rrf	??___fttol,f
  5789  0577  0B89               	decfsz	9,f
  5790  0578  2D74               	goto	u2185
  5791  0579  0858               	movf	??___fttol,w
  5792  057A  00DB               	movwf	___fttol@sign1
  5793  057B  17D5               	bsf	___fttol@f1+1,7
  5794  057C  01D6               	clrf	___fttol@f1+2
  5795  057D  0854               	movf	___fttol@f1,w
  5796  057E  00DC               	movwf	___fttol@lval
  5797  057F  0855               	movf	___fttol@f1+1,w
  5798  0580  00DD               	movwf	___fttol@lval+1
  5799  0581  0856               	movf	___fttol@f1+2,w
  5800  0582  00DE               	movwf	___fttol@lval+2
  5801  0583  308E               	movlw	142
  5802  0584  01DF               	clrf	___fttol@lval+3
  5803  0585  02E0               	subwf	___fttol@exp1,f
  5804  0586  1FE0               	btfss	___fttol@exp1,7
  5805  0587  2D94               	goto	l3262
  5806  0588  0860               	movf	___fttol@exp1,w
  5807  0589  3A80               	xorlw	128
  5808  058A  3E8F               	addlw	143
  5809  058B  1C03               	btfss	3,0
  5810  058C  2D68               	goto	l3240
  5811  058D                     l3258:	
  5812  058D  36DF               	lsrf	___fttol@lval+3,f
  5813  058E  0CDE               	rrf	___fttol@lval+2,f
  5814  058F  0CDD               	rrf	___fttol@lval+1,f
  5815  0590  0CDC               	rrf	___fttol@lval,f
  5816  0591  0FE0               	incfsz	___fttol@exp1,f
  5817  0592  2D8D               	goto	l3258
  5818  0593  2DA1               	goto	l3270
  5819  0594                     l3262:	
  5820  0594  3018               	movlw	24
  5821  0595  0260               	subwf	___fttol@exp1,w
  5822  0596  1803               	btfsc	3,0
  5823  0597  2D68               	goto	l3240
  5824  0598                     l3268:	
  5825  0598  0860               	movf	___fttol@exp1,w
  5826  0599  1903               	btfsc	3,2
  5827  059A  2DA1               	goto	l3270
  5828  059B  35DC               	lslf	___fttol@lval,f
  5829  059C  0DDD               	rlf	___fttol@lval+1,f
  5830  059D  0DDE               	rlf	___fttol@lval+2,f
  5831  059E  0DDF               	rlf	___fttol@lval+3,f
  5832  059F  03E0               	decf	___fttol@exp1,f
  5833  05A0  2D98               	goto	l3268
  5834  05A1                     l3270:	
  5835  05A1  085B               	movf	___fttol@sign1,w
  5836  05A2  1903               	btfsc	3,2
  5837  05A3  2DAF               	goto	l3274
  5838  05A4  09DC               	comf	___fttol@lval,f
  5839  05A5  09DD               	comf	___fttol@lval+1,f
  5840  05A6  09DE               	comf	___fttol@lval+2,f
  5841  05A7  09DF               	comf	___fttol@lval+3,f
  5842  05A8  0ADC               	incf	___fttol@lval,f
  5843  05A9  1903               	skipnz
  5844  05AA  0ADD               	incf	___fttol@lval+1,f
  5845  05AB  1903               	skipnz
  5846  05AC  0ADE               	incf	___fttol@lval+2,f
  5847  05AD  1903               	skipnz
  5848  05AE  0ADF               	incf	___fttol@lval+3,f
  5849  05AF                     l3274:	
  5850  05AF  085F               	movf	___fttol@lval+3,w
  5851  05B0  00D7               	movwf	?___fttol+3
  5852  05B1  085E               	movf	___fttol@lval+2,w
  5853  05B2  00D6               	movwf	?___fttol+2
  5854  05B3  085D               	movf	___fttol@lval+1,w
  5855  05B4  00D5               	movwf	?___fttol+1
  5856  05B5  085C               	movf	___fttol@lval,w
  5857  05B6  00D4               	movwf	?___fttol
  5858  05B7  0008               	return
  5859  05B8                     __end_of___fttol:	
  5860                           
  5861                           	psect	intentry
  5862  0004                     __pintentry:	
  5863 ;; *************** function _isr *****************
  5864 ;; Defined at:
  5865 ;;		line 937 in file "newmain1.c"
  5866 ;; Parameters:    Size  Location     Type
  5867 ;;		None
  5868 ;; Auto vars:     Size  Location     Type
  5869 ;;		None
  5870 ;; Return value:  Size  Location     Type
  5871 ;;		None               void
  5872 ;; Registers used:
  5873 ;;		wreg, fsr0l, fsr0h, status,2, status,0
  5874 ;; Tracked objects:
  5875 ;;		On entry : 0/0
  5876 ;;		On exit  : 1F/0
  5877 ;;		Unchanged: 0/0
  5878 ;; Data sizes:     COMMON   BANK0   BANK1   BANK2   BANK3   BANK4   BANK5   BANK6   BANK7   BANK8   BANK9  BANK10  BANK1
      +1  BANK12  BANK13  BANK14  BANK15  BANK16  BANK17  BANK18
  5879 ;;      Params:         0       0       0       0       0       0       0       0       0       0       0       0       
      +0       0       0       0       0       0       0       0
  5880 ;;      Locals:         0       0       0       0       0       0       0       0       0       0       0       0       
      +0       0       0       0       0       0       0       0
  5881 ;;      Temps:          0       0       0       0       0       0       0       0       0       0       0       0       
      +0       0       0       0       0       0       0       0
  5882 ;;      Totals:         0       0       0       0       0       0       0       0       0       0       0       0       
      +0       0       0       0       0       0       0       0
  5883 ;;Total ram usage:        0 bytes
  5884 ;; Hardware stack levels used:    1
  5885 ;; This function calls:
  5886 ;;		Nothing
  5887 ;; This function is called by:
  5888 ;;		Interrupt level 1
  5889 ;; This function uses a non-reentrant model
  5890 ;;
  5891                           
  5892  0004                     _isr:	
  5893                           
  5894                           ;incstack = 0
  5895                           ; Regs used in _isr: [wreg-fsr0h+status,2+status,0]
  5896  0004  147E               	bsf	126,0	;set compiler interrupt flag (level 1)
  5897  0005  3180               	pagesel	$
  5898                           
  5899                           ;newmain1.c: 938: if (INTCONbits.TMR0IF == 1)
  5900  0006  1D0B               	btfss	11,2	;volatile
  5901  0007  281A               	goto	i1l3548
  5902                           
  5903                           ;newmain1.c: 939: {
  5904                           ;newmain1.c: 940: if (uart_receive_timer)
  5905  0008  0020               	movlb	0	; select bank0
  5906  0009  083C               	movf	_uart_receive_timer,w	;volatile
  5907  000A  043D               	iorwf	_uart_receive_timer+1,w	;volatile
  5908  000B  1903               	btfsc	3,2
  5909  000C  2811               	goto	i1l387
  5910                           
  5911                           ;newmain1.c: 941: uart_receive_timer--;
  5912  000D  30FF               	movlw	-1
  5913  000E  07BC               	addwf	_uart_receive_timer,f	;volatile
  5914  000F  1C03               	skipc
  5915  0010  03BD               	decf	_uart_receive_timer+1,f	;volatile
  5916  0011                     i1l387:	
  5917                           
  5918                           ;newmain1.c: 942: if (motor_direction_timer)
  5919  0011  082E               	movf	_motor_direction_timer,w	;volatile
  5920  0012  042F               	iorwf	_motor_direction_timer+1,w	;volatile
  5921  0013  1903               	btfsc	3,2
  5922  0014  2819               	goto	i1l3546
  5923                           
  5924                           ;newmain1.c: 943: motor_direction_timer--;
  5925  0015  30FF               	movlw	-1
  5926  0016  07AE               	addwf	_motor_direction_timer,f	;volatile
  5927  0017  1C03               	skipc
  5928  0018  03AF               	decf	_motor_direction_timer+1,f	;volatile
  5929  0019                     i1l3546:	
  5930                           
  5931                           ;newmain1.c: 945: INTCONbits.TMR0IF = 0;
  5932  0019  110B               	bcf	11,2	;volatile
  5933  001A                     i1l3548:	
  5934                           
  5935                           ;newmain1.c: 947: }
  5936                           ;newmain1.c: 948: if (PIR1bits.TMR2IF == 1)
  5937  001A  0020               	movlb	0	; select bank0
  5938  001B  1C91               	btfss	17,1	;volatile
  5939  001C  28B5               	goto	i1l415
  5940                           
  5941                           ;newmain1.c: 949: {
  5942                           ;newmain1.c: 950: if(testjig_timer)
  5943  001D  0838               	movf	_testjig_timer,w	;volatile
  5944  001E  0439               	iorwf	_testjig_timer+1,w	;volatile
  5945  001F  1903               	btfsc	3,2
  5946  0020  2825               	goto	i1l3554
  5947                           
  5948                           ;newmain1.c: 951: {testjig_timer--;}
  5949  0021  3001               	movlw	1
  5950  0022  02B8               	subwf	_testjig_timer,f	;volatile
  5951  0023  3000               	movlw	0
  5952  0024  3BB9               	subwfb	_testjig_timer+1,f	;volatile
  5953  0025                     i1l3554:	
  5954                           
  5955                           ;newmain1.c: 953: if(usart_timer)
  5956  0025  083E               	movf	_usart_timer,w	;volatile
  5957  0026  043F               	iorwf	_usart_timer+1,w	;volatile
  5958  0027  1903               	btfsc	3,2
  5959  0028  282D               	goto	i1l3558
  5960                           
  5961                           ;newmain1.c: 954: {usart_timer--;}
  5962  0029  3001               	movlw	1
  5963  002A  02BE               	subwf	_usart_timer,f	;volatile
  5964  002B  3000               	movlw	0
  5965  002C  3BBF               	subwfb	_usart_timer+1,f	;volatile
  5966  002D                     i1l3558:	
  5967                           
  5968                           ;newmain1.c: 956: if(pickit_timer)
  5969  002D  0836               	movf	_pickit_timer,w	;volatile
  5970  002E  0437               	iorwf	_pickit_timer+1,w	;volatile
  5971  002F  1903               	btfsc	3,2
  5972  0030  2888               	goto	i1l3608
  5973                           
  5974                           ;newmain1.c: 957: {
  5975                           ;newmain1.c: 958: pickit_timer--;
  5976  0031  3001               	movlw	1
  5977  0032  02B6               	subwf	_pickit_timer,f	;volatile
  5978  0033  3000               	movlw	0
  5979  0034  3BB7               	subwfb	_pickit_timer+1,f	;volatile
  5980                           
  5981                           ;newmain1.c: 959: }
  5982  0035  2892               	goto	i1l3610
  5983  0036                     i1l395:	
  5984                           ;newmain1.c: 963: {
  5985                           ;newmain1.c: 964: case pickit_start:
  5986                           
  5987                           
  5988                           ;newmain1.c: 967: LATB7 = 1;
  5989  0036  0022               	movlb	2	; select bank2
  5990  0037  178D               	bsf	13,7	;volatile
  5991                           
  5992                           ;newmain1.c: 968: LATA7 = 1;
  5993  0038  178C               	bsf	12,7	;volatile
  5994                           
  5995                           ;newmain1.c: 969: pickit_timer = 500;
  5996  0039  30F4               	movlw	244
  5997  003A  0020               	movlb	0	; select bank0
  5998  003B  00B6               	movwf	_pickit_timer	;volatile
  5999  003C  3001               	movlw	1
  6000  003D  00B7               	movwf	_pickit_timer+1	;volatile
  6001                           
  6002                           ;newmain1.c: 970: pickit_state = pickit_push_button;
  6003  003E  3002               	movlw	2
  6004  003F  2886               	goto	L16
  6005  0040                     i1l3564:	
  6006                           ;newmain1.c: 971: break;
  6007                           
  6008                           
  6009                           ;newmain1.c: 974: pickit_timer = 500;
  6010  0040  30F4               	movlw	244
  6011  0041  00B6               	movwf	_pickit_timer	;volatile
  6012  0042  3001               	movlw	1
  6013  0043  00B7               	movwf	_pickit_timer+1	;volatile
  6014                           
  6015                           ;newmain1.c: 975: LATC7 = 1;
  6016  0044  0022               	movlb	2	; select bank2
  6017  0045  178E               	bsf	14,7	;volatile
  6018                           
  6019                           ;newmain1.c: 976: pickit_state = pgm_start_delay;
  6020  0046  3003               	movlw	3
  6021  0047  2885               	goto	L17
  6022  0048                     i1l398:	
  6023                           ;newmain1.c: 980: case pgm_start_delay:
  6024                           
  6025                           ;newmain1.c: 978: break;
  6026                           
  6027                           
  6028                           ;newmain1.c: 981: LATC7 = 0;
  6029  0048  0022               	movlb	2	; select bank2
  6030  0049  138E               	bcf	14,7	;volatile
  6031                           
  6032                           ;newmain1.c: 982: pickit_pgm_timeout = 0;
  6033  004A  0020               	movlb	0	; select bank0
  6034  004B  01B2               	clrf	_pickit_pgm_timeout	;volatile
  6035  004C  01B3               	clrf	_pickit_pgm_timeout+1	;volatile
  6036                           
  6037                           ;newmain1.c: 983: pickit_timer = 500;
  6038  004D  30F4               	movlw	244
  6039  004E  00B6               	movwf	_pickit_timer	;volatile
  6040  004F  3001               	movlw	1
  6041  0050  00B7               	movwf	_pickit_timer+1	;volatile
  6042                           
  6043                           ;newmain1.c: 984: pickit_state = pickit_busy;
  6044  0051  3004               	movlw	4
  6045  0052  2886               	goto	L16
  6046  0053                     i1l3574:	
  6047                           ;newmain1.c: 985: break;
  6048                           
  6049                           
  6050                           ;newmain1.c: 989: pickit_pgm_timeout++;
  6051  0053  0AB2               	incf	_pickit_pgm_timeout,f	;volatile
  6052  0054  1903               	skipnz
  6053  0055  0AB3               	incf	_pickit_pgm_timeout+1,f	;volatile
  6054                           
  6055                           ;newmain1.c: 990: if (pickit_pgm_timeout > 8000)
  6056  0056  301F               	movlw	31
  6057  0057  0233               	subwf	_pickit_pgm_timeout+1,w	;volatile
  6058  0058  3041               	movlw	65
  6059  0059  1903               	skipnz
  6060  005A  0232               	subwf	_pickit_pgm_timeout,w	;volatile
  6061  005B  1803               	btfsc	3,0
  6062                           
  6063                           ;newmain1.c: 991: {
  6064                           ;newmain1.c: 992: pickit_state = pickit_finish;;
  6065  005C  01C1               	clrf	_pickit_state
  6066                           
  6067                           ;newmain1.c: 993: }
  6068                           ;newmain1.c: 995: if((RE4 == 0)&&(RE5 == 1))
  6069  005D  1E10               	btfss	16,4	;volatile
  6070  005E  1E90               	btfss	16,5	;volatile
  6071  005F  2866               	goto	i1l3588
  6072                           
  6073                           ;newmain1.c: 996: {
  6074                           ;newmain1.c: 997: pickit_all_counter++;
  6075  0060  0AB0               	incf	_pickit_all_counter,f	;volatile
  6076  0061  1903               	skipnz
  6077  0062  0AB1               	incf	_pickit_all_counter+1,f	;volatile
  6078                           
  6079                           ;newmain1.c: 1001: pickit_state = pickit_error;
  6080  0063  3005               	movlw	5
  6081  0064  00C1               	movwf	_pickit_state
  6082                           
  6083                           ;newmain1.c: 1004: }
  6084  0065  2868               	goto	i1l3590
  6085  0066                     i1l3588:	
  6086                           
  6087                           ;newmain1.c: 1005: else
  6088                           ;newmain1.c: 1006: {
  6089                           ;newmain1.c: 1007: pickit_all_counter = 0;
  6090  0066  01B0               	clrf	_pickit_all_counter	;volatile
  6091  0067  01B1               	clrf	_pickit_all_counter+1	;volatile
  6092  0068                     i1l3590:	
  6093                           
  6094                           ;newmain1.c: 1008: }
  6095                           ;newmain1.c: 1010: if((RE4 == 0)&&(RE5 == 0))
  6096  0068  1E10               	btfss	16,4	;volatile
  6097  0069  1A90               	btfsc	16,5	;volatile
  6098  006A  2877               	goto	i1l3600
  6099                           
  6100                           ;newmain1.c: 1011: {
  6101                           ;newmain1.c: 1012: pickit_red_counter++;
  6102  006B  0AB4               	incf	_pickit_red_counter,f
  6103  006C  1903               	skipnz
  6104  006D  0AB5               	incf	_pickit_red_counter+1,f
  6105                           
  6106                           ;newmain1.c: 1013: if (pickit_red_counter > 400)
  6107  006E  3001               	movlw	1
  6108  006F  0235               	subwf	_pickit_red_counter+1,w
  6109  0070  3091               	movlw	145
  6110  0071  1903               	skipnz
  6111  0072  0234               	subwf	_pickit_red_counter,w
  6112  0073  1C03               	skipc
  6113  0074  2879               	goto	i1l3602
  6114                           
  6115                           ;newmain1.c: 1014: {
  6116                           ;newmain1.c: 1015: pickit_state = pickit_finish;
  6117  0075  01C1               	clrf	_pickit_state
  6118  0076  2879               	goto	i1l3602
  6119  0077                     i1l3600:	
  6120                           
  6121                           ;newmain1.c: 1018: else
  6122                           ;newmain1.c: 1019: {
  6123                           ;newmain1.c: 1020: pickit_red_counter = 0;
  6124  0077  01B4               	clrf	_pickit_red_counter
  6125  0078  01B5               	clrf	_pickit_red_counter+1
  6126  0079                     i1l3602:	
  6127                           
  6128                           ;newmain1.c: 1021: }
  6129                           ;newmain1.c: 1047: pickit_timer = 1;
  6130  0079  3001               	movlw	1
  6131  007A  00B6               	movwf	_pickit_timer	;volatile
  6132  007B  01B7               	clrf	_pickit_timer+1	;volatile
  6133                           
  6134                           ;newmain1.c: 1049: break;
  6135  007C  2892               	goto	i1l3610
  6136  007D                     i1l406:	
  6137                           ;newmain1.c: 1050: case pickit_error:
  6138                           
  6139                           
  6140                           ;newmain1.c: 1051: LATB7 = 0;
  6141  007D  0022               	movlb	2	; select bank2
  6142  007E  138D               	bcf	13,7	;volatile
  6143                           
  6144                           ;newmain1.c: 1052: LATA7 = 0;
  6145  007F  138C               	bcf	12,7	;volatile
  6146                           
  6147                           ;newmain1.c: 1055: break;
  6148  0080  2892               	goto	i1l3610
  6149  0081                     i1l407:	
  6150                           ;newmain1.c: 1056: case pickit_finish:
  6151                           
  6152                           
  6153                           ;newmain1.c: 1057: LATB7 = 0;
  6154  0081  0022               	movlb	2	; select bank2
  6155  0082  138D               	bcf	13,7	;volatile
  6156                           
  6157                           ;newmain1.c: 1058: LATA7 = 0;
  6158  0083  138C               	bcf	12,7	;volatile
  6159                           
  6160                           ;newmain1.c: 1061: pickit_state = pickit_idle;
  6161  0084  3006               	movlw	6
  6162  0085                     L17:	
  6163  0085  0020               	movlb	0	; select bank0
  6164  0086                     L16:	
  6165  0086  00C1               	movwf	_pickit_state
  6166                           
  6167                           ;newmain1.c: 1062: break;
  6168  0087  2892               	goto	i1l3610
  6169  0088                     i1l3608:	
  6170  0088  0841               	movf	_pickit_state,w
  6171                           
  6172                           ; Switch size 1, requested type "speed"
  6173                           ; Number of cases is 7, Range of values is 0 to 6
  6174                           ; switch strategies available:
  6175                           ; Name         Instructions Cycles
  6176                           ; direct_byte           20     6 (fixed)
  6177                           ; simple_byte           22    12 (average)
  6178                           ; jumptable            260     6 (fixed)
  6179                           ;	Chosen strategy is direct_byte
  6180  0089  0084               	movwf	4
  6181  008A  3007               	movlw	7
  6182  008B  0204               	subwf	4,w
  6183  008C  1803               	skipnc
  6184  008D  2892               	goto	i1l3610
  6185  008E  3194               	movlp	high i1S4460
  6186  008F  3504               	lslf	4,w
  6187  0090  3E12               	addlw	low i1S4460
  6188  0091  0082               	movwf	2
  6189  0092                     i1l393:	
  6190  0092                     i1l3610:	
  6191                           ;newmain1.c: 1066: }
  6192                           ;newmain1.c: 1068: if(RC2IF==1){
  6193                           
  6194                           
  6195                           ;newmain1.c: 1072: }
  6196                           ;newmain1.c: 1074: if (buzz_timer)
  6197  0092  0020               	movlb	0	; select bank0
  6198  0093  0826               	movf	_buzz_timer,w	;volatile
  6199  0094  0427               	iorwf	_buzz_timer+1,w	;volatile
  6200  0095  1903               	btfsc	3,2
  6201  0096  289C               	goto	i1l410
  6202                           
  6203                           ;newmain1.c: 1075: buzz_timer--;
  6204  0097  3001               	movlw	1
  6205  0098  02A6               	subwf	_buzz_timer,f	;volatile
  6206  0099  3000               	movlw	0
  6207  009A  3BA7               	subwfb	_buzz_timer+1,f	;volatile
  6208  009B  289E               	goto	i1l3614
  6209  009C                     i1l410:	
  6210                           
  6211                           ;newmain1.c: 1076: else
  6212                           ;newmain1.c: 1077: LATC5 = 0;
  6213  009C  0022               	movlb	2	; select bank2
  6214  009D  128E               	bcf	14,5	;volatile
  6215  009E                     i1l3614:	
  6216                           
  6217                           ;newmain1.c: 1078: if (one_second_timer)
  6218  009E  0020               	movlb	0	; select bank0
  6219  009F  0868               	movf	_one_second_timer,w	;volatile
  6220  00A0  0469               	iorwf	_one_second_timer+1,w	;volatile
  6221  00A1  1903               	btfsc	3,2
  6222  00A2  28A8               	goto	i1l3618
  6223                           
  6224                           ;newmain1.c: 1079: one_second_timer--;
  6225  00A3  3001               	movlw	1
  6226  00A4  02E8               	subwf	_one_second_timer,f	;volatile
  6227  00A5  3000               	movlw	0
  6228  00A6  3BE9               	subwfb	_one_second_timer+1,f	;volatile
  6229  00A7  28AC               	goto	i1l3620
  6230  00A8                     i1l3618:	
  6231                           
  6232                           ;newmain1.c: 1080: else {
  6233                           ;newmain1.c: 1081: one_second_timer = 1000;
  6234  00A8  30E8               	movlw	232
  6235  00A9  00E8               	movwf	_one_second_timer	;volatile
  6236  00AA  3003               	movlw	3
  6237  00AB  00E9               	movwf	_one_second_timer+1	;volatile
  6238  00AC                     i1l3620:	
  6239                           
  6240                           ;newmain1.c: 1082: }
  6241                           ;newmain1.c: 1083: if (tj_timer)
  6242  00AC  083A               	movf	_tj_timer,w
  6243  00AD  043B               	iorwf	_tj_timer+1,w
  6244  00AE  1903               	btfsc	3,2
  6245  00AF  28B4               	goto	i1l3624
  6246                           
  6247                           ;newmain1.c: 1084: tj_timer--;
  6248  00B0  3001               	movlw	1
  6249  00B1  02BA               	subwf	_tj_timer,f
  6250  00B2  3000               	movlw	0
  6251  00B3  3BBB               	subwfb	_tj_timer+1,f
  6252  00B4                     i1l3624:	
  6253                           
  6254                           ;newmain1.c: 1085: PIR1bits.TMR2IF = 0;
  6255  00B4  1091               	bcf	17,1	;volatile
  6256  00B5                     i1l415:	
  6257  00B5  107E               	bcf	126,0	;clear compiler interrupt flag (level 1)
  6258  00B6  0009               	retfie
  6259  00B7                     __end_of_isr:	
  6260  007E                     btemp	set	126	;btemp
  6261  007E                     int$flags	set	126
  6262  007E                     wtemp	set	126
  6263  007E                     wtemp0	set	126
  6264  0080                     wtemp1	set	128
  6265  0082                     wtemp2	set	130
  6266  0084                     wtemp3	set	132
  6267  0086                     wtemp4	set	134
  6268  0088                     wtemp5	set	136
  6269  007F                     wtemp6	set	127
  6270  007E                     ttemp	set	126
  6271  007E                     ttemp0	set	126
  6272  0081                     ttemp1	set	129
  6273  0084                     ttemp2	set	132
  6274  0087                     ttemp3	set	135
  6275  007F                     ttemp4	set	127
  6276  007E                     ltemp	set	126
  6277  007E                     ltemp0	set	126
  6278  0082                     ltemp1	set	130
  6279  0086                     ltemp2	set	134
  6280  0080                     ltemp3	set	128
  6281                           
  6282                           	psect	swtext3
  6283  1412                     __pswtext3:	
  6284  1412                     i1S4460:	
  6285  1412  3180  2881         	ljmp	i1l407
  6286  1414  3180  2836         	ljmp	i1l395
  6287  1416  3180  2840         	ljmp	i1l3564
  6288  1418  3180  2848         	ljmp	i1l398
  6289  141A  3180  2853         	ljmp	i1l3574
  6290  141C  3180  287D         	ljmp	i1l406
  6291  141E  3180  2892         	ljmp	i1l393
  6292                           
  6293                           	psect	maintext_split_1
  6294  16F0                     L18:	
  6295  16F0  0020               	movlb	0	; select bank0
  6296  16F1  00A6               	movwf	_buzz_timer	;volatile
  6297  16F2  3001               	movlw	1
  6298  16F3  00A7               	movwf	_buzz_timer+1	;volatile
  6299                           
  6300                           ;newmain1.c: 1151: LATC5 = 1;
  6301  16F4  0022               	movlb	2	; select bank2
  6302  16F5  168E               	bsf	14,5	;volatile
  6303                           
  6304                           ;newmain1.c: 1155: print_screen("DCBA Roll-up TJ", "-> Insert PCB & Start");
  6305  16F6  306C               	movlw	low (STR_7| (0+32768))
  6306  16F7  00F4               	movwf	print_screen@top
  6307  16F8  3090               	movlw	high (STR_7| (0+32768))
  6308  16F9  00F5               	movwf	print_screen@top+1
  6309  16FA  3000               	movlw	low (STR_8| (0+32768))
  6310  16FB  00F6               	movwf	print_screen@bottom
  6311  16FC  3090               	movlw	high (STR_8| (0+32768))
  6312  16FD  00F7               	movwf	print_screen@bottom+1
  6313  16FE  3182  221A  3196   	fcall	_print_screen
  6314                           
  6315                           ;newmain1.c: 1157: if(RF5 == 0)
  6316  1701  0025               	movlb	5	; select bank5
  6317  1702  1A8C               	btfsc	12,5	;volatile
  6318  1703  2F10               	goto	l3716
  6319                           
  6320                           ;newmain1.c: 1158: {
  6321                           ;newmain1.c: 1159: print_screen("Board","Detected");
  6322  1704  30D5               	movlw	low ((STR_13+9)| (0+32768))
  6323  1705  00F4               	movwf	print_screen@top
  6324  1706  3090               	movlw	high ((STR_13+9)| (0+32768))
  6325  1707  00F5               	movwf	print_screen@top+1
  6326  1708  3092               	movlw	low (STR_10| (0+32768))
  6327  1709  00F6               	movwf	print_screen@bottom
  6328  170A  3093               	movlw	high (STR_10| (0+32768))
  6329  170B  00F7               	movwf	print_screen@bottom+1
  6330  170C  3182  221A  3196   	fcall	_print_screen
  6331                           
  6332                           ;newmain1.c: 1160: }
  6333  170F  2F1C               	goto	l3718
  6334  1710                     l3716:	
  6335                           
  6336                           ;newmain1.c: 1161: else
  6337                           ;newmain1.c: 1162: {
  6338                           ;newmain1.c: 1163: print_screen("DCBA Roll-up TJ", "-> Insert PCB & Start");
  6339  1710  306C               	movlw	low (STR_7| (0+32768))
  6340  1711  00F4               	movwf	print_screen@top
  6341  1712  3090               	movlw	high (STR_7| (0+32768))
  6342  1713  00F5               	movwf	print_screen@top+1
  6343  1714  3000               	movlw	low (STR_8| (0+32768))
  6344  1715  00F6               	movwf	print_screen@bottom
  6345  1716  3090               	movlw	high (STR_8| (0+32768))
  6346  1717  00F7               	movwf	print_screen@bottom+1
  6347  1718  3182  221A  3196   	fcall	_print_screen
  6348  171B                     l420:	
  6349                           ;newmain1.c: 1164: while(1)
  6350                           
  6351                           
  6352                           ;newmain1.c: 1165: {}
  6353  171B  2F1B               	goto	l420
  6354  171C                     l3718:	
  6355                           
  6356                           ;newmain1.c: 1166: }
  6357                           ;newmain1.c: 1169: print_screen("Powering Board", "On AC 2");
  6358  171C  30CC               	movlw	low (STR_13| (0+32768))
  6359  171D  00F4               	movwf	print_screen@top
  6360  171E  3090               	movlw	high (STR_13| (0+32768))
  6361  171F  00F5               	movwf	print_screen@top+1
  6362  1720  30BE               	movlw	low (STR_14| (0+32768))
  6363  1721  00F6               	movwf	print_screen@bottom
  6364  1722  3093               	movlw	high (STR_14| (0+32768))
  6365  1723  00F7               	movwf	print_screen@bottom+1
  6366  1724  3182  221A  3196   	fcall	_print_screen
  6367                           
  6368                           ;newmain1.c: 1171: LATD5 = 1;
  6369  1727  0022               	movlb	2	; select bank2
  6370  1728  168F               	bsf	15,5	;volatile
  6371                           
  6372                           ;newmain1.c: 1173: _delay((unsigned long)((150)*(16000000/4000.0)));
  6373  1729  3004               	movlw	4
  6374  172A  0020               	movlb	0	; select bank0
  6375  172B  00E7               	movwf	??_main+2
  6376  172C  300C               	movlw	12
  6377  172D  00E6               	movwf	??_main+1
  6378  172E  3035               	movlw	53
  6379  172F  00E5               	movwf	??_main
  6380  1730                     u3447:	
  6381  1730  0BE5               	decfsz	??_main,f
  6382  1731  2F30               	goto	u3447
  6383  1732  0BE6               	decfsz	??_main+1,f
  6384  1733  2F30               	goto	u3447
  6385  1734  0BE7               	decfsz	??_main+2,f
  6386  1735  2F30               	goto	u3447
  6387  1736  3200               	nop2
  6388                           
  6389                           ;newmain1.c: 1175: LATD4 = 1;
  6390  1737  0022               	movlb	2	; select bank2
  6391  1738  160F               	bsf	15,4	;volatile
  6392                           
  6393                           ;newmain1.c: 1177: _delay((unsigned long)((2000)*(16000000/4000.0)));
  6394  1739  3029               	movlw	41
  6395  173A  0020               	movlb	0	; select bank0
  6396  173B  00E7               	movwf	??_main+2
  6397  173C  3096               	movlw	150
  6398  173D  00E6               	movwf	??_main+1
  6399  173E  30A6               	movlw	166
  6400  173F  00E5               	movwf	??_main
  6401  1740                     u3457:	
  6402  1740  0BE5               	decfsz	??_main,f
  6403  1741  2F40               	goto	u3457
  6404  1742  0BE6               	decfsz	??_main+1,f
  6405  1743  2F40               	goto	u3457
  6406  1744  0BE7               	decfsz	??_main+2,f
  6407  1745  2F40               	goto	u3457
  6408                           
  6409                           ;newmain1.c: 1179: power_supply_set(0);
  6410  1746  3000               	movlw	0
  6411  1747  3184  242B  3196   	fcall	_power_supply_set
  6412                           
  6413                           ;newmain1.c: 1181: _delay((unsigned long)((500)*(16000000/4000.0)));
  6414  174A  300B               	movlw	11
  6415  174B  0020               	movlb	0	; select bank0
  6416  174C  00E7               	movwf	??_main+2
  6417  174D  3026               	movlw	38
  6418  174E  00E6               	movwf	??_main+1
  6419  174F  3066               	movlw	102
  6420  1750  00E5               	movwf	??_main
  6421  1751                     u3467:	
  6422  1751  0BE5               	decfsz	??_main,f
  6423  1752  2F51               	goto	u3467
  6424  1753  0BE6               	decfsz	??_main+1,f
  6425  1754  2F51               	goto	u3467
  6426  1755  0BE7               	decfsz	??_main+2,f
  6427  1756  2F51               	goto	u3467
  6428  1757  3200               	nop2
  6429                           
  6430                           ;newmain1.c: 1184: if((RA0 == 0) || (RA1 == 0))
  6431  1758  0020               	movlb	0	; select bank0
  6432  1759  1C0C               	btfss	12,0	;volatile
  6433  175A  2F5D               	goto	l3734
  6434  175B  188C               	btfsc	12,1	;volatile
  6435  175C  2F68               	goto	l423
  6436  175D                     l3734:	
  6437                           
  6438                           ;newmain1.c: 1185: {
  6439                           ;newmain1.c: 1186: print_error("Error", "Motor Short");
  6440  175D  30E3               	movlw	low (STR_15| (0+32768))
  6441  175E  00F8               	movwf	print_error@top
  6442  175F  3093               	movlw	high (STR_15| (0+32768))
  6443  1760  00F9               	movwf	print_error@top+1
  6444  1761  30FA               	movlw	low (STR_16| (0+32768))
  6445  1762  00FA               	movwf	print_error@bottom
  6446  1763  3092               	movlw	high (STR_16| (0+32768))
  6447  1764  00FB               	movwf	print_error@bottom+1
  6448  1765  3182  223C  3196   	fcall	_print_error
  6449  1768                     l423:	
  6450                           
  6451                           ;newmain1.c: 1187: }
  6452                           ;newmain1.c: 1190: print_screen("Measuring", "Q Current");
  6453  1768  303C               	movlw	low (STR_17| (0+32768))
  6454  1769  00F4               	movwf	print_screen@top
  6455  176A  3093               	movlw	high (STR_17| (0+32768))
  6456  176B  00F5               	movwf	print_screen@top+1
  6457  176C  3064               	movlw	low (STR_18| (0+32768))
  6458  176D  00F6               	movwf	print_screen@bottom
  6459  176E  3093               	movlw	high (STR_18| (0+32768))
  6460  176F  00F7               	movwf	print_screen@bottom+1
  6461  1770  3182  221A  3196   	fcall	_print_screen
  6462                           
  6463                           ;newmain1.c: 1192: ADC_val = get_current();
  6464  1773  3184  245A         	fcall	_get_current
  6465  1775  0862               	movf	?_get_current+1,w
  6466  1776  3195  2DE3         	ljmp	L19
  6467                           
  6468                           	psect	maintext_split_2
  6469  15E3                     L19:	
  6470  15E3  00A3               	movwf	_ADC_val+1
  6471  15E4  0861               	movf	?_get_current,w
  6472  15E5  00A2               	movwf	_ADC_val
  6473                           
  6474                           ;newmain1.c: 1194: if(ADC_val > 90)
  6475  15E6  3000               	movlw	0
  6476  15E7  0223               	subwf	_ADC_val+1,w
  6477  15E8  305B               	movlw	91
  6478  15E9  1903               	skipnz
  6479  15EA  0222               	subwf	_ADC_val,w
  6480  15EB  1C03               	skipc
  6481  15EC  2DF8               	goto	l426
  6482                           
  6483                           ;newmain1.c: 1195: {
  6484                           ;newmain1.c: 1196: print_error("Q Current", "Too High");
  6485  15ED  3064               	movlw	low (STR_18| (0+32768))
  6486  15EE  00F8               	movwf	print_error@top
  6487  15EF  3093               	movlw	high (STR_18| (0+32768))
  6488  15F0  00F9               	movwf	print_error@top+1
  6489  15F1  309B               	movlw	low (STR_20| (0+32768))
  6490  15F2  00FA               	movwf	print_error@bottom
  6491  15F3  3093               	movlw	high (STR_20| (0+32768))
  6492  15F4  00FB               	movwf	print_error@bottom+1
  6493  15F5  3182  223C  3195   	fcall	_print_error
  6494  15F8                     l426:	
  6495                           
  6496                           ;newmain1.c: 1197: }
  6497                           ;newmain1.c: 1201: print_screen("Measuring V1", "");
  6498  15F8  3024               	movlw	low (STR_21| (0+32768))
  6499  15F9  00F4               	movwf	print_screen@top
  6500  15FA  3092               	movlw	high (STR_21| (0+32768))
  6501  15FB  00F5               	movwf	print_screen@top+1
  6502  15FC  30F9               	movlw	low ((STR_163+4)| (0+32768))
  6503  15FD  00F6               	movwf	print_screen@bottom
  6504  15FE  3093               	movlw	high ((STR_163+4)| (0+32768))
  6505  15FF  00F7               	movwf	print_screen@bottom+1
  6506  1600  3182  221A  3195   	fcall	_print_screen
  6507                           
  6508                           ;newmain1.c: 1203: ADC_val = ADC_get_val(0b01101001);
  6509  1603  3069               	movlw	105
  6510  1604  3184  2486  3195   	fcall	_ADC_get_val
  6511  1607  0871               	movf	?_ADC_get_val+1,w
  6512  1608  0020               	movlb	0	; select bank0
  6513  1609  00A3               	movwf	_ADC_val+1
  6514  160A  0870               	movf	?_ADC_get_val,w
  6515  160B  00A2               	movwf	_ADC_val
  6516                           
  6517                           ;newmain1.c: 1205: if(ADC_val < 693)
  6518  160C  3002               	movlw	2
  6519  160D  0223               	subwf	_ADC_val+1,w
  6520  160E  30B5               	movlw	181
  6521  160F  1903               	skipnz
  6522  1610  0222               	subwf	_ADC_val,w
  6523  1611  1803               	skipnc
  6524  1612  2E1E               	goto	l427
  6525                           
  6526                           ;newmain1.c: 1206: {
  6527                           ;newmain1.c: 1207: print_error("V1 Voltage-Jig", "Too Low");
  6528  1613  30EA               	movlw	low (STR_23| (0+32768))
  6529  1614  00F8               	movwf	print_error@top
  6530  1615  3090               	movlw	high (STR_23| (0+32768))
  6531  1616  00F9               	movwf	print_error@top+1
  6532  1617  30CE               	movlw	low (STR_24| (0+32768))
  6533  1618  00FA               	movwf	print_error@bottom
  6534  1619  3093               	movlw	high (STR_24| (0+32768))
  6535  161A  00FB               	movwf	print_error@bottom+1
  6536  161B  3182  223C  3195   	fcall	_print_error
  6537  161E                     l427:	
  6538                           
  6539                           ;newmain1.c: 1208: }
  6540                           ;newmain1.c: 1217: print_screen("Measuring 24V", "");
  6541  161E  3098               	movlw	low (STR_25| (0+32768))
  6542  161F  00F4               	movwf	print_screen@top
  6543  1620  3091               	movlw	high (STR_25| (0+32768))
  6544  1621  00F5               	movwf	print_screen@top+1
  6545  1622  30F9               	movlw	low ((STR_163+4)| (0+32768))
  6546  1623  00F6               	movwf	print_screen@bottom
  6547  1624  3093               	movlw	high ((STR_163+4)| (0+32768))
  6548  1625  00F7               	movwf	print_screen@bottom+1
  6549  1626  3182  221A  3195   	fcall	_print_screen
  6550                           
  6551                           ;newmain1.c: 1219: ADC_val = ADC_get_val(0b01011101);
  6552  1629  305D               	movlw	93
  6553  162A  3184  2486  3195   	fcall	_ADC_get_val
  6554  162D  0871               	movf	?_ADC_get_val+1,w
  6555  162E  0020               	movlb	0	; select bank0
  6556  162F  00A3               	movwf	_ADC_val+1
  6557  1630  0870               	movf	?_ADC_get_val,w
  6558  1631  00A2               	movwf	_ADC_val
  6559                           
  6560                           ;newmain1.c: 1221: if(ADC_val < 533)
  6561  1632  3002               	movlw	2
  6562  1633  0223               	subwf	_ADC_val+1,w
  6563  1634  3015               	movlw	21
  6564  1635  1903               	skipnz
  6565  1636  0222               	subwf	_ADC_val,w
  6566  1637  1803               	skipnc
  6567  1638  2E44               	goto	l3754
  6568                           
  6569                           ;newmain1.c: 1222: {
  6570                           ;newmain1.c: 1223: print_error("24V Voltage", "Too Low");
  6571  1639  30B2               	movlw	low (STR_27| (0+32768))
  6572  163A  00F8               	movwf	print_error@top
  6573  163B  3092               	movlw	high (STR_27| (0+32768))
  6574  163C  00F9               	movwf	print_error@top+1
  6575  163D  30CE               	movlw	low (STR_24| (0+32768))
  6576  163E  00FA               	movwf	print_error@bottom
  6577  163F  3093               	movlw	high (STR_24| (0+32768))
  6578  1640  00FB               	movwf	print_error@bottom+1
  6579  1641  3182  223C  3195   	fcall	_print_error
  6580  1644                     l3754:	
  6581                           
  6582                           ;newmain1.c: 1224: }
  6583                           ;newmain1.c: 1225: if(ADC_val > 572)
  6584  1644  3002               	movlw	2
  6585  1645  0020               	movlb	0	; select bank0
  6586  1646  0223               	subwf	_ADC_val+1,w
  6587  1647  303D               	movlw	61
  6588  1648  1903               	skipnz
  6589  1649  0222               	subwf	_ADC_val,w
  6590  164A  1C03               	skipc
  6591  164B  2E57               	goto	l429
  6592                           
  6593                           ;newmain1.c: 1226: {
  6594                           ;newmain1.c: 1227: print_error("24V Voltage", "Too High");
  6595  164C  30B2               	movlw	low (STR_27| (0+32768))
  6596  164D  00F8               	movwf	print_error@top
  6597  164E  3092               	movlw	high (STR_27| (0+32768))
  6598  164F  00F9               	movwf	print_error@top+1
  6599  1650  309B               	movlw	low (STR_20| (0+32768))
  6600  1651  00FA               	movwf	print_error@bottom
  6601  1652  3093               	movlw	high (STR_20| (0+32768))
  6602  1653  00FB               	movwf	print_error@bottom+1
  6603  1654  3182  223C  3195   	fcall	_print_error
  6604  1657                     l429:	
  6605                           
  6606                           ;newmain1.c: 1228: }
  6607                           ;newmain1.c: 1237: print_screen("Measuring 5v", "");
  6608  1657  308C               	movlw	low (STR_31| (0+32768))
  6609  1658  00F4               	movwf	print_screen@top
  6610  1659  3092               	movlw	high (STR_31| (0+32768))
  6611  165A  00F5               	movwf	print_screen@top+1
  6612  165B  30F9               	movlw	low ((STR_163+4)| (0+32768))
  6613  165C  00F6               	movwf	print_screen@bottom
  6614  165D  3093               	movlw	high ((STR_163+4)| (0+32768))
  6615  165E  00F7               	movwf	print_screen@bottom+1
  6616  165F  3182  221A  3195   	fcall	_print_screen
  6617                           
  6618                           ;newmain1.c: 1239: ADC_val = ADC_get_val(0b01100001);
  6619  1662  3061               	movlw	97
  6620  1663  3184  2486         	fcall	_ADC_get_val
  6621  1665  0871               	movf	?_ADC_get_val+1,w
  6622  1666  3187  2F6B         	ljmp	L20
  6623                           
  6624                           	psect	maintext_split_3
  6625  076B                     L20:	
  6626  076B  0020               	movlb	0	; select bank0
  6627  076C  00A3               	movwf	_ADC_val+1
  6628  076D  0870               	movf	?_ADC_get_val,w
  6629  076E  00A2               	movwf	_ADC_val
  6630                           
  6631                           ;newmain1.c: 1241: if(ADC_val < 110)
  6632  076F  3000               	movlw	0
  6633  0770  0223               	subwf	_ADC_val+1,w
  6634  0771  306E               	movlw	110
  6635  0772  1903               	skipnz
  6636  0773  0222               	subwf	_ADC_val,w
  6637  0774  1803               	skipnc
  6638  0775  2F81               	goto	l3764
  6639                           
  6640                           ;newmain1.c: 1242: {
  6641                           ;newmain1.c: 1243: print_error("5V Voltage", "Too Low");
  6642  0776  3012               	movlw	low (STR_33| (0+32768))
  6643  0777  00F8               	movwf	print_error@top
  6644  0778  3093               	movlw	high (STR_33| (0+32768))
  6645  0779  00F9               	movwf	print_error@top+1
  6646  077A  30CE               	movlw	low (STR_24| (0+32768))
  6647  077B  00FA               	movwf	print_error@bottom
  6648  077C  3093               	movlw	high (STR_24| (0+32768))
  6649  077D  00FB               	movwf	print_error@bottom+1
  6650  077E  3182  223C  3187   	fcall	_print_error
  6651  0781                     l3764:	
  6652                           
  6653                           ;newmain1.c: 1244: }
  6654                           ;newmain1.c: 1245: if(ADC_val > 133)
  6655  0781  3000               	movlw	0
  6656  0782  0020               	movlb	0	; select bank0
  6657  0783  0223               	subwf	_ADC_val+1,w
  6658  0784  3086               	movlw	134
  6659  0785  1903               	skipnz
  6660  0786  0222               	subwf	_ADC_val,w
  6661  0787  1C03               	skipc
  6662  0788  2F94               	goto	l431
  6663                           
  6664                           ;newmain1.c: 1246: {
  6665                           ;newmain1.c: 1247: print_error("5V Voltage", "Too High");
  6666  0789  3012               	movlw	low (STR_33| (0+32768))
  6667  078A  00F8               	movwf	print_error@top
  6668  078B  3093               	movlw	high (STR_33| (0+32768))
  6669  078C  00F9               	movwf	print_error@top+1
  6670  078D  309B               	movlw	low (STR_20| (0+32768))
  6671  078E  00FA               	movwf	print_error@bottom
  6672  078F  3093               	movlw	high (STR_20| (0+32768))
  6673  0790  00FB               	movwf	print_error@bottom+1
  6674  0791  3182  223C  3187   	fcall	_print_error
  6675  0794                     l431:	
  6676                           
  6677                           ;newmain1.c: 1248: }
  6678                           ;newmain1.c: 1257: print_screen("Measuring 3.3v", "");
  6679  0794  3026               	movlw	low (STR_37| (0+32768))
  6680  0795  00F4               	movwf	print_screen@top
  6681  0796  3091               	movlw	high (STR_37| (0+32768))
  6682  0797  00F5               	movwf	print_screen@top+1
  6683  0798  30F9               	movlw	low ((STR_163+4)| (0+32768))
  6684  0799  00F6               	movwf	print_screen@bottom
  6685  079A  3093               	movlw	high ((STR_163+4)| (0+32768))
  6686  079B  00F7               	movwf	print_screen@bottom+1
  6687  079C  3182  221A  3187   	fcall	_print_screen
  6688                           
  6689                           ;newmain1.c: 1259: ADC_val = ADC_get_val(0b01100101);
  6690  079F  3065               	movlw	101
  6691  07A0  3184  2486  3187   	fcall	_ADC_get_val
  6692  07A3  0871               	movf	?_ADC_get_val+1,w
  6693  07A4  0020               	movlb	0	; select bank0
  6694  07A5  00A3               	movwf	_ADC_val+1
  6695  07A6  0870               	movf	?_ADC_get_val,w
  6696  07A7  00A2               	movwf	_ADC_val
  6697                           
  6698                           ;newmain1.c: 1261: if(ADC_val < 73)
  6699  07A8  3000               	movlw	0
  6700  07A9  0223               	subwf	_ADC_val+1,w
  6701  07AA  3049               	movlw	73
  6702  07AB  1903               	skipnz
  6703  07AC  0222               	subwf	_ADC_val,w
  6704  07AD  1803               	skipnc
  6705  07AE  2FBA               	goto	l3774
  6706                           
  6707                           ;newmain1.c: 1262: {
  6708                           ;newmain1.c: 1263: print_error("3.3V Voltage", "Too Low");
  6709  07AF  3065               	movlw	low (STR_39| (0+32768))
  6710  07B0  00F8               	movwf	print_error@top
  6711  07B1  3092               	movlw	high (STR_39| (0+32768))
  6712  07B2  00F9               	movwf	print_error@top+1
  6713  07B3  30CE               	movlw	low (STR_24| (0+32768))
  6714  07B4  00FA               	movwf	print_error@bottom
  6715  07B5  3093               	movlw	high (STR_24| (0+32768))
  6716  07B6  00FB               	movwf	print_error@bottom+1
  6717  07B7  3182  223C  3187   	fcall	_print_error
  6718  07BA                     l3774:	
  6719                           
  6720                           ;newmain1.c: 1264: }
  6721                           ;newmain1.c: 1265: if(ADC_val > 94)
  6722  07BA  3000               	movlw	0
  6723  07BB  0020               	movlb	0	; select bank0
  6724  07BC  0223               	subwf	_ADC_val+1,w
  6725  07BD  305F               	movlw	95
  6726  07BE  1903               	skipnz
  6727  07BF  0222               	subwf	_ADC_val,w
  6728  07C0  1C03               	skipc
  6729  07C1  2FCD               	goto	l433
  6730                           
  6731                           ;newmain1.c: 1266: {
  6732                           ;newmain1.c: 1267: print_error("3.3V Voltage", "Too High");
  6733  07C2  3065               	movlw	low (STR_39| (0+32768))
  6734  07C3  00F8               	movwf	print_error@top
  6735  07C4  3092               	movlw	high (STR_39| (0+32768))
  6736  07C5  00F9               	movwf	print_error@top+1
  6737  07C6  309B               	movlw	low (STR_20| (0+32768))
  6738  07C7  00FA               	movwf	print_error@bottom
  6739  07C8  3093               	movlw	high (STR_20| (0+32768))
  6740  07C9  00FB               	movwf	print_error@bottom+1
  6741  07CA  3182  223C  3187   	fcall	_print_error
  6742  07CD                     l433:	
  6743                           
  6744                           ;newmain1.c: 1268: }
  6745                           ;newmain1.c: 1277: print_screen("Programming", "Bypassed");
  6746  07CD  30CA               	movlw	low (STR_43| (0+32768))
  6747  07CE  00F4               	movwf	print_screen@top
  6748  07CF  3092               	movlw	high (STR_43| (0+32768))
  6749  07D0  00F5               	movwf	print_screen@top+1
  6750  07D1  3089               	movlw	low (STR_44| (0+32768))
  6751  07D2  00F6               	movwf	print_screen@bottom
  6752  07D3  3093               	movlw	high (STR_44| (0+32768))
  6753  07D4  00F7               	movwf	print_screen@bottom+1
  6754  07D5  3182  221A  3187   	fcall	_print_screen
  6755                           
  6756                           ;newmain1.c: 1280: print_screen("Programming..", "");
  6757  07D8  3044               	movlw	low (STR_45| (0+32768))
  6758  07D9  00F4               	movwf	print_screen@top
  6759  07DA  3091               	movlw	high (STR_45| (0+32768))
  6760  07DB  00F5               	movwf	print_screen@top+1
  6761  07DC  30F9               	movlw	low ((STR_163+4)| (0+32768))
  6762  07DD  00F6               	movwf	print_screen@bottom
  6763  07DE  3093               	movlw	high ((STR_163+4)| (0+32768))
  6764  07DF  00F7               	movwf	print_screen@bottom+1
  6765  07E0  3182  221A  3187   	fcall	_print_screen
  6766                           
  6767                           ;newmain1.c: 1282: pickit_state = pickit_start;
  6768  07E3  0020               	movlb	0	; select bank0
  6769  07E4  01C1               	clrf	_pickit_state
  6770  07E5  0AC1               	incf	_pickit_state,f
  6771  07E6                     l3780:	
  6772                           
  6773                           ;newmain1.c: 1285: {
  6774                           ;newmain1.c: 1286: if(pickit_state == pickit_error)
  6775  07E6  3005               	movlw	5
  6776  07E7  0641               	xorwf	_pickit_state,w
  6777  07E8  1D03               	btfss	3,2
  6778  07E9  2FF4               	goto	l3784
  6779                           
  6780                           ;newmain1.c: 1287: {
  6781                           ;newmain1.c: 1288: print_error("Programming", "ERROR");
  6782  07EA  30CA               	movlw	low (STR_43| (0+32768))
  6783  07EB  00F8               	movwf	print_error@top
  6784  07EC  3092               	movlw	high (STR_43| (0+32768))
  6785  07ED  00F9               	movwf	print_error@top+1
  6786  07EE  30DD               	movlw	low (STR_48| (0+32768))
  6787  07EF  00FA               	movwf	print_error@bottom
  6788  07F0  3093               	movlw	high (STR_48| (0+32768))
  6789  07F1  00FB               	movwf	print_error@bottom+1
  6790  07F2  3182  223C         	fcall	_print_error
  6791  07F4                     l3784:	
  6792  07F4  3185  2DB8         	ljmp	L21
  6793                           
  6794                           	psect	maintext_split_4
  6795  05B8                     L21:	
  6796                           
  6797                           ;newmain1.c: 1289: }
  6798                           ;newmain1.c: 1291: if( pickit_state == pickit_idle)
  6799  05B8  3006               	movlw	6
  6800  05B9  0020               	movlb	0	; select bank0
  6801  05BA  0641               	xorwf	_pickit_state,w
  6802  05BB  3187  1D03         	btfss	3,2
  6803  05BD  2FE6               	goto	l3780
  6804                           
  6805                           ;newmain1.c: 1294: }
  6806                           ;newmain1.c: 1295: }
  6807                           ;newmain1.c: 1297: print_screen("Programming", "Done");
  6808  05BE  30CA               	movlw	low (STR_43| (0+32768))
  6809  05BF  00F4               	movwf	print_screen@top
  6810  05C0  3092               	movlw	high (STR_43| (0+32768))
  6811  05C1  00F5               	movwf	print_screen@top+1
  6812  05C2  30FA               	movlw	low (STR_50| (0+32768))
  6813  05C3  00F6               	movwf	print_screen@bottom
  6814  05C4  3093               	movlw	high (STR_50| (0+32768))
  6815  05C5  00F7               	movwf	print_screen@bottom+1
  6816  05C6  3182  221A  3185   	fcall	_print_screen
  6817                           
  6818                           ;newmain1.c: 1300: _delay((unsigned long)((1000)*(16000000/4000.0)));
  6819  05C9  3015               	movlw	21
  6820  05CA  0020               	movlb	0	; select bank0
  6821  05CB  00E7               	movwf	??_main+2
  6822  05CC  304B               	movlw	75
  6823  05CD  00E6               	movwf	??_main+1
  6824  05CE  30D1               	movlw	209
  6825  05CF  00E5               	movwf	??_main
  6826  05D0                     u3477:	
  6827  05D0  0BE5               	decfsz	??_main,f
  6828  05D1  2DD0               	goto	u3477
  6829  05D2  0BE6               	decfsz	??_main+1,f
  6830  05D3  2DD0               	goto	u3477
  6831  05D4  0BE7               	decfsz	??_main+2,f
  6832  05D5  2DD0               	goto	u3477
  6833  05D6  0000               	nop
  6834                           
  6835                           ;newmain1.c: 1303: init_uart2();
  6836  05D7  3194  2420  3185   	fcall	_init_uart2
  6837                           
  6838                           ;newmain1.c: 1304: init_uart1();
  6839  05DA  3194  242B  3185   	fcall	_init_uart1
  6840                           
  6841                           ;newmain1.c: 1306: _delay((unsigned long)((300)*(16000000/4000.0)));
  6842  05DD  3007               	movlw	7
  6843  05DE  0020               	movlb	0	; select bank0
  6844  05DF  00E7               	movwf	??_main+2
  6845  05E0  3017               	movlw	23
  6846  05E1  00E6               	movwf	??_main+1
  6847  05E2  306F               	movlw	111
  6848  05E3  00E5               	movwf	??_main
  6849  05E4                     u3487:	
  6850  05E4  0BE5               	decfsz	??_main,f
  6851  05E5  2DE4               	goto	u3487
  6852  05E6  0BE6               	decfsz	??_main+1,f
  6853  05E7  2DE4               	goto	u3487
  6854  05E8  0BE7               	decfsz	??_main+2,f
  6855  05E9  2DE4               	goto	u3487
  6856  05EA  0000               	nop
  6857                           
  6858                           ;newmain1.c: 1309: send_usart_packet_manage(128, 128);
  6859  05EB  3080               	movlw	128
  6860  05EC  00F1               	movwf	send_usart_packet_manage@Data_carry
  6861  05ED  01F2               	clrf	send_usart_packet_manage@Data_carry+1
  6862  05EE  3188  2036  3185   	fcall	_send_usart_packet_manage
  6863                           
  6864                           ;newmain1.c: 1310: Data_Temp_Work_int = receive_data_bytes(1000);
  6865  05F1  30E8               	movlw	232
  6866  05F2  00FC               	movwf	receive_data_bytes@time_out_first_byte
  6867  05F3  3003               	movlw	3
  6868  05F4  00FD               	movwf	receive_data_bytes@time_out_first_byte+1
  6869  05F5  3180  20C9  3185   	fcall	_receive_data_bytes
  6870  05F8  087D               	movf	?_receive_data_bytes+1,w
  6871  05F9  00A5               	movwf	_Data_Temp_Work_int+1
  6872  05FA  087C               	movf	?_receive_data_bytes,w
  6873  05FB  00A4               	movwf	_Data_Temp_Work_int
  6874                           
  6875                           ;newmain1.c: 1314: if(Data_Temp_Work_int > 622)
  6876  05FC  3002               	movlw	2
  6877  05FD  0225               	subwf	_Data_Temp_Work_int+1,w
  6878  05FE  306F               	movlw	111
  6879  05FF  1903               	skipnz
  6880  0600  0224               	subwf	_Data_Temp_Work_int,w
  6881  0601  1C03               	skipc
  6882  0602  2E0E               	goto	l3806
  6883                           
  6884                           ;newmain1.c: 1315: {
  6885                           ;newmain1.c: 1316: print_error("V1 Voltage b", "Too High");
  6886  0603  303E               	movlw	low (STR_51| (0+32768))
  6887  0604  00F8               	movwf	print_error@top
  6888  0605  3092               	movlw	high (STR_51| (0+32768))
  6889  0606  00F9               	movwf	print_error@top+1
  6890  0607  309B               	movlw	low (STR_20| (0+32768))
  6891  0608  00FA               	movwf	print_error@bottom
  6892  0609  3093               	movlw	high (STR_20| (0+32768))
  6893  060A  00FB               	movwf	print_error@bottom+1
  6894  060B  3182  223C  3185   	fcall	_print_error
  6895  060E                     l3806:	
  6896                           
  6897                           ;newmain1.c: 1317: }
  6898                           ;newmain1.c: 1318: if(Data_Temp_Work_int < 553)
  6899  060E  3002               	movlw	2
  6900  060F  0020               	movlb	0	; select bank0
  6901  0610  0225               	subwf	_Data_Temp_Work_int+1,w
  6902  0611  3029               	movlw	41
  6903  0612  1903               	skipnz
  6904  0613  0224               	subwf	_Data_Temp_Work_int,w
  6905  0614  1803               	skipnc
  6906  0615  2E21               	goto	l3810
  6907                           
  6908                           ;newmain1.c: 1319: {
  6909                           ;newmain1.c: 1320: print_error("V1 Voltage b", "Too Low");
  6910  0616  303E               	movlw	low (STR_51| (0+32768))
  6911  0617  00F8               	movwf	print_error@top
  6912  0618  3092               	movlw	high (STR_51| (0+32768))
  6913  0619  00F9               	movwf	print_error@top+1
  6914  061A  30CE               	movlw	low (STR_24| (0+32768))
  6915  061B  00FA               	movwf	print_error@bottom
  6916  061C  3093               	movlw	high (STR_24| (0+32768))
  6917  061D  00FB               	movwf	print_error@bottom+1
  6918  061E  3182  223C  3185   	fcall	_print_error
  6919  0621                     l3810:	
  6920                           
  6921                           ;newmain1.c: 1321: }
  6922                           ;newmain1.c: 1326: LATB6 = 1;
  6923  0621  0022               	movlb	2	; select bank2
  6924  0622  170D               	bsf	13,6	;volatile
  6925                           
  6926                           ;newmain1.c: 1327: LATB4 = 1;
  6927  0623  160D               	bsf	13,4	;volatile
  6928                           
  6929                           ;newmain1.c: 1330: _delay((unsigned long)((200)*(16000000/4000.0)));
  6930  0624  3005               	movlw	5
  6931  0625  0020               	movlb	0	; select bank0
  6932  0626  00E7               	movwf	??_main+2
  6933  0627  300F               	movlw	15
  6934  0628  00E6               	movwf	??_main+1
  6935  0629  30F4               	movlw	244
  6936  062A  00E5               	movwf	??_main
  6937  062B                     u3497:	
  6938  062B  0BE5               	decfsz	??_main,f
  6939  062C  2E2B               	goto	u3497
  6940  062D  0BE6               	decfsz	??_main+1,f
  6941  062E  2E2B               	goto	u3497
  6942  062F  0BE7               	decfsz	??_main+2,f
  6943  0630  2E2B               	goto	u3497
  6944                           
  6945                           ;newmain1.c: 1339: ADC_val = ADC_get_val(0b01110101);
  6946  0631  3075               	movlw	117
  6947  0632  3184  2486  3185   	fcall	_ADC_get_val
  6948  0635  0871               	movf	?_ADC_get_val+1,w
  6949  0636  0020               	movlb	0	; select bank0
  6950  0637  00A3               	movwf	_ADC_val+1
  6951  0638  0870               	movf	?_ADC_get_val,w
  6952  0639  00A2               	movwf	_ADC_val
  6953                           
  6954                           ;newmain1.c: 1341: if(ADC_val > 646)
  6955  063A  3002               	movlw	2
  6956  063B  0223               	subwf	_ADC_val+1,w
  6957  063C  3087               	movlw	135
  6958  063D  1903               	skipnz
  6959  063E  0222               	subwf	_ADC_val,w
  6960  063F  1C03               	skipc
  6961  0640  2E4B               	goto	l3822
  6962                           
  6963                           ;newmain1.c: 1342: {
  6964                           ;newmain1.c: 1343: print_error("Charge Err", "Voltage to High");
  6965  0641  301D               	movlw	low (STR_55| (0+32768))
  6966  0642  00F8               	movwf	print_error@top
  6967  0643  3093               	movlw	high (STR_55| (0+32768))
  6968  0644  00F9               	movwf	print_error@top+1
  6969  0645  307C               	movlw	low (STR_56| (0+32768))
  6970  0646  00FA               	movwf	print_error@bottom
  6971  0647  3090               	movlw	high (STR_56| (0+32768))
  6972  0648  00FB               	movwf	print_error@bottom+1
  6973  0649  3182  223C         	fcall	_print_error
  6974  064B                     l3822:	
  6975  064B  3186  2E4D         	ljmp	L22
  6976                           
  6977                           	psect	maintext_split_5
  6978  064D                     L22:	
  6979                           
  6980                           ;newmain1.c: 1344: }
  6981                           ;newmain1.c: 1346: if(ADC_val < 618)
  6982  064D  3002               	movlw	2
  6983  064E  0020               	movlb	0	; select bank0
  6984  064F  0223               	subwf	_ADC_val+1,w
  6985  0650  306A               	movlw	106
  6986  0651  1903               	skipnz
  6987  0652  0222               	subwf	_ADC_val,w
  6988  0653  1803               	skipnc
  6989  0654  2E60               	goto	l3826
  6990                           
  6991                           ;newmain1.c: 1347: {
  6992                           ;newmain1.c: 1348: print_error("Charge Err", "Voltage to Low");
  6993  0655  301D               	movlw	low (STR_55| (0+32768))
  6994  0656  00F8               	movwf	print_error@top
  6995  0657  3093               	movlw	high (STR_55| (0+32768))
  6996  0658  00F9               	movwf	print_error@top+1
  6997  0659  3035               	movlw	low (STR_58| (0+32768))
  6998  065A  00FA               	movwf	print_error@bottom
  6999  065B  3091               	movlw	high (STR_58| (0+32768))
  7000  065C  00FB               	movwf	print_error@bottom+1
  7001  065D  3182  223C  3186   	fcall	_print_error
  7002  0660                     l3826:	
  7003                           
  7004                           ;newmain1.c: 1358: }
  7005                           ;newmain1.c: 1361: LATB6 = 0;
  7006  0660  0022               	movlb	2	; select bank2
  7007  0661  130D               	bcf	13,6	;volatile
  7008                           
  7009                           ;newmain1.c: 1362: LATB4 = 0;
  7010  0662  120D               	bcf	13,4	;volatile
  7011                           
  7012                           ;newmain1.c: 1365: _delay((unsigned long)((200)*(16000000/4000.0)));
  7013  0663  3005               	movlw	5
  7014  0664  0020               	movlb	0	; select bank0
  7015  0665  00E7               	movwf	??_main+2
  7016  0666  300F               	movlw	15
  7017  0667  00E6               	movwf	??_main+1
  7018  0668  30F4               	movlw	244
  7019  0669  00E5               	movwf	??_main
  7020  066A                     u3507:	
  7021  066A  0BE5               	decfsz	??_main,f
  7022  066B  2E6A               	goto	u3507
  7023  066C  0BE6               	decfsz	??_main+1,f
  7024  066D  2E6A               	goto	u3507
  7025  066E  0BE7               	decfsz	??_main+2,f
  7026  066F  2E6A               	goto	u3507
  7027                           
  7028                           ;newmain1.c: 1377: send_usart_packet_manage(129, 129);
  7029  0670  3081               	movlw	129
  7030  0671  00F1               	movwf	send_usart_packet_manage@Data_carry
  7031  0672  01F2               	clrf	send_usart_packet_manage@Data_carry+1
  7032  0673  3188  2036  3186   	fcall	_send_usart_packet_manage
  7033                           
  7034                           ;newmain1.c: 1378: Data_Temp_Work_int = receive_data_bytes(1000);
  7035  0676  30E8               	movlw	232
  7036  0677  00FC               	movwf	receive_data_bytes@time_out_first_byte
  7037  0678  3003               	movlw	3
  7038  0679  00FD               	movwf	receive_data_bytes@time_out_first_byte+1
  7039  067A  3180  20C9  3186   	fcall	_receive_data_bytes
  7040  067D  087D               	movf	?_receive_data_bytes+1,w
  7041  067E  00A5               	movwf	_Data_Temp_Work_int+1
  7042  067F  087C               	movf	?_receive_data_bytes,w
  7043  0680  00A4               	movwf	_Data_Temp_Work_int
  7044                           
  7045                           ;newmain1.c: 1380: if(Data_Temp_Work_int > 516)
  7046  0681  3002               	movlw	2
  7047  0682  0225               	subwf	_Data_Temp_Work_int+1,w
  7048  0683  3005               	movlw	5
  7049  0684  1903               	skipnz
  7050  0685  0224               	subwf	_Data_Temp_Work_int,w
  7051  0686  1C03               	skipc
  7052  0687  2E93               	goto	l3840
  7053                           
  7054                           ;newmain1.c: 1381: {
  7055                           ;newmain1.c: 1382: print_error("V2 SENSE", "Too High");
  7056  0688  3077               	movlw	low (STR_59| (0+32768))
  7057  0689  00F8               	movwf	print_error@top
  7058  068A  3093               	movlw	high (STR_59| (0+32768))
  7059  068B  00F9               	movwf	print_error@top+1
  7060  068C  309B               	movlw	low (STR_20| (0+32768))
  7061  068D  00FA               	movwf	print_error@bottom
  7062  068E  3093               	movlw	high (STR_20| (0+32768))
  7063  068F  00FB               	movwf	print_error@bottom+1
  7064  0690  3182  223C  3186   	fcall	_print_error
  7065  0693                     l3840:	
  7066                           
  7067                           ;newmain1.c: 1383: }
  7068                           ;newmain1.c: 1384: if(Data_Temp_Work_int < 495)
  7069  0693  3001               	movlw	1
  7070  0694  0020               	movlb	0	; select bank0
  7071  0695  0225               	subwf	_Data_Temp_Work_int+1,w
  7072  0696  30EF               	movlw	239
  7073  0697  1903               	skipnz
  7074  0698  0224               	subwf	_Data_Temp_Work_int,w
  7075  0699  1803               	skipnc
  7076  069A  2EA6               	goto	l3844
  7077                           
  7078                           ;newmain1.c: 1385: {
  7079                           ;newmain1.c: 1386: print_error("V2 SENSE", "Too Low");
  7080  069B  3077               	movlw	low (STR_59| (0+32768))
  7081  069C  00F8               	movwf	print_error@top
  7082  069D  3093               	movlw	high (STR_59| (0+32768))
  7083  069E  00F9               	movwf	print_error@top+1
  7084  069F  30CE               	movlw	low (STR_24| (0+32768))
  7085  06A0  00FA               	movwf	print_error@bottom
  7086  06A1  3093               	movlw	high (STR_24| (0+32768))
  7087  06A2  00FB               	movwf	print_error@bottom+1
  7088  06A3  3182  223C  3186   	fcall	_print_error
  7089  06A6                     l3844:	
  7090                           
  7091                           ;newmain1.c: 1387: }
  7092                           ;newmain1.c: 1403: send_usart_packet_manage(130, 130);
  7093  06A6  3082               	movlw	130
  7094  06A7  00F1               	movwf	send_usart_packet_manage@Data_carry
  7095  06A8  01F2               	clrf	send_usart_packet_manage@Data_carry+1
  7096  06A9  3188  2036  3186   	fcall	_send_usart_packet_manage
  7097                           
  7098                           ;newmain1.c: 1404: Data_Temp_Work_int = receive_data_bytes(1000);
  7099  06AC  30E8               	movlw	232
  7100  06AD  00FC               	movwf	receive_data_bytes@time_out_first_byte
  7101  06AE  3003               	movlw	3
  7102  06AF  00FD               	movwf	receive_data_bytes@time_out_first_byte+1
  7103  06B0  3180  20C9  3186   	fcall	_receive_data_bytes
  7104  06B3  087D               	movf	?_receive_data_bytes+1,w
  7105  06B4  00A5               	movwf	_Data_Temp_Work_int+1
  7106  06B5  087C               	movf	?_receive_data_bytes,w
  7107  06B6  00A4               	movwf	_Data_Temp_Work_int
  7108                           
  7109                           ;newmain1.c: 1408: if(Data_Temp_Work_int > 451)
  7110  06B7  3001               	movlw	1
  7111  06B8  0225               	subwf	_Data_Temp_Work_int+1,w
  7112  06B9  30C4               	movlw	196
  7113  06BA  1903               	skipnz
  7114  06BB  0224               	subwf	_Data_Temp_Work_int,w
  7115  06BC  1C03               	skipc
  7116  06BD  2EC9               	goto	l3852
  7117                           
  7118                           ;newmain1.c: 1409: {
  7119                           ;newmain1.c: 1410: print_error("24V SENSE", "Too High");
  7120  06BE  3032               	movlw	low (STR_63| (0+32768))
  7121  06BF  00F8               	movwf	print_error@top
  7122  06C0  3093               	movlw	high (STR_63| (0+32768))
  7123  06C1  00F9               	movwf	print_error@top+1
  7124  06C2  309B               	movlw	low (STR_20| (0+32768))
  7125  06C3  00FA               	movwf	print_error@bottom
  7126  06C4  3093               	movlw	high (STR_20| (0+32768))
  7127  06C5  00FB               	movwf	print_error@bottom+1
  7128  06C6  3182  223C  3186   	fcall	_print_error
  7129  06C9                     l3852:	
  7130                           
  7131                           ;newmain1.c: 1411: }
  7132                           ;newmain1.c: 1412: if(Data_Temp_Work_int < 416)
  7133  06C9  3001               	movlw	1
  7134  06CA  0020               	movlb	0	; select bank0
  7135  06CB  0225               	subwf	_Data_Temp_Work_int+1,w
  7136  06CC  30A0               	movlw	160
  7137  06CD  1903               	skipnz
  7138  06CE  0224               	subwf	_Data_Temp_Work_int,w
  7139  06CF  1803               	skipnc
  7140  06D0  2EDB               	goto	l3856
  7141                           
  7142                           ;newmain1.c: 1413: {
  7143                           ;newmain1.c: 1414: print_error("24V SENSE", "Too Low");
  7144  06D1  3032               	movlw	low (STR_63| (0+32768))
  7145  06D2  00F8               	movwf	print_error@top
  7146  06D3  3093               	movlw	high (STR_63| (0+32768))
  7147  06D4  00F9               	movwf	print_error@top+1
  7148  06D5  30CE               	movlw	low (STR_24| (0+32768))
  7149  06D6  00FA               	movwf	print_error@bottom
  7150  06D7  3093               	movlw	high (STR_24| (0+32768))
  7151  06D8  00FB               	movwf	print_error@bottom+1
  7152  06D9  3182  223C         	fcall	_print_error
  7153  06DB                     l3856:	
  7154  06DB  3196  2E68         	ljmp	L23
  7155                           
  7156                           	psect	maintext_split_6
  7157  1668                     L23:	
  7158                           
  7159                           ;newmain1.c: 1415: }
  7160                           ;newmain1.c: 1419: LATG4 = 0;
  7161  1668  0027               	movlb	7	; select bank7
  7162  1669  120D               	bcf	13,4	;volatile
  7163                           
  7164                           ;newmain1.c: 1421: _delay((unsigned long)((300)*(16000000/4000.0)));
  7165  166A  3007               	movlw	7
  7166  166B  0020               	movlb	0	; select bank0
  7167  166C  00E7               	movwf	??_main+2
  7168  166D  3017               	movlw	23
  7169  166E  00E6               	movwf	??_main+1
  7170  166F  306F               	movlw	111
  7171  1670  00E5               	movwf	??_main
  7172  1671                     u3517:	
  7173  1671  0BE5               	decfsz	??_main,f
  7174  1672  2E71               	goto	u3517
  7175  1673  0BE6               	decfsz	??_main+1,f
  7176  1674  2E71               	goto	u3517
  7177  1675  0BE7               	decfsz	??_main+2,f
  7178  1676  2E71               	goto	u3517
  7179  1677  0000               	nop
  7180                           
  7181                           ;newmain1.c: 1423: send_usart_packet_manage(133, 133);
  7182  1678  3085               	movlw	133
  7183  1679  00F1               	movwf	send_usart_packet_manage@Data_carry
  7184  167A  01F2               	clrf	send_usart_packet_manage@Data_carry+1
  7185  167B  3188  2036  3196   	fcall	_send_usart_packet_manage
  7186                           
  7187                           ;newmain1.c: 1424: Data_Temp_Work_int = receive_data_bytes(1000);
  7188  167E  30E8               	movlw	232
  7189  167F  00FC               	movwf	receive_data_bytes@time_out_first_byte
  7190  1680  3003               	movlw	3
  7191  1681  00FD               	movwf	receive_data_bytes@time_out_first_byte+1
  7192  1682  3180  20C9  3196   	fcall	_receive_data_bytes
  7193  1685  087D               	movf	?_receive_data_bytes+1,w
  7194  1686  00A5               	movwf	_Data_Temp_Work_int+1
  7195  1687  087C               	movf	?_receive_data_bytes,w
  7196  1688  00A4               	movwf	_Data_Temp_Work_int
  7197                           
  7198                           ;newmain1.c: 1429: if(Data_Temp_Work_int < 1010)
  7199  1689  3003               	movlw	3
  7200  168A  0225               	subwf	_Data_Temp_Work_int+1,w
  7201  168B  30F2               	movlw	242
  7202  168C  1903               	skipnz
  7203  168D  0224               	subwf	_Data_Temp_Work_int,w
  7204  168E  1803               	skipnc
  7205  168F  2E9B               	goto	l3868
  7206                           
  7207                           ;newmain1.c: 1430: {
  7208                           ;newmain1.c: 1431: print_error("Beam Input Err", "Not released");
  7209  1690  3008               	movlw	low (STR_67| (0+32768))
  7210  1691  00F8               	movwf	print_error@top
  7211  1692  3091               	movlw	high (STR_67| (0+32768))
  7212  1693  00F9               	movwf	print_error@top+1
  7213  1694  3058               	movlw	low (STR_68| (0+32768))
  7214  1695  00FA               	movwf	print_error@bottom
  7215  1696  3092               	movlw	high (STR_68| (0+32768))
  7216  1697  00FB               	movwf	print_error@bottom+1
  7217  1698  3182  223C  3196   	fcall	_print_error
  7218  169B                     l3868:	
  7219                           
  7220                           ;newmain1.c: 1432: }
  7221                           ;newmain1.c: 1434: LATG4 = 1;
  7222  169B  0027               	movlb	7	; select bank7
  7223  169C  160D               	bsf	13,4	;volatile
  7224                           
  7225                           ;newmain1.c: 1436: _delay((unsigned long)((300)*(16000000/4000.0)));
  7226  169D  3007               	movlw	7
  7227  169E  0020               	movlb	0	; select bank0
  7228  169F  00E7               	movwf	??_main+2
  7229  16A0  3017               	movlw	23
  7230  16A1  00E6               	movwf	??_main+1
  7231  16A2  306F               	movlw	111
  7232  16A3  00E5               	movwf	??_main
  7233  16A4                     u3527:	
  7234  16A4  0BE5               	decfsz	??_main,f
  7235  16A5  2EA4               	goto	u3527
  7236  16A6  0BE6               	decfsz	??_main+1,f
  7237  16A7  2EA4               	goto	u3527
  7238  16A8  0BE7               	decfsz	??_main+2,f
  7239  16A9  2EA4               	goto	u3527
  7240  16AA  0000               	nop
  7241                           
  7242                           ;newmain1.c: 1438: send_usart_packet_manage(133, 133);
  7243  16AB  3085               	movlw	133
  7244  16AC  00F1               	movwf	send_usart_packet_manage@Data_carry
  7245  16AD  01F2               	clrf	send_usart_packet_manage@Data_carry+1
  7246  16AE  3188  2036  3196   	fcall	_send_usart_packet_manage
  7247                           
  7248                           ;newmain1.c: 1439: Data_Temp_Work_int = receive_data_bytes(1000);
  7249  16B1  30E8               	movlw	232
  7250  16B2  00FC               	movwf	receive_data_bytes@time_out_first_byte
  7251  16B3  3003               	movlw	3
  7252  16B4  00FD               	movwf	receive_data_bytes@time_out_first_byte+1
  7253  16B5  3180  20C9  3196   	fcall	_receive_data_bytes
  7254  16B8  087D               	movf	?_receive_data_bytes+1,w
  7255  16B9  00A5               	movwf	_Data_Temp_Work_int+1
  7256  16BA  087C               	movf	?_receive_data_bytes,w
  7257  16BB  00A4               	movwf	_Data_Temp_Work_int
  7258                           
  7259                           ;newmain1.c: 1441: if(Data_Temp_Work_int > 28)
  7260  16BC  3000               	movlw	0
  7261  16BD  0225               	subwf	_Data_Temp_Work_int+1,w
  7262  16BE  301D               	movlw	29
  7263  16BF  1903               	skipnz
  7264  16C0  0224               	subwf	_Data_Temp_Work_int,w
  7265  16C1  1C03               	skipc
  7266  16C2  2ECE               	goto	l3880
  7267                           
  7268                           ;newmain1.c: 1442: {
  7269                           ;newmain1.c: 1443: print_error("Beam Input Err", "V High");
  7270  16C3  3008               	movlw	low (STR_67| (0+32768))
  7271  16C4  00F8               	movwf	print_error@top
  7272  16C5  3091               	movlw	high (STR_67| (0+32768))
  7273  16C6  00F9               	movwf	print_error@top+1
  7274  16C7  30D6               	movlw	low (STR_70| (0+32768))
  7275  16C8  00FA               	movwf	print_error@bottom
  7276  16C9  3093               	movlw	high (STR_70| (0+32768))
  7277  16CA  00FB               	movwf	print_error@bottom+1
  7278  16CB  3182  223C  3196   	fcall	_print_error
  7279  16CE                     l3880:	
  7280                           
  7281                           ;newmain1.c: 1444: }
  7282                           ;newmain1.c: 1445: if(Data_Temp_Work_int < 18)
  7283  16CE  3000               	movlw	0
  7284  16CF  0020               	movlb	0	; select bank0
  7285  16D0  0225               	subwf	_Data_Temp_Work_int+1,w
  7286  16D1  3012               	movlw	18
  7287  16D2  1903               	skipnz
  7288  16D3  0224               	subwf	_Data_Temp_Work_int,w
  7289  16D4  1803               	skipnc
  7290  16D5  2EE1               	goto	l3884
  7291                           
  7292                           ;newmain1.c: 1446: {
  7293                           ;newmain1.c: 1447: print_error("Beam Input Err", "V Low");
  7294  16D6  3008               	movlw	low (STR_67| (0+32768))
  7295  16D7  00F8               	movwf	print_error@top
  7296  16D8  3091               	movlw	high (STR_67| (0+32768))
  7297  16D9  00F9               	movwf	print_error@top+1
  7298  16DA  30EF               	movlw	low (STR_72| (0+32768))
  7299  16DB  00FA               	movwf	print_error@bottom
  7300  16DC  3093               	movlw	high (STR_72| (0+32768))
  7301  16DD  00FB               	movwf	print_error@bottom+1
  7302  16DE  3182  223C  3196   	fcall	_print_error
  7303  16E1                     l3884:	
  7304                           
  7305                           ;newmain1.c: 1448: }
  7306                           ;newmain1.c: 1450: LATG4 = 0;
  7307  16E1  0027               	movlb	7	; select bank7
  7308  16E2  120D               	bcf	13,4	;volatile
  7309                           
  7310                           ;newmain1.c: 1453: print_screen("Testing", "All io's high");
  7311  16E3  30C6               	movlw	low (STR_73| (0+32768))
  7312  16E4  00F4               	movwf	print_screen@top
  7313  16E5  3093               	movlw	high (STR_73| (0+32768))
  7314  16E6  00F5               	movwf	print_screen@top+1
  7315  16E7  30C2               	movlw	low (STR_74| (0+32768))
  7316  16E8  00F6               	movwf	print_screen@bottom
  7317  16E9  3091               	movlw	high (STR_74| (0+32768))
  7318  16EA  00F7               	movwf	print_screen@bottom+1
  7319  16EB  3182  221A         	fcall	_print_screen
  7320                           
  7321                           ;newmain1.c: 1455: send_usart_packet_manage(148, 148);
  7322  16ED  3094               	movlw	148
  7323  16EE  3186  2EDD         	ljmp	L24
  7324                           
  7325                           	psect	maintext_split_7
  7326  06DD                     L24:	
  7327  06DD  00F1               	movwf	send_usart_packet_manage@Data_carry
  7328  06DE  01F2               	clrf	send_usart_packet_manage@Data_carry+1
  7329  06DF  3188  2036  3186   	fcall	_send_usart_packet_manage
  7330                           
  7331                           ;newmain1.c: 1456: Data_Temp_Work_int = receive_data_bytes(1000);
  7332  06E2  30E8               	movlw	232
  7333  06E3  00FC               	movwf	receive_data_bytes@time_out_first_byte
  7334  06E4  3003               	movlw	3
  7335  06E5  00FD               	movwf	receive_data_bytes@time_out_first_byte+1
  7336  06E6  3180  20C9  3186   	fcall	_receive_data_bytes
  7337  06E9  087D               	movf	?_receive_data_bytes+1,w
  7338  06EA  00A5               	movwf	_Data_Temp_Work_int+1
  7339  06EB  087C               	movf	?_receive_data_bytes,w
  7340  06EC  00A4               	movwf	_Data_Temp_Work_int
  7341                           
  7342                           ;newmain1.c: 1463: if(!!((Data_Temp_Work_int) & (1<<(0))) != 1)
  7343  06ED  1824               	btfsc	_Data_Temp_Work_int,0
  7344  06EE  2EFA               	goto	l3894
  7345                           
  7346                           ;newmain1.c: 1464: {
  7347                           ;newmain1.c: 1465: print_error("Error", "Encoder Input");
  7348  06EF  30E3               	movlw	low (STR_15| (0+32768))
  7349  06F0  00F8               	movwf	print_error@top
  7350  06F1  3093               	movlw	high (STR_15| (0+32768))
  7351  06F2  00F9               	movwf	print_error@top+1
  7352  06F3  3008               	movlw	low (STR_76| (0+32768))
  7353  06F4  00FA               	movwf	print_error@bottom
  7354  06F5  3092               	movlw	high (STR_76| (0+32768))
  7355  06F6  00FB               	movwf	print_error@bottom+1
  7356  06F7  3182  223C  3186   	fcall	_print_error
  7357  06FA                     l3894:	
  7358                           
  7359                           ;newmain1.c: 1466: }
  7360                           ;newmain1.c: 1468: if(!!((Data_Temp_Work_int) & (1<<(1))) != 1)
  7361  06FA  0020               	movlb	0	; select bank0
  7362  06FB  18A4               	btfsc	_Data_Temp_Work_int,1
  7363  06FC  2F08               	goto	l3898
  7364                           
  7365                           ;newmain1.c: 1469: {
  7366                           ;newmain1.c: 1470: print_error("Error", "Ecan Rx Input");
  7367  06FD  30E3               	movlw	low (STR_15| (0+32768))
  7368  06FE  00F8               	movwf	print_error@top
  7369  06FF  3093               	movlw	high (STR_15| (0+32768))
  7370  0700  00F9               	movwf	print_error@top+1
  7371  0701  3016               	movlw	low (STR_78| (0+32768))
  7372  0702  00FA               	movwf	print_error@bottom
  7373  0703  3092               	movlw	high (STR_78| (0+32768))
  7374  0704  00FB               	movwf	print_error@bottom+1
  7375  0705  3182  223C  3186   	fcall	_print_error
  7376  0708                     l3898:	
  7377                           
  7378                           ;newmain1.c: 1471: }
  7379                           ;newmain1.c: 1473: if(!!((Data_Temp_Work_int) & (1<<(2))) != 1)
  7380  0708  0020               	movlb	0	; select bank0
  7381  0709  1924               	btfsc	_Data_Temp_Work_int,2
  7382  070A  2F16               	goto	l3902
  7383                           
  7384                           ;newmain1.c: 1474: {
  7385                           ;newmain1.c: 1475: print_error("Error", "Butt Up Input");
  7386  070B  30E3               	movlw	low (STR_15| (0+32768))
  7387  070C  00F8               	movwf	print_error@top
  7388  070D  3093               	movlw	high (STR_15| (0+32768))
  7389  070E  00F9               	movwf	print_error@top+1
  7390  070F  30FA               	movlw	low (STR_80| (0+32768))
  7391  0710  00FA               	movwf	print_error@bottom
  7392  0711  3091               	movlw	high (STR_80| (0+32768))
  7393  0712  00FB               	movwf	print_error@bottom+1
  7394  0713  3182  223C  3186   	fcall	_print_error
  7395  0716                     l3902:	
  7396                           
  7397                           ;newmain1.c: 1476: }
  7398                           ;newmain1.c: 1478: if(!!((Data_Temp_Work_int) & (1<<(3))) != 1)
  7399  0716  0020               	movlb	0	; select bank0
  7400  0717  19A4               	btfsc	_Data_Temp_Work_int,3
  7401  0718  2F24               	goto	l3906
  7402                           
  7403                           ;newmain1.c: 1479: {
  7404                           ;newmain1.c: 1480: print_error("Error", "Butt Down Input");
  7405  0719  30E3               	movlw	low (STR_15| (0+32768))
  7406  071A  00F8               	movwf	print_error@top
  7407  071B  3093               	movlw	high (STR_15| (0+32768))
  7408  071C  00F9               	movwf	print_error@top+1
  7409  071D  30BC               	movlw	low (STR_82| (0+32768))
  7410  071E  00FA               	movwf	print_error@bottom
  7411  071F  3090               	movlw	high (STR_82| (0+32768))
  7412  0720  00FB               	movwf	print_error@bottom+1
  7413  0721  3182  223C  3186   	fcall	_print_error
  7414  0724                     l3906:	
  7415                           
  7416                           ;newmain1.c: 1481: }
  7417                           ;newmain1.c: 1488: if(!!((Data_Temp_Work_int) & (1<<(5))) != 1)
  7418  0724  0020               	movlb	0	; select bank0
  7419  0725  1AA4               	btfsc	_Data_Temp_Work_int,5
  7420  0726  2F32               	goto	l3910
  7421                           
  7422                           ;newmain1.c: 1489: {
  7423                           ;newmain1.c: 1490: print_error("Error", "Limit Input");
  7424  0727  30E3               	movlw	low (STR_15| (0+32768))
  7425  0728  00F8               	movwf	print_error@top
  7426  0729  3093               	movlw	high (STR_15| (0+32768))
  7427  072A  00F9               	movwf	print_error@top+1
  7428  072B  3006               	movlw	low (STR_84| (0+32768))
  7429  072C  00FA               	movwf	print_error@bottom
  7430  072D  3093               	movlw	high (STR_84| (0+32768))
  7431  072E  00FB               	movwf	print_error@bottom+1
  7432  072F  3182  223C  3186   	fcall	_print_error
  7433  0732                     l3910:	
  7434                           
  7435                           ;newmain1.c: 1491: }
  7436                           ;newmain1.c: 1493: if(!!((Data_Temp_Work_int) & (1<<(6))) != 1)
  7437  0732  0020               	movlb	0	; select bank0
  7438  0733  1B24               	btfsc	_Data_Temp_Work_int,6
  7439  0734  2F40               	goto	l3914
  7440                           
  7441                           ;newmain1.c: 1494: {
  7442                           ;newmain1.c: 1495: print_error("Error", "Bt Input");
  7443  0735  30E3               	movlw	low (STR_15| (0+32768))
  7444  0736  00F8               	movwf	print_error@top
  7445  0737  3093               	movlw	high (STR_15| (0+32768))
  7446  0738  00F9               	movwf	print_error@top+1
  7447  0739  30AD               	movlw	low (STR_86| (0+32768))
  7448  073A  00FA               	movwf	print_error@bottom
  7449  073B  3093               	movlw	high (STR_86| (0+32768))
  7450  073C  00FB               	movwf	print_error@bottom+1
  7451  073D  3182  223C  3186   	fcall	_print_error
  7452  0740                     l3914:	
  7453                           
  7454                           ;newmain1.c: 1496: }
  7455                           ;newmain1.c: 1501: LATG0=1;
  7456  0740  0027               	movlb	7	; select bank7
  7457  0741  140D               	bsf	13,0	;volatile
  7458                           
  7459                           ;newmain1.c: 1503: _delay((unsigned long)((10)*(16000000/4000.0)));
  7460  0742  3034               	movlw	52
  7461  0743  0020               	movlb	0	; select bank0
  7462  0744  00E6               	movwf	??_main+1
  7463  0745  30F1               	movlw	241
  7464  0746  00E5               	movwf	??_main
  7465  0747                     u3537:	
  7466  0747  0BE5               	decfsz	??_main,f
  7467  0748  2F47               	goto	u3537
  7468  0749  0BE6               	decfsz	??_main+1,f
  7469  074A  2F47               	goto	u3537
  7470  074B  3200               	nop2
  7471                           
  7472                           ;newmain1.c: 1505: send_usart_packet_manage(148, 148);
  7473  074C  3094               	movlw	148
  7474  074D  00F1               	movwf	send_usart_packet_manage@Data_carry
  7475  074E  01F2               	clrf	send_usart_packet_manage@Data_carry+1
  7476  074F  3188  2036  3186   	fcall	_send_usart_packet_manage
  7477                           
  7478                           ;newmain1.c: 1506: Data_Temp_Work_int = receive_data_bytes(1000);
  7479  0752  30E8               	movlw	232
  7480  0753  00FC               	movwf	receive_data_bytes@time_out_first_byte
  7481  0754  3003               	movlw	3
  7482  0755  00FD               	movwf	receive_data_bytes@time_out_first_byte+1
  7483  0756  3180  20C9  3186   	fcall	_receive_data_bytes
  7484  0759  087D               	movf	?_receive_data_bytes+1,w
  7485  075A  00A5               	movwf	_Data_Temp_Work_int+1
  7486  075B  087C               	movf	?_receive_data_bytes,w
  7487  075C  00A4               	movwf	_Data_Temp_Work_int
  7488                           
  7489                           ;newmain1.c: 1511: if(!!((Data_Temp_Work_int) & (1<<(6))) != 0)
  7490  075D  1F24               	btfss	_Data_Temp_Work_int,6
  7491  075E  2F69               	goto	l3926
  7492                           
  7493                           ;newmain1.c: 1512: {
  7494                           ;newmain1.c: 1513: print_error("Error", "Bt Input");
  7495  075F  30E3               	movlw	low (STR_15| (0+32768))
  7496  0760  00F8               	movwf	print_error@top
  7497  0761  3093               	movlw	high (STR_15| (0+32768))
  7498  0762  00F9               	movwf	print_error@top+1
  7499  0763  30AD               	movlw	low (STR_86| (0+32768))
  7500  0764  00FA               	movwf	print_error@bottom
  7501  0765  3093               	movlw	high (STR_86| (0+32768))
  7502  0766  00FB               	movwf	print_error@bottom+1
  7503  0767  3182  223C         	fcall	_print_error
  7504  0769                     l3926:	
  7505  0769  3188  286C         	ljmp	L25
  7506                           
  7507                           	psect	maintext_split_8
  7508  086C                     L25:	
  7509                           
  7510                           ;newmain1.c: 1514: }
  7511                           ;newmain1.c: 1516: LATG0=0;
  7512  086C  0027               	movlb	7	; select bank7
  7513  086D  100D               	bcf	13,0	;volatile
  7514                           
  7515                           ;newmain1.c: 1519: LATG3 = 1;
  7516  086E  158D               	bsf	13,3	;volatile
  7517                           
  7518                           ;newmain1.c: 1521: _delay((unsigned long)((10)*(16000000/4000.0)));
  7519  086F  3034               	movlw	52
  7520  0870  0020               	movlb	0	; select bank0
  7521  0871  00E6               	movwf	??_main+1
  7522  0872  30F1               	movlw	241
  7523  0873  00E5               	movwf	??_main
  7524  0874                     u3547:	
  7525  0874  0BE5               	decfsz	??_main,f
  7526  0875  2874               	goto	u3547
  7527  0876  0BE6               	decfsz	??_main+1,f
  7528  0877  2874               	goto	u3547
  7529  0878  3200               	nop2
  7530                           
  7531                           ;newmain1.c: 1523: send_usart_packet_manage(148, 148);
  7532  0879  3094               	movlw	148
  7533  087A  00F1               	movwf	send_usart_packet_manage@Data_carry
  7534  087B  01F2               	clrf	send_usart_packet_manage@Data_carry+1
  7535  087C  3188  2036  3188   	fcall	_send_usart_packet_manage
  7536                           
  7537                           ;newmain1.c: 1524: Data_Temp_Work_int = receive_data_bytes(1000);
  7538  087F  30E8               	movlw	232
  7539  0880  00FC               	movwf	receive_data_bytes@time_out_first_byte
  7540  0881  3003               	movlw	3
  7541  0882  00FD               	movwf	receive_data_bytes@time_out_first_byte+1
  7542  0883  3180  20C9  3188   	fcall	_receive_data_bytes
  7543  0886  087D               	movf	?_receive_data_bytes+1,w
  7544  0887  00A5               	movwf	_Data_Temp_Work_int+1
  7545  0888  087C               	movf	?_receive_data_bytes,w
  7546  0889  00A4               	movwf	_Data_Temp_Work_int
  7547                           
  7548                           ;newmain1.c: 1529: if(!!((Data_Temp_Work_int) & (1<<(5))) != 0)
  7549  088A  1EA4               	btfss	_Data_Temp_Work_int,5
  7550  088B  2897               	goto	l3940
  7551                           
  7552                           ;newmain1.c: 1530: {
  7553                           ;newmain1.c: 1531: print_error("Error", "Limit Input");
  7554  088C  30E3               	movlw	low (STR_15| (0+32768))
  7555  088D  00F8               	movwf	print_error@top
  7556  088E  3093               	movlw	high (STR_15| (0+32768))
  7557  088F  00F9               	movwf	print_error@top+1
  7558  0890  3006               	movlw	low (STR_84| (0+32768))
  7559  0891  00FA               	movwf	print_error@bottom
  7560  0892  3093               	movlw	high (STR_84| (0+32768))
  7561  0893  00FB               	movwf	print_error@bottom+1
  7562  0894  3182  223C  3188   	fcall	_print_error
  7563  0897                     l3940:	
  7564                           
  7565                           ;newmain1.c: 1532: }
  7566                           ;newmain1.c: 1534: LATG3=0;
  7567  0897  0027               	movlb	7	; select bank7
  7568  0898  118D               	bcf	13,3	;volatile
  7569                           
  7570                           ;newmain1.c: 1537: LATF7 = 1;
  7571  0899  178C               	bsf	12,7	;volatile
  7572                           
  7573                           ;newmain1.c: 1539: _delay((unsigned long)((10)*(16000000/4000.0)));
  7574  089A  3034               	movlw	52
  7575  089B  0020               	movlb	0	; select bank0
  7576  089C  00E6               	movwf	??_main+1
  7577  089D  30F1               	movlw	241
  7578  089E  00E5               	movwf	??_main
  7579  089F                     u3557:	
  7580  089F  0BE5               	decfsz	??_main,f
  7581  08A0  289F               	goto	u3557
  7582  08A1  0BE6               	decfsz	??_main+1,f
  7583  08A2  289F               	goto	u3557
  7584  08A3  3200               	nop2
  7585                           
  7586                           ;newmain1.c: 1541: send_usart_packet_manage(148, 148);
  7587  08A4  3094               	movlw	148
  7588  08A5  00F1               	movwf	send_usart_packet_manage@Data_carry
  7589  08A6  01F2               	clrf	send_usart_packet_manage@Data_carry+1
  7590  08A7  3188  2036  3188   	fcall	_send_usart_packet_manage
  7591                           
  7592                           ;newmain1.c: 1542: Data_Temp_Work_int = receive_data_bytes(1000);
  7593  08AA  30E8               	movlw	232
  7594  08AB  00FC               	movwf	receive_data_bytes@time_out_first_byte
  7595  08AC  3003               	movlw	3
  7596  08AD  00FD               	movwf	receive_data_bytes@time_out_first_byte+1
  7597  08AE  3180  20C9  3188   	fcall	_receive_data_bytes
  7598  08B1  087D               	movf	?_receive_data_bytes+1,w
  7599  08B2  00A5               	movwf	_Data_Temp_Work_int+1
  7600  08B3  087C               	movf	?_receive_data_bytes,w
  7601  08B4  00A4               	movwf	_Data_Temp_Work_int
  7602                           
  7603                           ;newmain1.c: 1547: if(!!((Data_Temp_Work_int) & (1<<(0))) != 0)
  7604  08B5  1C24               	btfss	_Data_Temp_Work_int,0
  7605  08B6  28C2               	goto	l3954
  7606                           
  7607                           ;newmain1.c: 1548: {
  7608                           ;newmain1.c: 1549: print_error("Error", "Encoder Input");
  7609  08B7  30E3               	movlw	low (STR_15| (0+32768))
  7610  08B8  00F8               	movwf	print_error@top
  7611  08B9  3093               	movlw	high (STR_15| (0+32768))
  7612  08BA  00F9               	movwf	print_error@top+1
  7613  08BB  3008               	movlw	low (STR_76| (0+32768))
  7614  08BC  00FA               	movwf	print_error@bottom
  7615  08BD  3092               	movlw	high (STR_76| (0+32768))
  7616  08BE  00FB               	movwf	print_error@bottom+1
  7617  08BF  3182  223C  3188   	fcall	_print_error
  7618  08C2                     l3954:	
  7619                           
  7620                           ;newmain1.c: 1550: }
  7621                           ;newmain1.c: 1552: LATF7 = 0;
  7622  08C2  0027               	movlb	7	; select bank7
  7623  08C3  138C               	bcf	12,7	;volatile
  7624                           
  7625                           ;newmain1.c: 1555: _delay((unsigned long)((10)*(16000000/4000.0)));
  7626  08C4  3034               	movlw	52
  7627  08C5  0020               	movlb	0	; select bank0
  7628  08C6  00E6               	movwf	??_main+1
  7629  08C7  30F1               	movlw	241
  7630  08C8  00E5               	movwf	??_main
  7631  08C9                     u3567:	
  7632  08C9  0BE5               	decfsz	??_main,f
  7633  08CA  28C9               	goto	u3567
  7634  08CB  0BE6               	decfsz	??_main+1,f
  7635  08CC  28C9               	goto	u3567
  7636  08CD  3200               	nop2
  7637                           
  7638                           ;newmain1.c: 1557: send_usart_packet_manage(134, 2);
  7639  08CE  3002               	movlw	2
  7640  08CF  00F1               	movwf	send_usart_packet_manage@Data_carry
  7641  08D0  3086               	movlw	134
  7642  08D1  01F2               	clrf	send_usart_packet_manage@Data_carry+1
  7643  08D2  3188  2036  3188   	fcall	_send_usart_packet_manage
  7644                           
  7645                           ;newmain1.c: 1558: Data_Temp_Work_int = receive_data_bytes(1000);
  7646  08D5  30E8               	movlw	232
  7647  08D6  00FC               	movwf	receive_data_bytes@time_out_first_byte
  7648  08D7  3003               	movlw	3
  7649  08D8  00FD               	movwf	receive_data_bytes@time_out_first_byte+1
  7650  08D9  3180  20C9  3188   	fcall	_receive_data_bytes
  7651  08DC  087D               	movf	?_receive_data_bytes+1,w
  7652  08DD  00A5               	movwf	_Data_Temp_Work_int+1
  7653  08DE  087C               	movf	?_receive_data_bytes,w
  7654  08DF  00A4               	movwf	_Data_Temp_Work_int
  7655                           
  7656                           ;newmain1.c: 1562: _delay((unsigned long)((10)*(16000000/4000.0)));
  7657  08E0  3034               	movlw	52
  7658  08E1  00E6               	movwf	??_main+1
  7659  08E2  30F1               	movlw	241
  7660  08E3  00E5               	movwf	??_main
  7661  08E4                     u3577:	
  7662  08E4  0BE5               	decfsz	??_main,f
  7663  08E5  28E4               	goto	u3577
  7664  08E6  0BE6               	decfsz	??_main+1,f
  7665  08E7  28E4               	goto	u3577
  7666  08E8  3200               	nop2
  7667                           
  7668                           ;newmain1.c: 1564: send_usart_packet_manage(148, 148);
  7669  08E9  3094               	movlw	148
  7670  08EA  00F1               	movwf	send_usart_packet_manage@Data_carry
  7671  08EB  01F2               	clrf	send_usart_packet_manage@Data_carry+1
  7672  08EC  3188  2036  3188   	fcall	_send_usart_packet_manage
  7673                           
  7674                           ;newmain1.c: 1565: Data_Temp_Work_int = receive_data_bytes(1000);
  7675  08EF  30E8               	movlw	232
  7676  08F0  00FC               	movwf	receive_data_bytes@time_out_first_byte
  7677  08F1  3003               	movlw	3
  7678  08F2  00FD               	movwf	receive_data_bytes@time_out_first_byte+1
  7679  08F3  3180  20C9  3188   	fcall	_receive_data_bytes
  7680  08F6  087D               	movf	?_receive_data_bytes+1,w
  7681  08F7  00A5               	movwf	_Data_Temp_Work_int+1
  7682  08F8  087C               	movf	?_receive_data_bytes,w
  7683  08F9  00A4               	movwf	_Data_Temp_Work_int
  7684                           
  7685                           ;newmain1.c: 1570: if(!!((Data_Temp_Work_int) & (1<<(1))) != 0)
  7686  08FA  1CA4               	btfss	_Data_Temp_Work_int,1
  7687  08FB  2907               	goto	l3970
  7688                           
  7689                           ;newmain1.c: 1571: {
  7690                           ;newmain1.c: 1572: print_error("Error", "Ecan Rx Input");
  7691  08FC  30E3               	movlw	low (STR_15| (0+32768))
  7692  08FD  00F8               	movwf	print_error@top
  7693  08FE  3093               	movlw	high (STR_15| (0+32768))
  7694  08FF  00F9               	movwf	print_error@top+1
  7695  0900  3016               	movlw	low (STR_78| (0+32768))
  7696  0901  00FA               	movwf	print_error@bottom
  7697  0902  3092               	movlw	high (STR_78| (0+32768))
  7698  0903  00FB               	movwf	print_error@bottom+1
  7699  0904  3182  223C  3188   	fcall	_print_error
  7700  0907                     l3970:	
  7701  0907  3086               	movlw	134
  7702                           
  7703                           ;newmain1.c: 1573: }
  7704                           ;newmain1.c: 1575: send_usart_packet_manage(134, 1);
  7705  0908  01F1               	clrf	send_usart_packet_manage@Data_carry
  7706  0909  0AF1               	incf	send_usart_packet_manage@Data_carry,f
  7707  090A  01F2               	clrf	send_usart_packet_manage@Data_carry+1
  7708  090B  3188  2036  3188   	fcall	_send_usart_packet_manage
  7709                           
  7710                           ;newmain1.c: 1576: Data_Temp_Work_int = receive_data_bytes(1000);
  7711  090E  30E8               	movlw	232
  7712  090F  00FC               	movwf	receive_data_bytes@time_out_first_byte
  7713  0910  3003               	movlw	3
  7714  0911  00FD               	movwf	receive_data_bytes@time_out_first_byte+1
  7715  0912  3180  20C9  3188   	fcall	_receive_data_bytes
  7716  0915  087D               	movf	?_receive_data_bytes+1,w
  7717  0916  00A5               	movwf	_Data_Temp_Work_int+1
  7718  0917  087C               	movf	?_receive_data_bytes,w
  7719  0918  00A4               	movwf	_Data_Temp_Work_int
  7720                           
  7721                           ;newmain1.c: 1578: _delay((unsigned long)((10)*(16000000/4000.0)));
  7722  0919  3034               	movlw	52
  7723  091A  00E6               	movwf	??_main+1
  7724  091B  30F1               	movlw	241
  7725  091C  00E5               	movwf	??_main
  7726  091D                     u3587:	
  7727  091D  0BE5               	decfsz	??_main,f
  7728  091E  291D               	goto	u3587
  7729  091F  0BE6               	decfsz	??_main+1,f
  7730  0920  291D               	goto	u3587
  7731  0921  3200               	nop2
  7732                           
  7733                           ;newmain1.c: 1582: print_screen("Press", "Up Button");
  7734  0922  30E9               	movlw	low (STR_95| (0+32768))
  7735  0923  00F4               	movwf	print_screen@top
  7736  0924  3093               	movlw	high (STR_95| (0+32768))
  7737  0925  00F5               	movwf	print_screen@top+1
  7738  0926  3050               	movlw	low (STR_96| (0+32768))
  7739  0927  00F6               	movwf	print_screen@bottom
  7740  0928  3093               	movlw	high (STR_96| (0+32768))
  7741  0929  00F7               	movwf	print_screen@bottom+1
  7742  092A  3182  221A  3188   	fcall	_print_screen
  7743  092D                     l3978:	
  7744                           
  7745                           ;newmain1.c: 1586: {
  7746                           ;newmain1.c: 1587: _delay((unsigned long)((10)*(16000000/4000.0)));
  7747  092D  3034               	movlw	52
  7748  092E  0020               	movlb	0	; select bank0
  7749  092F  00E6               	movwf	??_main+1
  7750  0930  30F1               	movlw	241
  7751  0931  00E5               	movwf	??_main
  7752  0932                     u3597:	
  7753  0932  0BE5               	decfsz	??_main,f
  7754  0933  2932               	goto	u3597
  7755  0934  0BE6               	decfsz	??_main+1,f
  7756  0935  2932               	goto	u3597
  7757  0936  3200               	nop2
  7758                           
  7759                           ;newmain1.c: 1588: send_usart_packet_manage(148, 148);
  7760  0937  3094               	movlw	148
  7761  0938  00F1               	movwf	send_usart_packet_manage@Data_carry
  7762  0939  01F2               	clrf	send_usart_packet_manage@Data_carry+1
  7763  093A  3188  2036  3188   	fcall	_send_usart_packet_manage
  7764                           
  7765                           ;newmain1.c: 1589: Data_Temp_Work_int = receive_data_bytes(1000);
  7766  093D  30E8               	movlw	232
  7767  093E  00FC               	movwf	receive_data_bytes@time_out_first_byte
  7768  093F  3003               	movlw	3
  7769  0940  00FD               	movwf	receive_data_bytes@time_out_first_byte+1
  7770  0941  3180  20C9  3188   	fcall	_receive_data_bytes
  7771  0944  087D               	movf	?_receive_data_bytes+1,w
  7772  0945  00A5               	movwf	_Data_Temp_Work_int+1
  7773  0946  087C               	movf	?_receive_data_bytes,w
  7774  0947  00A4               	movwf	_Data_Temp_Work_int
  7775                           
  7776                           ;newmain1.c: 1591: if(!!((Data_Temp_Work_int) & (1<<(2))) == 0)
  7777  0948  1924               	btfsc	_Data_Temp_Work_int,2
  7778  0949  292D               	goto	l3978
  7779  094A                     l3986:	
  7780                           
  7781                           ;newmain1.c: 1599: {
  7782                           ;newmain1.c: 1600: _delay((unsigned long)((10)*(16000000/4000.0)));
  7783  094A  3034               	movlw	52
  7784  094B  00E6               	movwf	??_main+1
  7785  094C  30F1               	movlw	241
  7786  094D  00E5               	movwf	??_main
  7787  094E                     u3607:	
  7788  094E  0BE5               	decfsz	??_main,f
  7789  094F  294E               	goto	u3607
  7790  0950  0BE6               	decfsz	??_main+1,f
  7791  0951  294E               	goto	u3607
  7792  0952  3200               	nop2
  7793                           
  7794                           ;newmain1.c: 1601: send_usart_packet_manage(148, 148);
  7795  0953  3094               	movlw	148
  7796  0954  00F1               	movwf	send_usart_packet_manage@Data_carry
  7797  0955  01F2               	clrf	send_usart_packet_manage@Data_carry+1
  7798  0956  3188  2036  3188   	fcall	_send_usart_packet_manage
  7799                           
  7800                           ;newmain1.c: 1602: Data_Temp_Work_int = receive_data_bytes(1000);
  7801  0959  30E8               	movlw	232
  7802  095A  00FC               	movwf	receive_data_bytes@time_out_first_byte
  7803  095B  3003               	movlw	3
  7804  095C  00FD               	movwf	receive_data_bytes@time_out_first_byte+1
  7805  095D  3180  20C9  3188   	fcall	_receive_data_bytes
  7806  0960  087D               	movf	?_receive_data_bytes+1,w
  7807  0961  00A5               	movwf	_Data_Temp_Work_int+1
  7808  0962  087C               	movf	?_receive_data_bytes,w
  7809  0963  00A4               	movwf	_Data_Temp_Work_int
  7810                           
  7811                           ;newmain1.c: 1604: if(!!((Data_Temp_Work_int) & (1<<(2))) == 1)
  7812  0964  1D24               	btfss	_Data_Temp_Work_int,2
  7813  0965  294A               	goto	l3986
  7814                           
  7815                           ;newmain1.c: 1607: }
  7816                           ;newmain1.c: 1608: }
  7817                           ;newmain1.c: 1611: print_screen("Press", "Down Butt");
  7818  0966  30E9               	movlw	low (STR_95| (0+32768))
  7819  0967  00F4               	movwf	print_screen@top
  7820  0968  3093               	movlw	high (STR_95| (0+32768))
  7821  0969  00F5               	movwf	print_screen@top+1
  7822  096A  30B2               	movlw	low ((STR_100+6)| (0+32768))
  7823  096B  00F6               	movwf	print_screen@bottom
  7824  096C  3090               	movlw	high ((STR_100+6)| (0+32768))
  7825  096D  00F7               	movwf	print_screen@bottom+1
  7826  096E  3182  221A  3188   	fcall	_print_screen
  7827  0971                     l3998:	
  7828                           
  7829                           ;newmain1.c: 1615: {
  7830                           ;newmain1.c: 1616: _delay((unsigned long)((10)*(16000000/4000.0)));
  7831  0971  3034               	movlw	52
  7832  0972  0020               	movlb	0	; select bank0
  7833  0973  00E6               	movwf	??_main+1
  7834  0974  30F1               	movlw	241
  7835  0975  00E5               	movwf	??_main
  7836  0976                     u3617:	
  7837  0976  0BE5               	decfsz	??_main,f
  7838  0977  2976               	goto	u3617
  7839  0978  0BE6               	decfsz	??_main+1,f
  7840  0979  2976               	goto	u3617
  7841  097A  3200               	nop2
  7842                           
  7843                           ;newmain1.c: 1617: send_usart_packet_manage(148, 148);
  7844  097B  3094               	movlw	148
  7845  097C  00F1               	movwf	send_usart_packet_manage@Data_carry
  7846  097D  01F2               	clrf	send_usart_packet_manage@Data_carry+1
  7847  097E  3188  2036  3188   	fcall	_send_usart_packet_manage
  7848                           
  7849                           ;newmain1.c: 1618: Data_Temp_Work_int = receive_data_bytes(1000);
  7850  0981  30E8               	movlw	232
  7851  0982  00FC               	movwf	receive_data_bytes@time_out_first_byte
  7852  0983  3003               	movlw	3
  7853  0984  00FD               	movwf	receive_data_bytes@time_out_first_byte+1
  7854  0985  3180  20C9  3188   	fcall	_receive_data_bytes
  7855  0988  087D               	movf	?_receive_data_bytes+1,w
  7856  0989  00A5               	movwf	_Data_Temp_Work_int+1
  7857  098A  087C               	movf	?_receive_data_bytes,w
  7858  098B  00A4               	movwf	_Data_Temp_Work_int
  7859                           
  7860                           ;newmain1.c: 1620: if(!!((Data_Temp_Work_int) & (1<<(3))) == 0)
  7861  098C  19A4               	btfsc	_Data_Temp_Work_int,3
  7862  098D  2971               	goto	l3998
  7863  098E                     l4008:	
  7864                           
  7865                           ;newmain1.c: 1628: {
  7866                           ;newmain1.c: 1629: _delay((unsigned long)((10)*(16000000/4000.0)));
  7867  098E  3034               	movlw	52
  7868  098F  00E6               	movwf	??_main+1
  7869  0990  30F1               	movlw	241
  7870  0991  00E5               	movwf	??_main
  7871  0992                     u3627:	
  7872  0992  0BE5               	decfsz	??_main,f
  7873  0993  2992               	goto	u3627
  7874  0994  0BE6               	decfsz	??_main+1,f
  7875  0995  2992               	goto	u3627
  7876  0996  3200               	nop2
  7877                           
  7878                           ;newmain1.c: 1630: send_usart_packet_manage(148, 148);
  7879  0997  3094               	movlw	148
  7880  0998  00F1               	movwf	send_usart_packet_manage@Data_carry
  7881  0999  01F2               	clrf	send_usart_packet_manage@Data_carry+1
  7882  099A  3188  2036  3188   	fcall	_send_usart_packet_manage
  7883                           
  7884                           ;newmain1.c: 1631: Data_Temp_Work_int = receive_data_bytes(1000);
  7885  099D  30E8               	movlw	232
  7886  099E  00FC               	movwf	receive_data_bytes@time_out_first_byte
  7887  099F  3003               	movlw	3
  7888  09A0  00FD               	movwf	receive_data_bytes@time_out_first_byte+1
  7889  09A1  3180  20C9  3188   	fcall	_receive_data_bytes
  7890  09A4  087D               	movf	?_receive_data_bytes+1,w
  7891  09A5  00A5               	movwf	_Data_Temp_Work_int+1
  7892  09A6  087C               	movf	?_receive_data_bytes,w
  7893  09A7  00A4               	movwf	_Data_Temp_Work_int
  7894                           
  7895                           ;newmain1.c: 1633: if(!!((Data_Temp_Work_int) & (1<<(3))) == 1)
  7896  09A8  1DA4               	btfss	_Data_Temp_Work_int,3
  7897  09A9  298E               	goto	l4008
  7898                           
  7899                           ;newmain1.c: 1636: }
  7900                           ;newmain1.c: 1637: }
  7901                           ;newmain1.c: 1640: print_screen("All Leds On?", "Press Down Butt");
  7902  09AA  3031               	movlw	low (STR_99| (0+32768))
  7903  09AB  00F4               	movwf	print_screen@top
  7904  09AC  3092               	movlw	high (STR_99| (0+32768))
  7905  09AD  00F5               	movwf	print_screen@top+1
  7906  09AE  30AC               	movlw	low (STR_100| (0+32768))
  7907  09AF  00F6               	movwf	print_screen@bottom
  7908  09B0  3090               	movlw	high (STR_100| (0+32768))
  7909  09B1  00F7               	movwf	print_screen@bottom+1
  7910  09B2  3182  221A  3188   	fcall	_print_screen
  7911                           
  7912                           ;newmain1.c: 1642: _delay((unsigned long)((10)*(16000000/4000.0)));
  7913  09B5  3034               	movlw	52
  7914  09B6  0020               	movlb	0	; select bank0
  7915  09B7  00E6               	movwf	??_main+1
  7916  09B8  30F1               	movlw	241
  7917  09B9  00E5               	movwf	??_main
  7918  09BA                     u3637:	
  7919  09BA  0BE5               	decfsz	??_main,f
  7920  09BB  29BA               	goto	u3637
  7921  09BC  0BE6               	decfsz	??_main+1,f
  7922  09BD  29BA               	goto	u3637
  7923  09BE  3200               	nop2
  7924                           
  7925                           ;newmain1.c: 1643: send_usart_packet_manage(135, 2);
  7926  09BF  3002               	movlw	2
  7927  09C0  00F1               	movwf	send_usart_packet_manage@Data_carry
  7928  09C1  3087               	movlw	135
  7929  09C2  01F2               	clrf	send_usart_packet_manage@Data_carry+1
  7930  09C3  3188  2036  3188   	fcall	_send_usart_packet_manage
  7931                           
  7932                           ;newmain1.c: 1644: Data_Temp_Work_int = receive_data_bytes(1000);
  7933  09C6  30E8               	movlw	232
  7934  09C7  00FC               	movwf	receive_data_bytes@time_out_first_byte
  7935  09C8  3003               	movlw	3
  7936  09C9  00FD               	movwf	receive_data_bytes@time_out_first_byte+1
  7937  09CA  3180  20C9  3188   	fcall	_receive_data_bytes
  7938  09CD  087D               	movf	?_receive_data_bytes+1,w
  7939  09CE  00A5               	movwf	_Data_Temp_Work_int+1
  7940  09CF  087C               	movf	?_receive_data_bytes,w
  7941  09D0  00A4               	movwf	_Data_Temp_Work_int
  7942                           
  7943                           ;newmain1.c: 1646: _delay((unsigned long)((10)*(16000000/4000.0)));
  7944  09D1  3034               	movlw	52
  7945  09D2  00E6               	movwf	??_main+1
  7946  09D3  30F1               	movlw	241
  7947  09D4  00E5               	movwf	??_main
  7948  09D5                     u3647:	
  7949  09D5  0BE5               	decfsz	??_main,f
  7950  09D6  29D5               	goto	u3647
  7951  09D7  0BE6               	decfsz	??_main+1,f
  7952  09D8  29D5               	goto	u3647
  7953  09D9  3200               	nop2
  7954                           
  7955                           ;newmain1.c: 1647: send_usart_packet_manage(136, 2);
  7956  09DA  3002               	movlw	2
  7957  09DB  00F1               	movwf	send_usart_packet_manage@Data_carry
  7958  09DC  3088               	movlw	136
  7959  09DD  01F2               	clrf	send_usart_packet_manage@Data_carry+1
  7960  09DE  3188  2036  3188   	fcall	_send_usart_packet_manage
  7961                           
  7962                           ;newmain1.c: 1648: Data_Temp_Work_int = receive_data_bytes(1000);
  7963  09E1  30E8               	movlw	232
  7964  09E2  00FC               	movwf	receive_data_bytes@time_out_first_byte
  7965  09E3  3003               	movlw	3
  7966  09E4  00FD               	movwf	receive_data_bytes@time_out_first_byte+1
  7967  09E5  3180  20C9  3188   	fcall	_receive_data_bytes
  7968  09E8  087D               	movf	?_receive_data_bytes+1,w
  7969  09E9  00A5               	movwf	_Data_Temp_Work_int+1
  7970  09EA  087C               	movf	?_receive_data_bytes,w
  7971  09EB  00A4               	movwf	_Data_Temp_Work_int
  7972                           
  7973                           ;newmain1.c: 1650: _delay((unsigned long)((10)*(16000000/4000.0)));
  7974  09EC  3034               	movlw	52
  7975  09ED  00E6               	movwf	??_main+1
  7976  09EE  30F1               	movlw	241
  7977  09EF  00E5               	movwf	??_main
  7978  09F0                     u3657:	
  7979  09F0  0BE5               	decfsz	??_main,f
  7980  09F1  29F0               	goto	u3657
  7981  09F2  0BE6               	decfsz	??_main+1,f
  7982  09F3  29F0               	goto	u3657
  7983  09F4  3200               	nop2
  7984                           
  7985                           ;newmain1.c: 1651: send_usart_packet_manage(137, 2);
  7986  09F5  3002               	movlw	2
  7987  09F6  00F1               	movwf	send_usart_packet_manage@Data_carry
  7988  09F7  3089               	movlw	137
  7989  09F8  01F2               	clrf	send_usart_packet_manage@Data_carry+1
  7990  09F9  3188  2036  3188   	fcall	_send_usart_packet_manage
  7991                           
  7992                           ;newmain1.c: 1652: Data_Temp_Work_int = receive_data_bytes(1000);
  7993  09FC  30E8               	movlw	232
  7994  09FD  00FC               	movwf	receive_data_bytes@time_out_first_byte
  7995  09FE  3003               	movlw	3
  7996  09FF  00FD               	movwf	receive_data_bytes@time_out_first_byte+1
  7997  0A00  3180  20C9  3188   	fcall	_receive_data_bytes
  7998  0A03  087D               	movf	?_receive_data_bytes+1,w
  7999  0A04  00A5               	movwf	_Data_Temp_Work_int+1
  8000  0A05  087C               	movf	?_receive_data_bytes,w
  8001  0A06  00A4               	movwf	_Data_Temp_Work_int
  8002                           
  8003                           ;newmain1.c: 1654: _delay((unsigned long)((10)*(16000000/4000.0)));
  8004  0A07  3034               	movlw	52
  8005  0A08  00E6               	movwf	??_main+1
  8006  0A09  30F1               	movlw	241
  8007  0A0A  00E5               	movwf	??_main
  8008  0A0B                     u3667:	
  8009  0A0B  0BE5               	decfsz	??_main,f
  8010  0A0C  2A0B               	goto	u3667
  8011  0A0D  0BE6               	decfsz	??_main+1,f
  8012  0A0E  2A0B               	goto	u3667
  8013  0A0F  3200               	nop2
  8014                           
  8015                           ;newmain1.c: 1655: send_usart_packet_manage(138, 2);
  8016  0A10  3002               	movlw	2
  8017  0A11  00F1               	movwf	send_usart_packet_manage@Data_carry
  8018  0A12  308A               	movlw	138
  8019  0A13  01F2               	clrf	send_usart_packet_manage@Data_carry+1
  8020  0A14  3188  2036  3188   	fcall	_send_usart_packet_manage
  8021                           
  8022                           ;newmain1.c: 1656: Data_Temp_Work_int = receive_data_bytes(1000);
  8023  0A17  30E8               	movlw	232
  8024  0A18  00FC               	movwf	receive_data_bytes@time_out_first_byte
  8025  0A19  3003               	movlw	3
  8026  0A1A  00FD               	movwf	receive_data_bytes@time_out_first_byte+1
  8027  0A1B  3180  20C9  3188   	fcall	_receive_data_bytes
  8028  0A1E  087D               	movf	?_receive_data_bytes+1,w
  8029  0A1F  00A5               	movwf	_Data_Temp_Work_int+1
  8030  0A20  087C               	movf	?_receive_data_bytes,w
  8031  0A21  00A4               	movwf	_Data_Temp_Work_int
  8032                           
  8033                           ;newmain1.c: 1658: _delay((unsigned long)((10)*(16000000/4000.0)));
  8034  0A22  3034               	movlw	52
  8035  0A23  00E6               	movwf	??_main+1
  8036  0A24  30F1               	movlw	241
  8037  0A25  00E5               	movwf	??_main
  8038  0A26                     u3677:	
  8039  0A26  0BE5               	decfsz	??_main,f
  8040  0A27  2A26               	goto	u3677
  8041  0A28  0BE6               	decfsz	??_main+1,f
  8042  0A29  2A26               	goto	u3677
  8043  0A2A  3200               	nop2
  8044                           
  8045                           ;newmain1.c: 1659: send_usart_packet_manage(143, 2);
  8046  0A2B  3002               	movlw	2
  8047  0A2C  00F1               	movwf	send_usart_packet_manage@Data_carry
  8048  0A2D  308F               	movlw	143
  8049  0A2E  01F2               	clrf	send_usart_packet_manage@Data_carry+1
  8050  0A2F  3188  2036  3188   	fcall	_send_usart_packet_manage
  8051                           
  8052                           ;newmain1.c: 1660: Data_Temp_Work_int = receive_data_bytes(1000);
  8053  0A32  30E8               	movlw	232
  8054  0A33  00FC               	movwf	receive_data_bytes@time_out_first_byte
  8055  0A34  3003               	movlw	3
  8056  0A35  00FD               	movwf	receive_data_bytes@time_out_first_byte+1
  8057  0A36  3180  20C9  3188   	fcall	_receive_data_bytes
  8058  0A39  087D               	movf	?_receive_data_bytes+1,w
  8059  0A3A  00A5               	movwf	_Data_Temp_Work_int+1
  8060  0A3B  087C               	movf	?_receive_data_bytes,w
  8061  0A3C  00A4               	movwf	_Data_Temp_Work_int
  8062                           
  8063                           ;newmain1.c: 1662: _delay((unsigned long)((10)*(16000000/4000.0)));
  8064  0A3D  3034               	movlw	52
  8065  0A3E  00E6               	movwf	??_main+1
  8066  0A3F  30F1               	movlw	241
  8067  0A40  00E5               	movwf	??_main
  8068  0A41                     u3687:	
  8069  0A41  0BE5               	decfsz	??_main,f
  8070  0A42  2A41               	goto	u3687
  8071  0A43  0BE6               	decfsz	??_main+1,f
  8072  0A44  2A41               	goto	u3687
  8073  0A45  3200               	nop2
  8074                           
  8075                           ;newmain1.c: 1663: send_usart_packet_manage(144, 2);
  8076  0A46  3002               	movlw	2
  8077  0A47  00F1               	movwf	send_usart_packet_manage@Data_carry
  8078  0A48  3090               	movlw	144
  8079  0A49  01F2               	clrf	send_usart_packet_manage@Data_carry+1
  8080  0A4A  3188  2036  3188   	fcall	_send_usart_packet_manage
  8081                           
  8082                           ;newmain1.c: 1664: Data_Temp_Work_int = receive_data_bytes(1000);
  8083  0A4D  30E8               	movlw	232
  8084  0A4E  00FC               	movwf	receive_data_bytes@time_out_first_byte
  8085  0A4F  3003               	movlw	3
  8086  0A50  00FD               	movwf	receive_data_bytes@time_out_first_byte+1
  8087  0A51  3180  20C9  3188   	fcall	_receive_data_bytes
  8088  0A54  087D               	movf	?_receive_data_bytes+1,w
  8089  0A55  00A5               	movwf	_Data_Temp_Work_int+1
  8090  0A56  087C               	movf	?_receive_data_bytes,w
  8091  0A57  00A4               	movwf	_Data_Temp_Work_int
  8092                           
  8093                           ;newmain1.c: 1666: _delay((unsigned long)((10)*(16000000/4000.0)));
  8094  0A58  3034               	movlw	52
  8095  0A59  00E6               	movwf	??_main+1
  8096  0A5A  30F1               	movlw	241
  8097  0A5B  00E5               	movwf	??_main
  8098  0A5C                     u3697:	
  8099  0A5C  0BE5               	decfsz	??_main,f
  8100  0A5D  2A5C               	goto	u3697
  8101  0A5E  0BE6               	decfsz	??_main+1,f
  8102  0A5F  2A5C               	goto	u3697
  8103  0A60  3200               	nop2
  8104                           
  8105                           ;newmain1.c: 1667: send_usart_packet_manage(145, 2);
  8106  0A61  3002               	movlw	2
  8107  0A62  00F1               	movwf	send_usart_packet_manage@Data_carry
  8108  0A63  3091               	movlw	145
  8109  0A64  01F2               	clrf	send_usart_packet_manage@Data_carry+1
  8110  0A65  3188  2036  3188   	fcall	_send_usart_packet_manage
  8111                           
  8112                           ;newmain1.c: 1668: Data_Temp_Work_int = receive_data_bytes(1000);
  8113  0A68  30E8               	movlw	232
  8114  0A69  00FC               	movwf	receive_data_bytes@time_out_first_byte
  8115  0A6A  3003               	movlw	3
  8116  0A6B  00FD               	movwf	receive_data_bytes@time_out_first_byte+1
  8117  0A6C  3180  20C9  3188   	fcall	_receive_data_bytes
  8118  0A6F  087D               	movf	?_receive_data_bytes+1,w
  8119  0A70  00A5               	movwf	_Data_Temp_Work_int+1
  8120  0A71  087C               	movf	?_receive_data_bytes,w
  8121  0A72  00A4               	movwf	_Data_Temp_Work_int
  8122  0A73                     l4054:	
  8123                           
  8124                           ;newmain1.c: 1673: {
  8125                           ;newmain1.c: 1674: _delay((unsigned long)((10)*(16000000/4000.0)));
  8126  0A73  3034               	movlw	52
  8127  0A74  00E6               	movwf	??_main+1
  8128  0A75  30F1               	movlw	241
  8129  0A76  00E5               	movwf	??_main
  8130  0A77                     u3707:	
  8131  0A77  0BE5               	decfsz	??_main,f
  8132  0A78  2A77               	goto	u3707
  8133  0A79  0BE6               	decfsz	??_main+1,f
  8134  0A7A  2A77               	goto	u3707
  8135  0A7B  3200               	nop2
  8136                           
  8137                           ;newmain1.c: 1675: send_usart_packet_manage(148, 148);
  8138  0A7C  3094               	movlw	148
  8139  0A7D  00F1               	movwf	send_usart_packet_manage@Data_carry
  8140  0A7E  01F2               	clrf	send_usart_packet_manage@Data_carry+1
  8141  0A7F  3188  2036  3188   	fcall	_send_usart_packet_manage
  8142                           
  8143                           ;newmain1.c: 1676: Data_Temp_Work_int = receive_data_bytes(1000);
  8144  0A82  30E8               	movlw	232
  8145  0A83  00FC               	movwf	receive_data_bytes@time_out_first_byte
  8146  0A84  3003               	movlw	3
  8147  0A85  00FD               	movwf	receive_data_bytes@time_out_first_byte+1
  8148  0A86  3180  20C9  3188   	fcall	_receive_data_bytes
  8149  0A89  087D               	movf	?_receive_data_bytes+1,w
  8150  0A8A  00A5               	movwf	_Data_Temp_Work_int+1
  8151  0A8B  087C               	movf	?_receive_data_bytes,w
  8152  0A8C  00A4               	movwf	_Data_Temp_Work_int
  8153                           
  8154                           ;newmain1.c: 1678: if(!!((Data_Temp_Work_int) & (1<<(3))) == 0)
  8155  0A8D  19A4               	btfsc	_Data_Temp_Work_int,3
  8156  0A8E  2A73               	goto	l4054
  8157  0A8F                     l4064:	
  8158                           
  8159                           ;newmain1.c: 1686: {
  8160                           ;newmain1.c: 1687: _delay((unsigned long)((10)*(16000000/4000.0)));
  8161  0A8F  3034               	movlw	52
  8162  0A90  00E6               	movwf	??_main+1
  8163  0A91  30F1               	movlw	241
  8164  0A92  00E5               	movwf	??_main
  8165  0A93                     u3717:	
  8166  0A93  0BE5               	decfsz	??_main,f
  8167  0A94  2A93               	goto	u3717
  8168  0A95  0BE6               	decfsz	??_main+1,f
  8169  0A96  2A93               	goto	u3717
  8170  0A97  3200               	nop2
  8171                           
  8172                           ;newmain1.c: 1688: send_usart_packet_manage(148, 148);
  8173  0A98  3094               	movlw	148
  8174  0A99  00F1               	movwf	send_usart_packet_manage@Data_carry
  8175  0A9A  01F2               	clrf	send_usart_packet_manage@Data_carry+1
  8176  0A9B  3188  2036  3188   	fcall	_send_usart_packet_manage
  8177                           
  8178                           ;newmain1.c: 1689: Data_Temp_Work_int = receive_data_bytes(1000);
  8179  0A9E  30E8               	movlw	232
  8180  0A9F  00FC               	movwf	receive_data_bytes@time_out_first_byte
  8181  0AA0  3003               	movlw	3
  8182  0AA1  00FD               	movwf	receive_data_bytes@time_out_first_byte+1
  8183  0AA2  3180  20C9  3188   	fcall	_receive_data_bytes
  8184  0AA5  087D               	movf	?_receive_data_bytes+1,w
  8185  0AA6  00A5               	movwf	_Data_Temp_Work_int+1
  8186  0AA7  087C               	movf	?_receive_data_bytes,w
  8187  0AA8  00A4               	movwf	_Data_Temp_Work_int
  8188                           
  8189                           ;newmain1.c: 1691: if(!!((Data_Temp_Work_int) & (1<<(3))) == 1)
  8190  0AA9  1DA4               	btfss	_Data_Temp_Work_int,3
  8191  0AAA  2A8F               	goto	l4064
  8192                           
  8193                           ;newmain1.c: 1694: }
  8194                           ;newmain1.c: 1695: }
  8195                           ;newmain1.c: 1697: print_screen("All Leds Off?", "Press Down Butt");
  8196  0AAB  307C               	movlw	low (STR_101| (0+32768))
  8197  0AAC  00F4               	movwf	print_screen@top
  8198  0AAD  3091               	movlw	high (STR_101| (0+32768))
  8199  0AAE  00F5               	movwf	print_screen@top+1
  8200  0AAF  30AC               	movlw	low (STR_100| (0+32768))
  8201  0AB0  00F6               	movwf	print_screen@bottom
  8202  0AB1  3090               	movlw	high (STR_100| (0+32768))
  8203  0AB2  00F7               	movwf	print_screen@bottom+1
  8204  0AB3  3182  221A  3188   	fcall	_print_screen
  8205                           
  8206                           ;newmain1.c: 1699: _delay((unsigned long)((10)*(16000000/4000.0)));
  8207  0AB6  3034               	movlw	52
  8208  0AB7  0020               	movlb	0	; select bank0
  8209  0AB8  00E6               	movwf	??_main+1
  8210  0AB9  30F1               	movlw	241
  8211  0ABA  00E5               	movwf	??_main
  8212  0ABB                     u3727:	
  8213  0ABB  0BE5               	decfsz	??_main,f
  8214  0ABC  2ABB               	goto	u3727
  8215  0ABD  0BE6               	decfsz	??_main+1,f
  8216  0ABE  2ABB               	goto	u3727
  8217  0ABF  3200               	nop2
  8218  0AC0  3087               	movlw	135
  8219                           
  8220                           ;newmain1.c: 1700: send_usart_packet_manage(135, 1);
  8221  0AC1  01F1               	clrf	send_usart_packet_manage@Data_carry
  8222  0AC2  0AF1               	incf	send_usart_packet_manage@Data_carry,f
  8223  0AC3  01F2               	clrf	send_usart_packet_manage@Data_carry+1
  8224  0AC4  3188  2036  3188   	fcall	_send_usart_packet_manage
  8225                           
  8226                           ;newmain1.c: 1701: Data_Temp_Work_int = receive_data_bytes(1000);
  8227  0AC7  30E8               	movlw	232
  8228  0AC8  00FC               	movwf	receive_data_bytes@time_out_first_byte
  8229  0AC9  3003               	movlw	3
  8230  0ACA  00FD               	movwf	receive_data_bytes@time_out_first_byte+1
  8231  0ACB  3180  20C9  3188   	fcall	_receive_data_bytes
  8232  0ACE  087D               	movf	?_receive_data_bytes+1,w
  8233  0ACF  00A5               	movwf	_Data_Temp_Work_int+1
  8234  0AD0  087C               	movf	?_receive_data_bytes,w
  8235  0AD1  00A4               	movwf	_Data_Temp_Work_int
  8236                           
  8237                           ;newmain1.c: 1703: _delay((unsigned long)((10)*(16000000/4000.0)));
  8238  0AD2  3034               	movlw	52
  8239  0AD3  00E6               	movwf	??_main+1
  8240  0AD4  30F1               	movlw	241
  8241  0AD5  00E5               	movwf	??_main
  8242  0AD6                     u3737:	
  8243  0AD6  0BE5               	decfsz	??_main,f
  8244  0AD7  2AD6               	goto	u3737
  8245  0AD8  0BE6               	decfsz	??_main+1,f
  8246  0AD9  2AD6               	goto	u3737
  8247  0ADA  3200               	nop2
  8248  0ADB  3088               	movlw	136
  8249                           
  8250                           ;newmain1.c: 1704: send_usart_packet_manage(136, 1);
  8251  0ADC  01F1               	clrf	send_usart_packet_manage@Data_carry
  8252  0ADD  0AF1               	incf	send_usart_packet_manage@Data_carry,f
  8253  0ADE  01F2               	clrf	send_usart_packet_manage@Data_carry+1
  8254  0ADF  3188  2036  3188   	fcall	_send_usart_packet_manage
  8255                           
  8256                           ;newmain1.c: 1705: Data_Temp_Work_int = receive_data_bytes(1000);
  8257  0AE2  30E8               	movlw	232
  8258  0AE3  00FC               	movwf	receive_data_bytes@time_out_first_byte
  8259  0AE4  3003               	movlw	3
  8260  0AE5  00FD               	movwf	receive_data_bytes@time_out_first_byte+1
  8261  0AE6  3180  20C9  3188   	fcall	_receive_data_bytes
  8262  0AE9  087D               	movf	?_receive_data_bytes+1,w
  8263  0AEA  00A5               	movwf	_Data_Temp_Work_int+1
  8264  0AEB  087C               	movf	?_receive_data_bytes,w
  8265  0AEC  00A4               	movwf	_Data_Temp_Work_int
  8266                           
  8267                           ;newmain1.c: 1707: _delay((unsigned long)((10)*(16000000/4000.0)));
  8268  0AED  3034               	movlw	52
  8269  0AEE  00E6               	movwf	??_main+1
  8270  0AEF  30F1               	movlw	241
  8271  0AF0  00E5               	movwf	??_main
  8272  0AF1                     u3747:	
  8273  0AF1  0BE5               	decfsz	??_main,f
  8274  0AF2  2AF1               	goto	u3747
  8275  0AF3  0BE6               	decfsz	??_main+1,f
  8276  0AF4  2AF1               	goto	u3747
  8277  0AF5  3200               	nop2
  8278  0AF6  3089               	movlw	137
  8279                           
  8280                           ;newmain1.c: 1708: send_usart_packet_manage(137, 1);
  8281  0AF7  01F1               	clrf	send_usart_packet_manage@Data_carry
  8282  0AF8  0AF1               	incf	send_usart_packet_manage@Data_carry,f
  8283  0AF9  01F2               	clrf	send_usart_packet_manage@Data_carry+1
  8284  0AFA  3188  2036  3188   	fcall	_send_usart_packet_manage
  8285                           
  8286                           ;newmain1.c: 1709: Data_Temp_Work_int = receive_data_bytes(1000);
  8287  0AFD  30E8               	movlw	232
  8288  0AFE  00FC               	movwf	receive_data_bytes@time_out_first_byte
  8289  0AFF  3003               	movlw	3
  8290  0B00  00FD               	movwf	receive_data_bytes@time_out_first_byte+1
  8291  0B01  3180  20C9  3188   	fcall	_receive_data_bytes
  8292  0B04  087D               	movf	?_receive_data_bytes+1,w
  8293  0B05  00A5               	movwf	_Data_Temp_Work_int+1
  8294  0B06  087C               	movf	?_receive_data_bytes,w
  8295  0B07  00A4               	movwf	_Data_Temp_Work_int
  8296                           
  8297                           ;newmain1.c: 1711: _delay((unsigned long)((10)*(16000000/4000.0)));
  8298  0B08  3034               	movlw	52
  8299  0B09  00E6               	movwf	??_main+1
  8300  0B0A  30F1               	movlw	241
  8301  0B0B  00E5               	movwf	??_main
  8302  0B0C                     u3757:	
  8303  0B0C  0BE5               	decfsz	??_main,f
  8304  0B0D  2B0C               	goto	u3757
  8305  0B0E  0BE6               	decfsz	??_main+1,f
  8306  0B0F  2B0C               	goto	u3757
  8307  0B10  3200               	nop2
  8308  0B11  308A               	movlw	138
  8309                           
  8310                           ;newmain1.c: 1712: send_usart_packet_manage(138, 1);
  8311  0B12  01F1               	clrf	send_usart_packet_manage@Data_carry
  8312  0B13  0AF1               	incf	send_usart_packet_manage@Data_carry,f
  8313  0B14  01F2               	clrf	send_usart_packet_manage@Data_carry+1
  8314  0B15  3188  2036  3188   	fcall	_send_usart_packet_manage
  8315                           
  8316                           ;newmain1.c: 1713: Data_Temp_Work_int = receive_data_bytes(1000);
  8317  0B18  30E8               	movlw	232
  8318  0B19  00FC               	movwf	receive_data_bytes@time_out_first_byte
  8319  0B1A  3003               	movlw	3
  8320  0B1B  00FD               	movwf	receive_data_bytes@time_out_first_byte+1
  8321  0B1C  3180  20C9  3188   	fcall	_receive_data_bytes
  8322  0B1F  087D               	movf	?_receive_data_bytes+1,w
  8323  0B20  00A5               	movwf	_Data_Temp_Work_int+1
  8324  0B21  087C               	movf	?_receive_data_bytes,w
  8325  0B22  00A4               	movwf	_Data_Temp_Work_int
  8326                           
  8327                           ;newmain1.c: 1715: _delay((unsigned long)((10)*(16000000/4000.0)));
  8328  0B23  3034               	movlw	52
  8329  0B24  00E6               	movwf	??_main+1
  8330  0B25  30F1               	movlw	241
  8331  0B26  00E5               	movwf	??_main
  8332  0B27                     u3767:	
  8333  0B27  0BE5               	decfsz	??_main,f
  8334  0B28  2B27               	goto	u3767
  8335  0B29  0BE6               	decfsz	??_main+1,f
  8336  0B2A  2B27               	goto	u3767
  8337  0B2B  3200               	nop2
  8338  0B2C  308F               	movlw	143
  8339                           
  8340                           ;newmain1.c: 1716: send_usart_packet_manage(143, 1);
  8341  0B2D  01F1               	clrf	send_usart_packet_manage@Data_carry
  8342  0B2E  0AF1               	incf	send_usart_packet_manage@Data_carry,f
  8343  0B2F  01F2               	clrf	send_usart_packet_manage@Data_carry+1
  8344  0B30  3188  2036  3188   	fcall	_send_usart_packet_manage
  8345                           
  8346                           ;newmain1.c: 1717: Data_Temp_Work_int = receive_data_bytes(1000);
  8347  0B33  30E8               	movlw	232
  8348  0B34  00FC               	movwf	receive_data_bytes@time_out_first_byte
  8349  0B35  3003               	movlw	3
  8350  0B36  00FD               	movwf	receive_data_bytes@time_out_first_byte+1
  8351  0B37  3180  20C9  3188   	fcall	_receive_data_bytes
  8352  0B3A  087D               	movf	?_receive_data_bytes+1,w
  8353  0B3B  00A5               	movwf	_Data_Temp_Work_int+1
  8354  0B3C  087C               	movf	?_receive_data_bytes,w
  8355  0B3D  00A4               	movwf	_Data_Temp_Work_int
  8356                           
  8357                           ;newmain1.c: 1719: _delay((unsigned long)((10)*(16000000/4000.0)));
  8358  0B3E  3034               	movlw	52
  8359  0B3F  00E6               	movwf	??_main+1
  8360  0B40  30F1               	movlw	241
  8361  0B41  00E5               	movwf	??_main
  8362  0B42                     u3777:	
  8363  0B42  0BE5               	decfsz	??_main,f
  8364  0B43  2B42               	goto	u3777
  8365  0B44  0BE6               	decfsz	??_main+1,f
  8366  0B45  2B42               	goto	u3777
  8367  0B46  3200               	nop2
  8368  0B47  3090               	movlw	144
  8369                           
  8370                           ;newmain1.c: 1720: send_usart_packet_manage(144, 1);
  8371  0B48  01F1               	clrf	send_usart_packet_manage@Data_carry
  8372  0B49  0AF1               	incf	send_usart_packet_manage@Data_carry,f
  8373  0B4A  01F2               	clrf	send_usart_packet_manage@Data_carry+1
  8374  0B4B  3188  2036  3188   	fcall	_send_usart_packet_manage
  8375                           
  8376                           ;newmain1.c: 1721: Data_Temp_Work_int = receive_data_bytes(1000);
  8377  0B4E  30E8               	movlw	232
  8378  0B4F  00FC               	movwf	receive_data_bytes@time_out_first_byte
  8379  0B50  3003               	movlw	3
  8380  0B51  00FD               	movwf	receive_data_bytes@time_out_first_byte+1
  8381  0B52  3180  20C9  3188   	fcall	_receive_data_bytes
  8382  0B55  087D               	movf	?_receive_data_bytes+1,w
  8383  0B56  00A5               	movwf	_Data_Temp_Work_int+1
  8384  0B57  087C               	movf	?_receive_data_bytes,w
  8385  0B58  00A4               	movwf	_Data_Temp_Work_int
  8386                           
  8387                           ;newmain1.c: 1723: _delay((unsigned long)((10)*(16000000/4000.0)));
  8388  0B59  3034               	movlw	52
  8389  0B5A  00E6               	movwf	??_main+1
  8390  0B5B  30F1               	movlw	241
  8391  0B5C  00E5               	movwf	??_main
  8392  0B5D                     u3787:	
  8393  0B5D  0BE5               	decfsz	??_main,f
  8394  0B5E  2B5D               	goto	u3787
  8395  0B5F  0BE6               	decfsz	??_main+1,f
  8396  0B60  2B5D               	goto	u3787
  8397  0B61  3200               	nop2
  8398  0B62  3091               	movlw	145
  8399                           
  8400                           ;newmain1.c: 1724: send_usart_packet_manage(145, 1);
  8401  0B63  01F1               	clrf	send_usart_packet_manage@Data_carry
  8402  0B64  0AF1               	incf	send_usart_packet_manage@Data_carry,f
  8403  0B65  01F2               	clrf	send_usart_packet_manage@Data_carry+1
  8404  0B66  3188  2036  3188   	fcall	_send_usart_packet_manage
  8405                           
  8406                           ;newmain1.c: 1725: Data_Temp_Work_int = receive_data_bytes(1000);
  8407  0B69  30E8               	movlw	232
  8408  0B6A  00FC               	movwf	receive_data_bytes@time_out_first_byte
  8409  0B6B  3003               	movlw	3
  8410  0B6C  00FD               	movwf	receive_data_bytes@time_out_first_byte+1
  8411  0B6D  3180  20C9  3188   	fcall	_receive_data_bytes
  8412  0B70  087D               	movf	?_receive_data_bytes+1,w
  8413  0B71  00A5               	movwf	_Data_Temp_Work_int+1
  8414  0B72  087C               	movf	?_receive_data_bytes,w
  8415  0B73  00A4               	movwf	_Data_Temp_Work_int
  8416  0B74                     l4110:	
  8417                           
  8418                           ;newmain1.c: 1729: {
  8419                           ;newmain1.c: 1730: _delay((unsigned long)((10)*(16000000/4000.0)));
  8420  0B74  3034               	movlw	52
  8421  0B75  00E6               	movwf	??_main+1
  8422  0B76  30F1               	movlw	241
  8423  0B77  00E5               	movwf	??_main
  8424  0B78                     u3797:	
  8425  0B78  0BE5               	decfsz	??_main,f
  8426  0B79  2B78               	goto	u3797
  8427  0B7A  0BE6               	decfsz	??_main+1,f
  8428  0B7B  2B78               	goto	u3797
  8429  0B7C  3200               	nop2
  8430                           
  8431                           ;newmain1.c: 1731: send_usart_packet_manage(148, 148);
  8432  0B7D  3094               	movlw	148
  8433  0B7E  00F1               	movwf	send_usart_packet_manage@Data_carry
  8434  0B7F  01F2               	clrf	send_usart_packet_manage@Data_carry+1
  8435  0B80  3188  2036  3188   	fcall	_send_usart_packet_manage
  8436                           
  8437                           ;newmain1.c: 1732: Data_Temp_Work_int = receive_data_bytes(1000);
  8438  0B83  30E8               	movlw	232
  8439  0B84  00FC               	movwf	receive_data_bytes@time_out_first_byte
  8440  0B85  3003               	movlw	3
  8441  0B86  00FD               	movwf	receive_data_bytes@time_out_first_byte+1
  8442  0B87  3180  20C9  3188   	fcall	_receive_data_bytes
  8443  0B8A  087D               	movf	?_receive_data_bytes+1,w
  8444  0B8B  00A5               	movwf	_Data_Temp_Work_int+1
  8445  0B8C  087C               	movf	?_receive_data_bytes,w
  8446  0B8D  00A4               	movwf	_Data_Temp_Work_int
  8447                           
  8448                           ;newmain1.c: 1734: if(!!((Data_Temp_Work_int) & (1<<(3))) == 0)
  8449  0B8E  19A4               	btfsc	_Data_Temp_Work_int,3
  8450  0B8F  2B74               	goto	l4110
  8451  0B90                     l4120:	
  8452                           
  8453                           ;newmain1.c: 1742: {
  8454                           ;newmain1.c: 1743: _delay((unsigned long)((10)*(16000000/4000.0)));
  8455  0B90  3034               	movlw	52
  8456  0B91  00E6               	movwf	??_main+1
  8457  0B92  30F1               	movlw	241
  8458  0B93  00E5               	movwf	??_main
  8459  0B94                     u3807:	
  8460  0B94  0BE5               	decfsz	??_main,f
  8461  0B95  2B94               	goto	u3807
  8462  0B96  0BE6               	decfsz	??_main+1,f
  8463  0B97  2B94               	goto	u3807
  8464  0B98  3200               	nop2
  8465                           
  8466                           ;newmain1.c: 1744: send_usart_packet_manage(148, 148);
  8467  0B99  3094               	movlw	148
  8468  0B9A  00F1               	movwf	send_usart_packet_manage@Data_carry
  8469  0B9B  01F2               	clrf	send_usart_packet_manage@Data_carry+1
  8470  0B9C  3188  2036  3188   	fcall	_send_usart_packet_manage
  8471                           
  8472                           ;newmain1.c: 1745: Data_Temp_Work_int = receive_data_bytes(1000);
  8473  0B9F  30E8               	movlw	232
  8474  0BA0  00FC               	movwf	receive_data_bytes@time_out_first_byte
  8475  0BA1  3003               	movlw	3
  8476  0BA2  00FD               	movwf	receive_data_bytes@time_out_first_byte+1
  8477  0BA3  3180  20C9  3188   	fcall	_receive_data_bytes
  8478  0BA6  087D               	movf	?_receive_data_bytes+1,w
  8479  0BA7  00A5               	movwf	_Data_Temp_Work_int+1
  8480  0BA8  087C               	movf	?_receive_data_bytes,w
  8481  0BA9  00A4               	movwf	_Data_Temp_Work_int
  8482                           
  8483                           ;newmain1.c: 1747: if(!!((Data_Temp_Work_int) & (1<<(3))) == 1)
  8484  0BAA  1DA4               	btfss	_Data_Temp_Work_int,3
  8485  0BAB  2B90               	goto	l4120
  8486                           
  8487                           ;newmain1.c: 1750: }
  8488                           ;newmain1.c: 1751: }
  8489                           ;newmain1.c: 1754: print_screen("Buzz On?", "Press Down Butt");
  8490  0BAC  306E               	movlw	low (STR_103| (0+32768))
  8491  0BAD  00F4               	movwf	print_screen@top
  8492  0BAE  3093               	movlw	high (STR_103| (0+32768))
  8493  0BAF  00F5               	movwf	print_screen@top+1
  8494  0BB0  30AC               	movlw	low (STR_100| (0+32768))
  8495  0BB1  00F6               	movwf	print_screen@bottom
  8496  0BB2  3090               	movlw	high (STR_100| (0+32768))
  8497  0BB3  00F7               	movwf	print_screen@bottom+1
  8498  0BB4  3182  221A  3188   	fcall	_print_screen
  8499                           
  8500                           ;newmain1.c: 1756: _delay((unsigned long)((10)*(16000000/4000.0)));
  8501  0BB7  3034               	movlw	52
  8502  0BB8  0020               	movlb	0	; select bank0
  8503  0BB9  00E6               	movwf	??_main+1
  8504  0BBA  30F1               	movlw	241
  8505  0BBB  00E5               	movwf	??_main
  8506  0BBC                     u3817:	
  8507  0BBC  0BE5               	decfsz	??_main,f
  8508  0BBD  2BBC               	goto	u3817
  8509  0BBE  0BE6               	decfsz	??_main+1,f
  8510  0BBF  2BBC               	goto	u3817
  8511  0BC0  3200               	nop2
  8512                           
  8513                           ;newmain1.c: 1757: send_usart_packet_manage(140, 2);
  8514  0BC1  3002               	movlw	2
  8515  0BC2  00F1               	movwf	send_usart_packet_manage@Data_carry
  8516  0BC3  308C               	movlw	140
  8517  0BC4  01F2               	clrf	send_usart_packet_manage@Data_carry+1
  8518  0BC5  3188  2036  3188   	fcall	_send_usart_packet_manage
  8519                           
  8520                           ;newmain1.c: 1758: Data_Temp_Work_int = receive_data_bytes(1000);
  8521  0BC8  30E8               	movlw	232
  8522  0BC9  00FC               	movwf	receive_data_bytes@time_out_first_byte
  8523  0BCA  3003               	movlw	3
  8524  0BCB  00FD               	movwf	receive_data_bytes@time_out_first_byte+1
  8525  0BCC  3180  20C9  3188   	fcall	_receive_data_bytes
  8526  0BCF  087D               	movf	?_receive_data_bytes+1,w
  8527  0BD0  00A5               	movwf	_Data_Temp_Work_int+1
  8528  0BD1  087C               	movf	?_receive_data_bytes,w
  8529  0BD2  00A4               	movwf	_Data_Temp_Work_int
  8530  0BD3                     l4138:	
  8531                           
  8532                           ;newmain1.c: 1762: {
  8533                           ;newmain1.c: 1763: _delay((unsigned long)((10)*(16000000/4000.0)));
  8534  0BD3  3034               	movlw	52
  8535  0BD4  00E6               	movwf	??_main+1
  8536  0BD5  30F1               	movlw	241
  8537  0BD6  00E5               	movwf	??_main
  8538  0BD7                     u3827:	
  8539  0BD7  0BE5               	decfsz	??_main,f
  8540  0BD8  2BD7               	goto	u3827
  8541  0BD9  0BE6               	decfsz	??_main+1,f
  8542  0BDA  2BD7               	goto	u3827
  8543  0BDB  3200               	nop2
  8544                           
  8545                           ;newmain1.c: 1764: send_usart_packet_manage(148, 148);
  8546  0BDC  3094               	movlw	148
  8547  0BDD  00F1               	movwf	send_usart_packet_manage@Data_carry
  8548  0BDE  01F2               	clrf	send_usart_packet_manage@Data_carry+1
  8549  0BDF  3188  2036  3188   	fcall	_send_usart_packet_manage
  8550                           
  8551                           ;newmain1.c: 1765: Data_Temp_Work_int = receive_data_bytes(1000);
  8552  0BE2  30E8               	movlw	232
  8553  0BE3  00FC               	movwf	receive_data_bytes@time_out_first_byte
  8554  0BE4  3003               	movlw	3
  8555  0BE5  00FD               	movwf	receive_data_bytes@time_out_first_byte+1
  8556  0BE6  3180  20C9  3188   	fcall	_receive_data_bytes
  8557  0BE9  087D               	movf	?_receive_data_bytes+1,w
  8558  0BEA  00A5               	movwf	_Data_Temp_Work_int+1
  8559  0BEB  087C               	movf	?_receive_data_bytes,w
  8560  0BEC  00A4               	movwf	_Data_Temp_Work_int
  8561                           
  8562                           ;newmain1.c: 1767: if(!!((Data_Temp_Work_int) & (1<<(3))) == 0)
  8563  0BED  19A4               	btfsc	_Data_Temp_Work_int,3
  8564  0BEE  2BD3               	goto	l4138
  8565  0BEF                     l4146:	
  8566                           
  8567                           ;newmain1.c: 1775: {
  8568                           ;newmain1.c: 1776: _delay((unsigned long)((10)*(16000000/4000.0)));
  8569  0BEF  3034               	movlw	52
  8570  0BF0  00E6               	movwf	??_main+1
  8571  0BF1  30F1               	movlw	241
  8572  0BF2  00E5               	movwf	??_main
  8573  0BF3                     u3837:	
  8574  0BF3  0BE5               	decfsz	??_main,f
  8575  0BF4  2BF3               	goto	u3837
  8576  0BF5  0BE6               	decfsz	??_main+1,f
  8577  0BF6  2BF3               	goto	u3837
  8578  0BF7  3200               	nop2
  8579                           
  8580                           ;newmain1.c: 1777: send_usart_packet_manage(148, 148);
  8581  0BF8  3094               	movlw	148
  8582  0BF9  00F1               	movwf	send_usart_packet_manage@Data_carry
  8583  0BFA  01F2               	clrf	send_usart_packet_manage@Data_carry+1
  8584  0BFB  3188  2036  3188   	fcall	_send_usart_packet_manage
  8585                           
  8586                           ;newmain1.c: 1778: Data_Temp_Work_int = receive_data_bytes(1000);
  8587  0BFE  30E8               	movlw	232
  8588  0BFF  00FC               	movwf	receive_data_bytes@time_out_first_byte
  8589  0C00  3003               	movlw	3
  8590  0C01  00FD               	movwf	receive_data_bytes@time_out_first_byte+1
  8591  0C02  3180  20C9  3188   	fcall	_receive_data_bytes
  8592  0C05  087D               	movf	?_receive_data_bytes+1,w
  8593  0C06  00A5               	movwf	_Data_Temp_Work_int+1
  8594  0C07  087C               	movf	?_receive_data_bytes,w
  8595  0C08  00A4               	movwf	_Data_Temp_Work_int
  8596                           
  8597                           ;newmain1.c: 1780: if(!!((Data_Temp_Work_int) & (1<<(3))) == 1)
  8598  0C09  1DA4               	btfss	_Data_Temp_Work_int,3
  8599  0C0A  2BEF               	goto	l4146
  8600                           
  8601                           ;newmain1.c: 1783: }
  8602                           ;newmain1.c: 1784: }
  8603                           ;newmain1.c: 1786: _delay((unsigned long)((10)*(16000000/4000.0)));
  8604  0C0B  3034               	movlw	52
  8605  0C0C  00E6               	movwf	??_main+1
  8606  0C0D  30F1               	movlw	241
  8607  0C0E  00E5               	movwf	??_main
  8608  0C0F                     u3847:	
  8609  0C0F  0BE5               	decfsz	??_main,f
  8610  0C10  2C0F               	goto	u3847
  8611  0C11  0BE6               	decfsz	??_main+1,f
  8612  0C12  2C0F               	goto	u3847
  8613  0C13  3200               	nop2
  8614  0C14  308C               	movlw	140
  8615                           
  8616                           ;newmain1.c: 1787: send_usart_packet_manage(140, 1);
  8617  0C15  01F1               	clrf	send_usart_packet_manage@Data_carry
  8618  0C16  0AF1               	incf	send_usart_packet_manage@Data_carry,f
  8619  0C17  01F2               	clrf	send_usart_packet_manage@Data_carry+1
  8620  0C18  3188  2036  3188   	fcall	_send_usart_packet_manage
  8621                           
  8622                           ;newmain1.c: 1788: Data_Temp_Work_int = receive_data_bytes(1000);
  8623  0C1B  30E8               	movlw	232
  8624  0C1C  00FC               	movwf	receive_data_bytes@time_out_first_byte
  8625  0C1D  3003               	movlw	3
  8626  0C1E  00FD               	movwf	receive_data_bytes@time_out_first_byte+1
  8627  0C1F  3180  20C9  3188   	fcall	_receive_data_bytes
  8628  0C22  087D               	movf	?_receive_data_bytes+1,w
  8629  0C23  00A5               	movwf	_Data_Temp_Work_int+1
  8630  0C24  087C               	movf	?_receive_data_bytes,w
  8631  0C25  00A4               	movwf	_Data_Temp_Work_int
  8632                           
  8633                           ;newmain1.c: 1790: print_screen("Buzz Off?", "Press Down Butt");
  8634  0C26  3028               	movlw	low (STR_105| (0+32768))
  8635  0C27  00F4               	movwf	print_screen@top
  8636  0C28  3093               	movlw	high (STR_105| (0+32768))
  8637  0C29  00F5               	movwf	print_screen@top+1
  8638  0C2A  30AC               	movlw	low (STR_100| (0+32768))
  8639  0C2B  00F6               	movwf	print_screen@bottom
  8640  0C2C  3090               	movlw	high (STR_100| (0+32768))
  8641  0C2D  00F7               	movwf	print_screen@bottom+1
  8642  0C2E  3182  221A  3188   	fcall	_print_screen
  8643  0C31                     l4164:	
  8644                           
  8645                           ;newmain1.c: 1794: {
  8646                           ;newmain1.c: 1795: _delay((unsigned long)((10)*(16000000/4000.0)));
  8647  0C31  3034               	movlw	52
  8648  0C32  0020               	movlb	0	; select bank0
  8649  0C33  00E6               	movwf	??_main+1
  8650  0C34  30F1               	movlw	241
  8651  0C35  00E5               	movwf	??_main
  8652  0C36                     u3857:	
  8653  0C36  0BE5               	decfsz	??_main,f
  8654  0C37  2C36               	goto	u3857
  8655  0C38  0BE6               	decfsz	??_main+1,f
  8656  0C39  2C36               	goto	u3857
  8657  0C3A  3200               	nop2
  8658                           
  8659                           ;newmain1.c: 1796: send_usart_packet_manage(148, 148);
  8660  0C3B  3094               	movlw	148
  8661  0C3C  00F1               	movwf	send_usart_packet_manage@Data_carry
  8662  0C3D  01F2               	clrf	send_usart_packet_manage@Data_carry+1
  8663  0C3E  3188  2036  3188   	fcall	_send_usart_packet_manage
  8664                           
  8665                           ;newmain1.c: 1797: Data_Temp_Work_int = receive_data_bytes(1000);
  8666  0C41  30E8               	movlw	232
  8667  0C42  00FC               	movwf	receive_data_bytes@time_out_first_byte
  8668  0C43  3003               	movlw	3
  8669  0C44  00FD               	movwf	receive_data_bytes@time_out_first_byte+1
  8670  0C45  3180  20C9  3188   	fcall	_receive_data_bytes
  8671  0C48  087D               	movf	?_receive_data_bytes+1,w
  8672  0C49  00A5               	movwf	_Data_Temp_Work_int+1
  8673  0C4A  087C               	movf	?_receive_data_bytes,w
  8674  0C4B  00A4               	movwf	_Data_Temp_Work_int
  8675                           
  8676                           ;newmain1.c: 1799: if(!!((Data_Temp_Work_int) & (1<<(3))) == 0)
  8677  0C4C  19A4               	btfsc	_Data_Temp_Work_int,3
  8678  0C4D  2C31               	goto	l4164
  8679  0C4E                     l4172:	
  8680                           
  8681                           ;newmain1.c: 1807: {
  8682                           ;newmain1.c: 1808: _delay((unsigned long)((10)*(16000000/4000.0)));
  8683  0C4E  3034               	movlw	52
  8684  0C4F  00E6               	movwf	??_main+1
  8685  0C50  30F1               	movlw	241
  8686  0C51  00E5               	movwf	??_main
  8687  0C52                     u3867:	
  8688  0C52  0BE5               	decfsz	??_main,f
  8689  0C53  2C52               	goto	u3867
  8690  0C54  0BE6               	decfsz	??_main+1,f
  8691  0C55  2C52               	goto	u3867
  8692  0C56  3200               	nop2
  8693                           
  8694                           ;newmain1.c: 1809: send_usart_packet_manage(148, 148);
  8695  0C57  3094               	movlw	148
  8696  0C58  00F1               	movwf	send_usart_packet_manage@Data_carry
  8697  0C59  01F2               	clrf	send_usart_packet_manage@Data_carry+1
  8698  0C5A  3188  2036  3188   	fcall	_send_usart_packet_manage
  8699                           
  8700                           ;newmain1.c: 1810: Data_Temp_Work_int = receive_data_bytes(1000);
  8701  0C5D  30E8               	movlw	232
  8702  0C5E  00FC               	movwf	receive_data_bytes@time_out_first_byte
  8703  0C5F  3003               	movlw	3
  8704  0C60  00FD               	movwf	receive_data_bytes@time_out_first_byte+1
  8705  0C61  3180  20C9  3188   	fcall	_receive_data_bytes
  8706  0C64  087D               	movf	?_receive_data_bytes+1,w
  8707  0C65  00A5               	movwf	_Data_Temp_Work_int+1
  8708  0C66  087C               	movf	?_receive_data_bytes,w
  8709  0C67  00A4               	movwf	_Data_Temp_Work_int
  8710                           
  8711                           ;newmain1.c: 1812: if(!!((Data_Temp_Work_int) & (1<<(3))) == 1)
  8712  0C68  1DA4               	btfss	_Data_Temp_Work_int,3
  8713  0C69  2C4E               	goto	l4172
  8714                           
  8715                           ;newmain1.c: 1815: }
  8716                           ;newmain1.c: 1816: }
  8717                           ;newmain1.c: 1819: print_screen("Testing", "Battery Disc");
  8718  0C6A  30C6               	movlw	low (STR_73| (0+32768))
  8719  0C6B  00F4               	movwf	print_screen@top
  8720  0C6C  3093               	movlw	high (STR_73| (0+32768))
  8721  0C6D  00F5               	movwf	print_screen@top+1
  8722  0C6E  304B               	movlw	low (STR_108| (0+32768))
  8723  0C6F  00F6               	movwf	print_screen@bottom
  8724  0C70  3092               	movlw	high (STR_108| (0+32768))
  8725  0C71  00F7               	movwf	print_screen@bottom+1
  8726  0C72  3182  221A  3188   	fcall	_print_screen
  8727                           
  8728                           ;newmain1.c: 1820: _delay((unsigned long)((10)*(16000000/4000.0)));
  8729  0C75  3034               	movlw	52
  8730  0C76  0020               	movlb	0	; select bank0
  8731  0C77  00E6               	movwf	??_main+1
  8732  0C78  30F1               	movlw	241
  8733  0C79  00E5               	movwf	??_main
  8734  0C7A                     u3877:	
  8735  0C7A  0BE5               	decfsz	??_main,f
  8736  0C7B  2C7A               	goto	u3877
  8737  0C7C  0BE6               	decfsz	??_main+1,f
  8738  0C7D  2C7A               	goto	u3877
  8739  0C7E  3200               	nop2
  8740                           
  8741                           ;newmain1.c: 1821: send_usart_packet_manage(141, 2);
  8742  0C7F  3002               	movlw	2
  8743  0C80  00F1               	movwf	send_usart_packet_manage@Data_carry
  8744  0C81  308D               	movlw	141
  8745  0C82  01F2               	clrf	send_usart_packet_manage@Data_carry+1
  8746  0C83  3188  2036  3188   	fcall	_send_usart_packet_manage
  8747                           
  8748                           ;newmain1.c: 1822: Data_Temp_Work_int = receive_data_bytes(1000);
  8749  0C86  30E8               	movlw	232
  8750  0C87  00FC               	movwf	receive_data_bytes@time_out_first_byte
  8751  0C88  3003               	movlw	3
  8752  0C89  00FD               	movwf	receive_data_bytes@time_out_first_byte+1
  8753  0C8A  3180  20C9  3188   	fcall	_receive_data_bytes
  8754  0C8D  087D               	movf	?_receive_data_bytes+1,w
  8755  0C8E  00A5               	movwf	_Data_Temp_Work_int+1
  8756  0C8F  087C               	movf	?_receive_data_bytes,w
  8757  0C90  00A4               	movwf	_Data_Temp_Work_int
  8758                           
  8759                           ;newmain1.c: 1824: _delay((unsigned long)((2000)*(16000000/4000.0)));
  8760  0C91  3029               	movlw	41
  8761  0C92  00E7               	movwf	??_main+2
  8762  0C93  3096               	movlw	150
  8763  0C94  00E6               	movwf	??_main+1
  8764  0C95  30A6               	movlw	166
  8765  0C96  00E5               	movwf	??_main
  8766  0C97                     u3887:	
  8767  0C97  0BE5               	decfsz	??_main,f
  8768  0C98  2C97               	goto	u3887
  8769  0C99  0BE6               	decfsz	??_main+1,f
  8770  0C9A  2C97               	goto	u3887
  8771  0C9B  0BE7               	decfsz	??_main+2,f
  8772  0C9C  2C97               	goto	u3887
  8773                           
  8774                           ;newmain1.c: 1827: send_usart_packet_manage(129, 129);
  8775  0C9D  3081               	movlw	129
  8776  0C9E  00F1               	movwf	send_usart_packet_manage@Data_carry
  8777  0C9F  3081               	movlw	129
  8778  0CA0  01F2               	clrf	send_usart_packet_manage@Data_carry+1
  8779  0CA1  3188  2036  3188   	fcall	_send_usart_packet_manage
  8780                           
  8781                           ;newmain1.c: 1828: Data_Temp_Work_int = receive_data_bytes(1000);
  8782  0CA4  30E8               	movlw	232
  8783  0CA5  00FC               	movwf	receive_data_bytes@time_out_first_byte
  8784  0CA6  3003               	movlw	3
  8785  0CA7  00FD               	movwf	receive_data_bytes@time_out_first_byte+1
  8786  0CA8  3180  20C9  3188   	fcall	_receive_data_bytes
  8787  0CAB  087D               	movf	?_receive_data_bytes+1,w
  8788  0CAC  00A5               	movwf	_Data_Temp_Work_int+1
  8789  0CAD  087C               	movf	?_receive_data_bytes,w
  8790  0CAE  00A4               	movwf	_Data_Temp_Work_int
  8791                           
  8792                           ;newmain1.c: 1833: if(Data_Temp_Work_int > 350)
  8793  0CAF  3001               	movlw	1
  8794  0CB0  0225               	subwf	_Data_Temp_Work_int+1,w
  8795  0CB1  305F               	movlw	95
  8796  0CB2  1903               	skipnz
  8797  0CB3  0224               	subwf	_Data_Temp_Work_int,w
  8798  0CB4  1C03               	skipc
  8799  0CB5  2CC1               	goto	l4198
  8800                           
  8801                           ;newmain1.c: 1834: {
  8802                           ;newmain1.c: 1835: print_error("Error", "Charge Disable");
  8803  0CB6  30E3               	movlw	low (STR_15| (0+32768))
  8804  0CB7  00F8               	movwf	print_error@top
  8805  0CB8  3093               	movlw	high (STR_15| (0+32768))
  8806  0CB9  00F9               	movwf	print_error@top+1
  8807  0CBA  30DB               	movlw	low (STR_110| (0+32768))
  8808  0CBB  00FA               	movwf	print_error@bottom
  8809  0CBC  3090               	movlw	high (STR_110| (0+32768))
  8810  0CBD  00FB               	movwf	print_error@bottom+1
  8811  0CBE  3182  223C  3188   	fcall	_print_error
  8812  0CC1                     l4198:	
  8813                           
  8814                           ;newmain1.c: 1836: }
  8815                           ;newmain1.c: 1838: _delay((unsigned long)((10)*(16000000/4000.0)));
  8816  0CC1  3034               	movlw	52
  8817  0CC2  0020               	movlb	0	; select bank0
  8818  0CC3  00E6               	movwf	??_main+1
  8819  0CC4  30F1               	movlw	241
  8820  0CC5  00E5               	movwf	??_main
  8821  0CC6                     u3897:	
  8822  0CC6  0BE5               	decfsz	??_main,f
  8823  0CC7  2CC6               	goto	u3897
  8824  0CC8  0BE6               	decfsz	??_main+1,f
  8825  0CC9  2CC6               	goto	u3897
  8826  0CCA  3200               	nop2
  8827  0CCB  308D               	movlw	141
  8828                           
  8829                           ;newmain1.c: 1839: send_usart_packet_manage(141, 1);
  8830  0CCC  01F1               	clrf	send_usart_packet_manage@Data_carry
  8831  0CCD  0AF1               	incf	send_usart_packet_manage@Data_carry,f
  8832  0CCE  01F2               	clrf	send_usart_packet_manage@Data_carry+1
  8833  0CCF  3188  2036  3188   	fcall	_send_usart_packet_manage
  8834                           
  8835                           ;newmain1.c: 1840: Data_Temp_Work_int = receive_data_bytes(1000);
  8836  0CD2  30E8               	movlw	232
  8837  0CD3  00FC               	movwf	receive_data_bytes@time_out_first_byte
  8838  0CD4  3003               	movlw	3
  8839  0CD5  00FD               	movwf	receive_data_bytes@time_out_first_byte+1
  8840  0CD6  3180  20C9  3188   	fcall	_receive_data_bytes
  8841  0CD9  087D               	movf	?_receive_data_bytes+1,w
  8842  0CDA  00A5               	movwf	_Data_Temp_Work_int+1
  8843  0CDB  087C               	movf	?_receive_data_bytes,w
  8844  0CDC  00A4               	movwf	_Data_Temp_Work_int
  8845                           
  8846                           ;newmain1.c: 1843: print_screen("Testing", "Motor Circuit");
  8847  0CDD  30C6               	movlw	low (STR_73| (0+32768))
  8848  0CDE  00F4               	movwf	print_screen@top
  8849  0CDF  3093               	movlw	high (STR_73| (0+32768))
  8850  0CE0  00F5               	movwf	print_screen@top+1
  8851  0CE1  30D0               	movlw	low (STR_112| (0+32768))
  8852  0CE2  00F6               	movwf	print_screen@bottom
  8853  0CE3  3091               	movlw	high (STR_112| (0+32768))
  8854  0CE4  00F7               	movwf	print_screen@bottom+1
  8855  0CE5  3182  221A  3188   	fcall	_print_screen
  8856                           
  8857                           ;newmain1.c: 1845: _delay((unsigned long)((10)*(16000000/4000.0)));
  8858  0CE8  3034               	movlw	52
  8859  0CE9  0020               	movlb	0	; select bank0
  8860  0CEA  00E6               	movwf	??_main+1
  8861  0CEB  30F1               	movlw	241
  8862  0CEC  00E5               	movwf	??_main
  8863  0CED                     u3907:	
  8864  0CED  0BE5               	decfsz	??_main,f
  8865  0CEE  2CED               	goto	u3907
  8866  0CEF  0BE6               	decfsz	??_main+1,f
  8867  0CF0  2CED               	goto	u3907
  8868  0CF1  3200               	nop2
  8869                           
  8870                           ;newmain1.c: 1848: send_usart_packet_manage(132, 132);
  8871  0CF2  3084               	movlw	132
  8872  0CF3  00F1               	movwf	send_usart_packet_manage@Data_carry
  8873  0CF4  01F2               	clrf	send_usart_packet_manage@Data_carry+1
  8874  0CF5  3188  2036  3188   	fcall	_send_usart_packet_manage
  8875                           
  8876                           ;newmain1.c: 1849: Data_Temp_Work_int = receive_data_bytes(1000);
  8877  0CF8  30E8               	movlw	232
  8878  0CF9  00FC               	movwf	receive_data_bytes@time_out_first_byte
  8879  0CFA  3003               	movlw	3
  8880  0CFB  00FD               	movwf	receive_data_bytes@time_out_first_byte+1
  8881  0CFC  3180  20C9  3188   	fcall	_receive_data_bytes
  8882  0CFF  087D               	movf	?_receive_data_bytes+1,w
  8883  0D00  00A5               	movwf	_Data_Temp_Work_int+1
  8884  0D01  087C               	movf	?_receive_data_bytes,w
  8885  0D02  00A4               	movwf	_Data_Temp_Work_int
  8886                           
  8887                           ;newmain1.c: 1851: if(Data_Temp_Work_int > 3)
  8888  0D03  3000               	movlw	0
  8889  0D04  0225               	subwf	_Data_Temp_Work_int+1,w
  8890  0D05  3004               	movlw	4
  8891  0D06  1903               	skipnz
  8892  0D07  0224               	subwf	_Data_Temp_Work_int,w
  8893  0D08  1C03               	skipc
  8894  0D09  2D15               	goto	l4214
  8895                           
  8896                           ;newmain1.c: 1852: {
  8897                           ;newmain1.c: 1853: print_error("Error Motor", "Circuit Short");
  8898  0D0A  30D6               	movlw	low (STR_113| (0+32768))
  8899  0D0B  00F8               	movwf	print_error@top
  8900  0D0C  3092               	movlw	high (STR_113| (0+32768))
  8901  0D0D  00F9               	movwf	print_error@top+1
  8902  0D0E  30DE               	movlw	low (STR_114| (0+32768))
  8903  0D0F  00FA               	movwf	print_error@bottom
  8904  0D10  3091               	movlw	high (STR_114| (0+32768))
  8905  0D11  00FB               	movwf	print_error@bottom+1
  8906  0D12  3182  223C  3188   	fcall	_print_error
  8907  0D15                     l4214:	
  8908                           
  8909                           ;newmain1.c: 1854: }
  8910                           ;newmain1.c: 1857: _delay((unsigned long)((10)*(16000000/4000.0)));
  8911  0D15  3034               	movlw	52
  8912  0D16  0020               	movlb	0	; select bank0
  8913  0D17  00E6               	movwf	??_main+1
  8914  0D18  30F1               	movlw	241
  8915  0D19  00E5               	movwf	??_main
  8916  0D1A                     u3917:	
  8917  0D1A  0BE5               	decfsz	??_main,f
  8918  0D1B  2D1A               	goto	u3917
  8919  0D1C  0BE6               	decfsz	??_main+1,f
  8920  0D1D  2D1A               	goto	u3917
  8921  0D1E  3200               	nop2
  8922                           
  8923                           ;newmain1.c: 1858: send_usart_packet_manage(146, 2);
  8924  0D1F  3002               	movlw	2
  8925  0D20  00F1               	movwf	send_usart_packet_manage@Data_carry
  8926  0D21  3092               	movlw	146
  8927  0D22  01F2               	clrf	send_usart_packet_manage@Data_carry+1
  8928  0D23  3188  2036  3188   	fcall	_send_usart_packet_manage
  8929                           
  8930                           ;newmain1.c: 1859: Data_Temp_Work_int = receive_data_bytes(1000);
  8931  0D26  30E8               	movlw	232
  8932  0D27  00FC               	movwf	receive_data_bytes@time_out_first_byte
  8933  0D28  3003               	movlw	3
  8934  0D29  00FD               	movwf	receive_data_bytes@time_out_first_byte+1
  8935  0D2A  3180  20C9  3188   	fcall	_receive_data_bytes
  8936  0D2D  087D               	movf	?_receive_data_bytes+1,w
  8937  0D2E  00A5               	movwf	_Data_Temp_Work_int+1
  8938  0D2F  087C               	movf	?_receive_data_bytes,w
  8939  0D30  00A4               	movwf	_Data_Temp_Work_int
  8940                           
  8941                           ;newmain1.c: 1861: _delay((unsigned long)((500)*(16000000/4000.0)));
  8942  0D31  300B               	movlw	11
  8943  0D32  00E7               	movwf	??_main+2
  8944  0D33  3026               	movlw	38
  8945  0D34  00E6               	movwf	??_main+1
  8946  0D35  3066               	movlw	102
  8947  0D36  00E5               	movwf	??_main
  8948  0D37                     u3927:	
  8949  0D37  0BE5               	decfsz	??_main,f
  8950  0D38  2D37               	goto	u3927
  8951  0D39  0BE6               	decfsz	??_main+1,f
  8952  0D3A  2D37               	goto	u3927
  8953  0D3B  0BE7               	decfsz	??_main+2,f
  8954  0D3C  2D37               	goto	u3927
  8955  0D3D  3200               	nop2
  8956                           
  8957                           ;newmain1.c: 1864: send_usart_packet_manage(132, 132);
  8958  0D3E  3084               	movlw	132
  8959  0D3F  00F1               	movwf	send_usart_packet_manage@Data_carry
  8960  0D40  01F2               	clrf	send_usart_packet_manage@Data_carry+1
  8961  0D41  3188  2036  3188   	fcall	_send_usart_packet_manage
  8962                           
  8963                           ;newmain1.c: 1865: Data_Temp_Work_int = receive_data_bytes(1000);
  8964  0D44  30E8               	movlw	232
  8965  0D45  00FC               	movwf	receive_data_bytes@time_out_first_byte
  8966  0D46  3003               	movlw	3
  8967  0D47  00FD               	movwf	receive_data_bytes@time_out_first_byte+1
  8968  0D48  3180  20C9  3188   	fcall	_receive_data_bytes
  8969  0D4B  087D               	movf	?_receive_data_bytes+1,w
  8970  0D4C  00A5               	movwf	_Data_Temp_Work_int+1
  8971  0D4D  087C               	movf	?_receive_data_bytes,w
  8972  0D4E  00A4               	movwf	_Data_Temp_Work_int
  8973                           
  8974                           ;newmain1.c: 1867: if(Data_Temp_Work_int > 2)
  8975  0D4F  3000               	movlw	0
  8976  0D50  0225               	subwf	_Data_Temp_Work_int+1,w
  8977  0D51  3003               	movlw	3
  8978  0D52  1903               	skipnz
  8979  0D53  0224               	subwf	_Data_Temp_Work_int,w
  8980  0D54  1C03               	skipc
  8981  0D55  2D61               	goto	l4228
  8982                           
  8983                           ;newmain1.c: 1868: {
  8984                           ;newmain1.c: 1869: print_error("Error Motor", "Circuit Short");
  8985  0D56  30D6               	movlw	low (STR_113| (0+32768))
  8986  0D57  00F8               	movwf	print_error@top
  8987  0D58  3092               	movlw	high (STR_113| (0+32768))
  8988  0D59  00F9               	movwf	print_error@top+1
  8989  0D5A  30DE               	movlw	low (STR_114| (0+32768))
  8990  0D5B  00FA               	movwf	print_error@bottom
  8991  0D5C  3091               	movlw	high (STR_114| (0+32768))
  8992  0D5D  00FB               	movwf	print_error@bottom+1
  8993  0D5E  3182  223C  3188   	fcall	_print_error
  8994  0D61                     l4228:	
  8995                           
  8996                           ;newmain1.c: 1870: }
  8997                           ;newmain1.c: 1873: _delay((unsigned long)((10)*(16000000/4000.0)));
  8998  0D61  3034               	movlw	52
  8999  0D62  0020               	movlb	0	; select bank0
  9000  0D63  00E6               	movwf	??_main+1
  9001  0D64  30F1               	movlw	241
  9002  0D65  00E5               	movwf	??_main
  9003  0D66                     u3937:	
  9004  0D66  0BE5               	decfsz	??_main,f
  9005  0D67  2D66               	goto	u3937
  9006  0D68  0BE6               	decfsz	??_main+1,f
  9007  0D69  2D66               	goto	u3937
  9008  0D6A  3200               	nop2
  9009                           
  9010                           ;newmain1.c: 1874: send_usart_packet_manage(142, 254);
  9011  0D6B  30FE               	movlw	254
  9012  0D6C  00F1               	movwf	send_usart_packet_manage@Data_carry
  9013  0D6D  308E               	movlw	142
  9014  0D6E  01F2               	clrf	send_usart_packet_manage@Data_carry+1
  9015  0D6F  3188  2036  3188   	fcall	_send_usart_packet_manage
  9016                           
  9017                           ;newmain1.c: 1875: Data_Temp_Work_int = receive_data_bytes(1000);
  9018  0D72  30E8               	movlw	232
  9019  0D73  00FC               	movwf	receive_data_bytes@time_out_first_byte
  9020  0D74  3003               	movlw	3
  9021  0D75  00FD               	movwf	receive_data_bytes@time_out_first_byte+1
  9022  0D76  3180  20C9  3188   	fcall	_receive_data_bytes
  9023  0D79  087D               	movf	?_receive_data_bytes+1,w
  9024  0D7A  00A5               	movwf	_Data_Temp_Work_int+1
  9025  0D7B  087C               	movf	?_receive_data_bytes,w
  9026  0D7C  00A4               	movwf	_Data_Temp_Work_int
  9027                           
  9028                           ;newmain1.c: 1878: _delay((unsigned long)((1000)*(16000000/4000.0)));
  9029  0D7D  3015               	movlw	21
  9030  0D7E  00E7               	movwf	??_main+2
  9031  0D7F  304B               	movlw	75
  9032  0D80  00E6               	movwf	??_main+1
  9033  0D81  30D1               	movlw	209
  9034  0D82  00E5               	movwf	??_main
  9035  0D83                     u3947:	
  9036  0D83  0BE5               	decfsz	??_main,f
  9037  0D84  2D83               	goto	u3947
  9038  0D85  0BE6               	decfsz	??_main+1,f
  9039  0D86  2D83               	goto	u3947
  9040  0D87  0BE7               	decfsz	??_main+2,f
  9041  0D88  2D83               	goto	u3947
  9042  0D89  0000               	nop
  9043                           
  9044                           ;newmain1.c: 1881: send_usart_packet_manage(132, 132);
  9045  0D8A  3084               	movlw	132
  9046  0D8B  00F1               	movwf	send_usart_packet_manage@Data_carry
  9047  0D8C  01F2               	clrf	send_usart_packet_manage@Data_carry+1
  9048  0D8D  3188  2036  3188   	fcall	_send_usart_packet_manage
  9049                           
  9050                           ;newmain1.c: 1882: Data_Temp_Work_int = receive_data_bytes(1000);
  9051  0D90  30E8               	movlw	232
  9052  0D91  00FC               	movwf	receive_data_bytes@time_out_first_byte
  9053  0D92  3003               	movlw	3
  9054  0D93  00FD               	movwf	receive_data_bytes@time_out_first_byte+1
  9055  0D94  3180  20C9  3188   	fcall	_receive_data_bytes
  9056  0D97  087D               	movf	?_receive_data_bytes+1,w
  9057  0D98  00A5               	movwf	_Data_Temp_Work_int+1
  9058  0D99  087C               	movf	?_receive_data_bytes,w
  9059  0D9A  00A4               	movwf	_Data_Temp_Work_int
  9060                           
  9061                           ;newmain1.c: 1886: if(Data_Temp_Work_int < 2)
  9062  0D9B  3000               	movlw	0
  9063  0D9C  0225               	subwf	_Data_Temp_Work_int+1,w
  9064  0D9D  3002               	movlw	2
  9065  0D9E  1903               	skipnz
  9066  0D9F  0224               	subwf	_Data_Temp_Work_int,w
  9067  0DA0  1803               	skipnc
  9068  0DA1  2DAD               	goto	l4242
  9069                           
  9070                           ;newmain1.c: 1887: {
  9071                           ;newmain1.c: 1888: print_error("Error Motor", "Circuit Open");
  9072  0DA2  30D6               	movlw	low (STR_113| (0+32768))
  9073  0DA3  00F8               	movwf	print_error@top
  9074  0DA4  3092               	movlw	high (STR_113| (0+32768))
  9075  0DA5  00F9               	movwf	print_error@top+1
  9076  0DA6  3072               	movlw	low (STR_118| (0+32768))
  9077  0DA7  00FA               	movwf	print_error@bottom
  9078  0DA8  3092               	movlw	high (STR_118| (0+32768))
  9079  0DA9  00FB               	movwf	print_error@bottom+1
  9080  0DAA  3182  223C  3188   	fcall	_print_error
  9081  0DAD                     l4242:	
  9082                           
  9083                           ;newmain1.c: 1889: }
  9084                           ;newmain1.c: 1893: if((RA0 == 0) && (RA1 == 0))
  9085  0DAD  0020               	movlb	0	; select bank0
  9086  0DAE  1C0C               	btfss	12,0	;volatile
  9087  0DAF  188C               	btfsc	12,1	;volatile
  9088  0DB0  2DBC               	goto	l4248
  9089                           
  9090                           ;newmain1.c: 1894: {
  9091                           ;newmain1.c: 1895: print_error("Error Motor", "Circuit Err 1");
  9092  0DB1  30D6               	movlw	low (STR_113| (0+32768))
  9093  0DB2  00F8               	movwf	print_error@top
  9094  0DB3  3092               	movlw	high (STR_113| (0+32768))
  9095  0DB4  00F9               	movwf	print_error@top+1
  9096  0DB5  3052               	movlw	low (STR_120| (0+32768))
  9097  0DB6  00FA               	movwf	print_error@bottom
  9098  0DB7  3091               	movlw	high (STR_120| (0+32768))
  9099  0DB8  00FB               	movwf	print_error@bottom+1
  9100  0DB9  3182  223C  3188   	fcall	_print_error
  9101  0DBC                     l4248:	
  9102                           
  9103                           ;newmain1.c: 1896: }
  9104                           ;newmain1.c: 1898: if((RA0 == 0) && (RA1 == 1))
  9105  0DBC  0020               	movlb	0	; select bank0
  9106  0DBD  1C0C               	btfss	12,0	;volatile
  9107  0DBE  1C8C               	btfss	12,1	;volatile
  9108  0DBF  2DCB               	goto	l4254
  9109                           
  9110                           ;newmain1.c: 1899: {
  9111                           ;newmain1.c: 1900: print_error("Error Motor", "Circuit Err 2");
  9112  0DC0  30D6               	movlw	low (STR_113| (0+32768))
  9113  0DC1  00F8               	movwf	print_error@top
  9114  0DC2  3092               	movlw	high (STR_113| (0+32768))
  9115  0DC3  00F9               	movwf	print_error@top+1
  9116  0DC4  3060               	movlw	low (STR_122| (0+32768))
  9117  0DC5  00FA               	movwf	print_error@bottom
  9118  0DC6  3091               	movlw	high (STR_122| (0+32768))
  9119  0DC7  00FB               	movwf	print_error@bottom+1
  9120  0DC8  3182  223C  3188   	fcall	_print_error
  9121  0DCB                     l4254:	
  9122                           
  9123                           ;newmain1.c: 1901: }
  9124                           ;newmain1.c: 1903: if((RA0 == 1) && (RA1 == 1))
  9125  0DCB  0020               	movlb	0	; select bank0
  9126  0DCC  180C               	btfsc	12,0	;volatile
  9127  0DCD  1C8C               	btfss	12,1	;volatile
  9128  0DCE  2DDA               	goto	l4260
  9129                           
  9130                           ;newmain1.c: 1904: {
  9131                           ;newmain1.c: 1905: print_error("Error Motor", "Circuit Err 3");
  9132  0DCF  30D6               	movlw	low (STR_113| (0+32768))
  9133  0DD0  00F8               	movwf	print_error@top
  9134  0DD1  3092               	movlw	high (STR_113| (0+32768))
  9135  0DD2  00F9               	movwf	print_error@top+1
  9136  0DD3  306E               	movlw	low (STR_124| (0+32768))
  9137  0DD4  00FA               	movwf	print_error@bottom
  9138  0DD5  3091               	movlw	high (STR_124| (0+32768))
  9139  0DD6  00FB               	movwf	print_error@bottom+1
  9140  0DD7  3182  223C  3188   	fcall	_print_error
  9141  0DDA                     l4260:	
  9142                           
  9143                           ;newmain1.c: 1906: }
  9144                           ;newmain1.c: 1909: _delay((unsigned long)((10)*(16000000/4000.0)));
  9145  0DDA  3034               	movlw	52
  9146  0DDB  0020               	movlb	0	; select bank0
  9147  0DDC  00E6               	movwf	??_main+1
  9148  0DDD  30F1               	movlw	241
  9149  0DDE  00E5               	movwf	??_main
  9150  0DDF                     u3957:	
  9151  0DDF  0BE5               	decfsz	??_main,f
  9152  0DE0  2DDF               	goto	u3957
  9153  0DE1  0BE6               	decfsz	??_main+1,f
  9154  0DE2  2DDF               	goto	u3957
  9155  0DE3  3200               	nop2
  9156  0DE4  3092               	movlw	146
  9157                           
  9158                           ;newmain1.c: 1910: send_usart_packet_manage(146, 1);
  9159  0DE5  01F1               	clrf	send_usart_packet_manage@Data_carry
  9160  0DE6  0AF1               	incf	send_usart_packet_manage@Data_carry,f
  9161  0DE7  01F2               	clrf	send_usart_packet_manage@Data_carry+1
  9162  0DE8  3188  2036  3188   	fcall	_send_usart_packet_manage
  9163                           
  9164                           ;newmain1.c: 1911: Data_Temp_Work_int = receive_data_bytes(1000);
  9165  0DEB  30E8               	movlw	232
  9166  0DEC  00FC               	movwf	receive_data_bytes@time_out_first_byte
  9167  0DED  3003               	movlw	3
  9168  0DEE  00FD               	movwf	receive_data_bytes@time_out_first_byte+1
  9169  0DEF  3180  20C9  3188   	fcall	_receive_data_bytes
  9170  0DF2  087D               	movf	?_receive_data_bytes+1,w
  9171  0DF3  00A5               	movwf	_Data_Temp_Work_int+1
  9172  0DF4  087C               	movf	?_receive_data_bytes,w
  9173  0DF5  00A4               	movwf	_Data_Temp_Work_int
  9174                           
  9175                           ;newmain1.c: 1913: _delay((unsigned long)((100)*(16000000/4000.0)));
  9176  0DF6  3003               	movlw	3
  9177  0DF7  00E7               	movwf	??_main+2
  9178  0DF8  3008               	movlw	8
  9179  0DF9  00E6               	movwf	??_main+1
  9180  0DFA  3078               	movlw	120
  9181  0DFB  00E5               	movwf	??_main
  9182  0DFC                     u3967:	
  9183  0DFC  0BE5               	decfsz	??_main,f
  9184  0DFD  2DFC               	goto	u3967
  9185  0DFE  0BE6               	decfsz	??_main+1,f
  9186  0DFF  2DFC               	goto	u3967
  9187  0E00  0BE7               	decfsz	??_main+2,f
  9188  0E01  2DFC               	goto	u3967
  9189                           
  9190                           ;newmain1.c: 1914: send_usart_packet_manage(147, 2);
  9191  0E02  3002               	movlw	2
  9192  0E03  00F1               	movwf	send_usart_packet_manage@Data_carry
  9193  0E04  3093               	movlw	147
  9194  0E05  01F2               	clrf	send_usart_packet_manage@Data_carry+1
  9195  0E06  3188  2036  3188   	fcall	_send_usart_packet_manage
  9196                           
  9197                           ;newmain1.c: 1915: Data_Temp_Work_int = receive_data_bytes(1000);
  9198  0E09  30E8               	movlw	232
  9199  0E0A  00FC               	movwf	receive_data_bytes@time_out_first_byte
  9200  0E0B  3003               	movlw	3
  9201  0E0C  00FD               	movwf	receive_data_bytes@time_out_first_byte+1
  9202  0E0D  3180  20C9  3188   	fcall	_receive_data_bytes
  9203  0E10  087D               	movf	?_receive_data_bytes+1,w
  9204  0E11  00A5               	movwf	_Data_Temp_Work_int+1
  9205  0E12  087C               	movf	?_receive_data_bytes,w
  9206  0E13  00A4               	movwf	_Data_Temp_Work_int
  9207                           
  9208                           ;newmain1.c: 1916: _delay((unsigned long)((250)*(16000000/4000.0)));
  9209  0E14  3006               	movlw	6
  9210  0E15  00E7               	movwf	??_main+2
  9211  0E16  3013               	movlw	19
  9212  0E17  00E6               	movwf	??_main+1
  9213  0E18  30B1               	movlw	177
  9214  0E19  00E5               	movwf	??_main
  9215  0E1A                     u3977:	
  9216  0E1A  0BE5               	decfsz	??_main,f
  9217  0E1B  2E1A               	goto	u3977
  9218  0E1C  0BE6               	decfsz	??_main+1,f
  9219  0E1D  2E1A               	goto	u3977
  9220  0E1E  0BE7               	decfsz	??_main+2,f
  9221  0E1F  2E1A               	goto	u3977
  9222  0E20  3200               	nop2
  9223                           
  9224                           ;newmain1.c: 1920: if((RA0 == 0) && (RA1 == 0))
  9225  0E21  0020               	movlb	0	; select bank0
  9226  0E22  1C0C               	btfss	12,0	;volatile
  9227  0E23  188C               	btfsc	12,1	;volatile
  9228  0E24  2E30               	goto	l4278
  9229                           
  9230                           ;newmain1.c: 1921: {
  9231                           ;newmain1.c: 1922: print_error("Error Motor", "Circuit Err 1");
  9232  0E25  30D6               	movlw	low (STR_113| (0+32768))
  9233  0E26  00F8               	movwf	print_error@top
  9234  0E27  3092               	movlw	high (STR_113| (0+32768))
  9235  0E28  00F9               	movwf	print_error@top+1
  9236  0E29  3052               	movlw	low (STR_120| (0+32768))
  9237  0E2A  00FA               	movwf	print_error@bottom
  9238  0E2B  3091               	movlw	high (STR_120| (0+32768))
  9239  0E2C  00FB               	movwf	print_error@bottom+1
  9240  0E2D  3182  223C  3188   	fcall	_print_error
  9241  0E30                     l4278:	
  9242                           
  9243                           ;newmain1.c: 1923: }
  9244                           ;newmain1.c: 1925: if((RA0 == 1) && (RA1 == 0))
  9245  0E30  0020               	movlb	0	; select bank0
  9246  0E31  180C               	btfsc	12,0	;volatile
  9247  0E32  188C               	btfsc	12,1	;volatile
  9248  0E33  2E3F               	goto	l4284
  9249                           
  9250                           ;newmain1.c: 1926: {
  9251                           ;newmain1.c: 1927: print_error("Error Motor", "Circuit Err 2");
  9252  0E34  30D6               	movlw	low (STR_113| (0+32768))
  9253  0E35  00F8               	movwf	print_error@top
  9254  0E36  3092               	movlw	high (STR_113| (0+32768))
  9255  0E37  00F9               	movwf	print_error@top+1
  9256  0E38  3060               	movlw	low (STR_122| (0+32768))
  9257  0E39  00FA               	movwf	print_error@bottom
  9258  0E3A  3091               	movlw	high (STR_122| (0+32768))
  9259  0E3B  00FB               	movwf	print_error@bottom+1
  9260  0E3C  3182  223C  3188   	fcall	_print_error
  9261  0E3F                     l4284:	
  9262                           
  9263                           ;newmain1.c: 1928: }
  9264                           ;newmain1.c: 1930: if((RA0 == 1) && (RA1 == 1))
  9265  0E3F  0020               	movlb	0	; select bank0
  9266  0E40  180C               	btfsc	12,0	;volatile
  9267  0E41  1C8C               	btfss	12,1	;volatile
  9268  0E42  2E4E               	goto	l4290
  9269                           
  9270                           ;newmain1.c: 1931: {
  9271                           ;newmain1.c: 1932: print_error("Error Motor", "Circuit Err 3");
  9272  0E43  30D6               	movlw	low (STR_113| (0+32768))
  9273  0E44  00F8               	movwf	print_error@top
  9274  0E45  3092               	movlw	high (STR_113| (0+32768))
  9275  0E46  00F9               	movwf	print_error@top+1
  9276  0E47  306E               	movlw	low (STR_124| (0+32768))
  9277  0E48  00FA               	movwf	print_error@bottom
  9278  0E49  3091               	movlw	high (STR_124| (0+32768))
  9279  0E4A  00FB               	movwf	print_error@bottom+1
  9280  0E4B  3182  223C  3188   	fcall	_print_error
  9281  0E4E                     l4290:	
  9282                           
  9283                           ;newmain1.c: 1933: }
  9284                           ;newmain1.c: 1936: _delay((unsigned long)((10)*(16000000/4000.0)));
  9285  0E4E  3034               	movlw	52
  9286  0E4F  0020               	movlb	0	; select bank0
  9287  0E50  00E6               	movwf	??_main+1
  9288  0E51  30F1               	movlw	241
  9289  0E52  00E5               	movwf	??_main
  9290  0E53                     u3987:	
  9291  0E53  0BE5               	decfsz	??_main,f
  9292  0E54  2E53               	goto	u3987
  9293  0E55  0BE6               	decfsz	??_main+1,f
  9294  0E56  2E53               	goto	u3987
  9295  0E57  3200               	nop2
  9296  0E58  308E               	movlw	142
  9297                           
  9298                           ;newmain1.c: 1937: send_usart_packet_manage(142, 0);
  9299  0E59  01F1               	clrf	send_usart_packet_manage@Data_carry
  9300  0E5A  01F2               	clrf	send_usart_packet_manage@Data_carry+1
  9301  0E5B  3188  2036  3188   	fcall	_send_usart_packet_manage
  9302                           
  9303                           ;newmain1.c: 1938: Data_Temp_Work_int = receive_data_bytes(1000);
  9304  0E5E  30E8               	movlw	232
  9305  0E5F  00FC               	movwf	receive_data_bytes@time_out_first_byte
  9306  0E60  3003               	movlw	3
  9307  0E61  00FD               	movwf	receive_data_bytes@time_out_first_byte+1
  9308  0E62  3180  20C9  3188   	fcall	_receive_data_bytes
  9309  0E65  087D               	movf	?_receive_data_bytes+1,w
  9310  0E66  00A5               	movwf	_Data_Temp_Work_int+1
  9311  0E67  087C               	movf	?_receive_data_bytes,w
  9312  0E68  00A4               	movwf	_Data_Temp_Work_int
  9313                           
  9314                           ;newmain1.c: 1941: _delay((unsigned long)((100)*(16000000/4000.0)));
  9315  0E69  3003               	movlw	3
  9316  0E6A  00E7               	movwf	??_main+2
  9317  0E6B  3008               	movlw	8
  9318  0E6C  00E6               	movwf	??_main+1
  9319  0E6D  3078               	movlw	120
  9320  0E6E  00E5               	movwf	??_main
  9321  0E6F                     u3997:	
  9322  0E6F  0BE5               	decfsz	??_main,f
  9323  0E70  2E6F               	goto	u3997
  9324  0E71  0BE6               	decfsz	??_main+1,f
  9325  0E72  2E6F               	goto	u3997
  9326  0E73  0BE7               	decfsz	??_main+2,f
  9327  0E74  2E6F               	goto	u3997
  9328  0E75  3092               	movlw	146
  9329                           
  9330                           ;newmain1.c: 1942: send_usart_packet_manage(146, 1);
  9331  0E76  01F1               	clrf	send_usart_packet_manage@Data_carry
  9332  0E77  0AF1               	incf	send_usart_packet_manage@Data_carry,f
  9333  0E78  01F2               	clrf	send_usart_packet_manage@Data_carry+1
  9334  0E79  3188  2036  3188   	fcall	_send_usart_packet_manage
  9335                           
  9336                           ;newmain1.c: 1943: Data_Temp_Work_int = receive_data_bytes(1000);
  9337  0E7C  30E8               	movlw	232
  9338  0E7D  00FC               	movwf	receive_data_bytes@time_out_first_byte
  9339  0E7E  3003               	movlw	3
  9340  0E7F  00FD               	movwf	receive_data_bytes@time_out_first_byte+1
  9341  0E80  3180  20C9  3188   	fcall	_receive_data_bytes
  9342  0E83  087D               	movf	?_receive_data_bytes+1,w
  9343  0E84  00A5               	movwf	_Data_Temp_Work_int+1
  9344  0E85  087C               	movf	?_receive_data_bytes,w
  9345  0E86  00A4               	movwf	_Data_Temp_Work_int
  9346                           
  9347                           ;newmain1.c: 1946: print_screen("Testing", "Rx System");
  9348  0E87  30C6               	movlw	low (STR_73| (0+32768))
  9349  0E88  00F4               	movwf	print_screen@top
  9350  0E89  3093               	movlw	high (STR_73| (0+32768))
  9351  0E8A  00F5               	movwf	print_screen@top+1
  9352  0E8B  3046               	movlw	low (STR_132| (0+32768))
  9353  0E8C  00F6               	movwf	print_screen@bottom
  9354  0E8D  3093               	movlw	high (STR_132| (0+32768))
  9355  0E8E  00F7               	movwf	print_screen@bottom+1
  9356  0E8F  3182  221A  3188   	fcall	_print_screen
  9357                           
  9358                           ;newmain1.c: 1948: LATF4 = 1;
  9359  0E92  0027               	movlb	7	; select bank7
  9360  0E93  160C               	bsf	12,4	;volatile
  9361                           
  9362                           ;newmain1.c: 1949: _delay((unsigned long)((500)*(16000000/4000.0)));
  9363  0E94  300B               	movlw	11
  9364  0E95  0020               	movlb	0	; select bank0
  9365  0E96  00E7               	movwf	??_main+2
  9366  0E97  3026               	movlw	38
  9367  0E98  00E6               	movwf	??_main+1
  9368  0E99  3066               	movlw	102
  9369  0E9A  00E5               	movwf	??_main
  9370  0E9B                     u4007:	
  9371  0E9B  0BE5               	decfsz	??_main,f
  9372  0E9C  2E9B               	goto	u4007
  9373  0E9D  0BE6               	decfsz	??_main+1,f
  9374  0E9E  2E9B               	goto	u4007
  9375  0E9F  0BE7               	decfsz	??_main+2,f
  9376  0EA0  2E9B               	goto	u4007
  9377  0EA1  3200               	nop2
  9378                           
  9379                           ;newmain1.c: 1953: send_usart_packet_manage(252, 252);
  9380  0EA2  30FC               	movlw	252
  9381  0EA3  00F1               	movwf	send_usart_packet_manage@Data_carry
  9382  0EA4  01F2               	clrf	send_usart_packet_manage@Data_carry+1
  9383  0EA5  3188  2036  3188   	fcall	_send_usart_packet_manage
  9384                           
  9385                           ;newmain1.c: 1954: Data_Temp_Work_int = receive_data_bytes(2000);
  9386  0EA8  30D0               	movlw	208
  9387  0EA9  00FC               	movwf	receive_data_bytes@time_out_first_byte
  9388  0EAA  3007               	movlw	7
  9389  0EAB  00FD               	movwf	receive_data_bytes@time_out_first_byte+1
  9390  0EAC  3180  20C9  3188   	fcall	_receive_data_bytes
  9391  0EAF  087D               	movf	?_receive_data_bytes+1,w
  9392  0EB0  00A5               	movwf	_Data_Temp_Work_int+1
  9393  0EB1  087C               	movf	?_receive_data_bytes,w
  9394  0EB2  00A4               	movwf	_Data_Temp_Work_int
  9395                           
  9396                           ;newmain1.c: 1956: if(Data_Temp_Work_int == 1)
  9397  0EB3  0324               	decf	_Data_Temp_Work_int,w
  9398  0EB4  0425               	iorwf	_Data_Temp_Work_int+1,w
  9399  0EB5  1D03               	btfss	3,2
  9400  0EB6  2EC2               	goto	l4314
  9401                           
  9402                           ;newmain1.c: 1957: {
  9403                           ;newmain1.c: 1958: print_error("Error RF", "Timeout");
  9404  0EB7  3080               	movlw	low (STR_133| (0+32768))
  9405  0EB8  00F8               	movwf	print_error@top
  9406  0EB9  3093               	movlw	high (STR_133| (0+32768))
  9407  0EBA  00F9               	movwf	print_error@top+1
  9408  0EBB  30F2               	movlw	low ((STR_1+6)| (0+32768))
  9409  0EBC  00FA               	movwf	print_error@bottom
  9410  0EBD  3091               	movlw	high ((STR_1+6)| (0+32768))
  9411  0EBE  00FB               	movwf	print_error@bottom+1
  9412  0EBF  3182  223C  3188   	fcall	_print_error
  9413  0EC2                     l4314:	
  9414                           
  9415                           ;newmain1.c: 1959: }
  9416                           ;newmain1.c: 1961: LATF4 = 0;
  9417  0EC2  0027               	movlb	7	; select bank7
  9418  0EC3  120C               	bcf	12,4	;volatile
  9419                           
  9420                           ;newmain1.c: 1964: print_screen("Testing Charger", "");
  9421  0EC4  308C               	movlw	low (STR_135| (0+32768))
  9422  0EC5  00F4               	movwf	print_screen@top
  9423  0EC6  3090               	movlw	high (STR_135| (0+32768))
  9424  0EC7  00F5               	movwf	print_screen@top+1
  9425  0EC8  30F9               	movlw	low ((STR_163+4)| (0+32768))
  9426  0EC9  00F6               	movwf	print_screen@bottom
  9427  0ECA  3093               	movlw	high ((STR_163+4)| (0+32768))
  9428  0ECB  00F7               	movwf	print_screen@bottom+1
  9429  0ECC  3182  221A  3188   	fcall	_print_screen
  9430                           
  9431                           ;newmain1.c: 1972: LATB6 = 1;
  9432  0ECF  0022               	movlb	2	; select bank2
  9433  0ED0  170D               	bsf	13,6	;volatile
  9434                           
  9435                           ;newmain1.c: 1973: LATB4 = 1;
  9436  0ED1  160D               	bsf	13,4	;volatile
  9437                           
  9438                           ;newmain1.c: 1976: _delay((unsigned long)((150)*(16000000/4000.0)));
  9439  0ED2  3004               	movlw	4
  9440  0ED3  0020               	movlb	0	; select bank0
  9441  0ED4  00E7               	movwf	??_main+2
  9442  0ED5  300C               	movlw	12
  9443  0ED6  00E6               	movwf	??_main+1
  9444  0ED7  3035               	movlw	53
  9445  0ED8  00E5               	movwf	??_main
  9446  0ED9                     u4017:	
  9447  0ED9  0BE5               	decfsz	??_main,f
  9448  0EDA  2ED9               	goto	u4017
  9449  0EDB  0BE6               	decfsz	??_main+1,f
  9450  0EDC  2ED9               	goto	u4017
  9451  0EDD  0BE7               	decfsz	??_main+2,f
  9452  0EDE  2ED9               	goto	u4017
  9453  0EDF  3200               	nop2
  9454                           
  9455                           ;newmain1.c: 1978: ADC_val = ADC_get_val(0b01110101);
  9456  0EE0  3075               	movlw	117
  9457  0EE1  3184  2486  3188   	fcall	_ADC_get_val
  9458  0EE4  0871               	movf	?_ADC_get_val+1,w
  9459  0EE5  0020               	movlb	0	; select bank0
  9460  0EE6  00A3               	movwf	_ADC_val+1
  9461  0EE7  0870               	movf	?_ADC_get_val,w
  9462  0EE8  00A2               	movwf	_ADC_val
  9463                           
  9464                           ;newmain1.c: 1980: if(ADC_val > 641)
  9465  0EE9  3002               	movlw	2
  9466  0EEA  0223               	subwf	_ADC_val+1,w
  9467  0EEB  3082               	movlw	130
  9468  0EEC  1903               	skipnz
  9469  0EED  0222               	subwf	_ADC_val,w
  9470  0EEE  1C03               	skipc
  9471  0EEF  2EFB               	goto	l4328
  9472                           
  9473                           ;newmain1.c: 1981: {
  9474                           ;newmain1.c: 1982: print_error("Charge Err", "Voltage to High");
  9475  0EF0  301D               	movlw	low (STR_55| (0+32768))
  9476  0EF1  00F8               	movwf	print_error@top
  9477  0EF2  3093               	movlw	high (STR_55| (0+32768))
  9478  0EF3  00F9               	movwf	print_error@top+1
  9479  0EF4  307C               	movlw	low (STR_56| (0+32768))
  9480  0EF5  00FA               	movwf	print_error@bottom
  9481  0EF6  3090               	movlw	high (STR_56| (0+32768))
  9482  0EF7  00FB               	movwf	print_error@bottom+1
  9483  0EF8  3182  223C  3188   	fcall	_print_error
  9484  0EFB                     l4328:	
  9485                           
  9486                           ;newmain1.c: 1983: }
  9487                           ;newmain1.c: 1985: if(ADC_val < 618)
  9488  0EFB  3002               	movlw	2
  9489  0EFC  0020               	movlb	0	; select bank0
  9490  0EFD  0223               	subwf	_ADC_val+1,w
  9491  0EFE  306A               	movlw	106
  9492  0EFF  1903               	skipnz
  9493  0F00  0222               	subwf	_ADC_val,w
  9494  0F01  1803               	skipnc
  9495  0F02  2F0E               	goto	l4332
  9496                           
  9497                           ;newmain1.c: 1986: {
  9498                           ;newmain1.c: 1987: print_error("Charge Err", "Voltage to Low");
  9499  0F03  301D               	movlw	low (STR_55| (0+32768))
  9500  0F04  00F8               	movwf	print_error@top
  9501  0F05  3093               	movlw	high (STR_55| (0+32768))
  9502  0F06  00F9               	movwf	print_error@top+1
  9503  0F07  3035               	movlw	low (STR_58| (0+32768))
  9504  0F08  00FA               	movwf	print_error@bottom
  9505  0F09  3091               	movlw	high (STR_58| (0+32768))
  9506  0F0A  00FB               	movwf	print_error@bottom+1
  9507  0F0B  3182  223C  3188   	fcall	_print_error
  9508  0F0E                     l4332:	
  9509                           
  9510                           ;newmain1.c: 1998: }
  9511                           ;newmain1.c: 2001: CCPR9L = 254;
  9512  0F0E  30FE               	movlw	254
  9513  0F0F  002C               	movlb	12	; select bank12
  9514  0F10  009A               	movwf	26	;volatile
  9515                           
  9516                           ;newmain1.c: 2003: testjig_timer = 3000;
  9517  0F11  30B8               	movlw	184
  9518  0F12  0020               	movlb	0	; select bank0
  9519  0F13  00B8               	movwf	_testjig_timer	;volatile
  9520  0F14  300B               	movlw	11
  9521  0F15  00B9               	movwf	_testjig_timer+1	;volatile
  9522  0F16                     l4348:	
  9523                           ;newmain1.c: 2005: while(testjig_timer)
  9524                           
  9525  0F16  0020               	movlb	0	; select bank0
  9526  0F17  0838               	movf	_testjig_timer,w	;volatile
  9527  0F18  0439               	iorwf	_testjig_timer+1,w	;volatile
  9528  0F19  1903               	btfsc	3,2
  9529  0F1A  2F53               	goto	l4350
  9530                           
  9531                           ;newmain1.c: 2006: {
  9532                           ;newmain1.c: 2007: ADC_val = get_current();
  9533  0F1B  3184  245A  3188   	fcall	_get_current
  9534  0F1E  0862               	movf	?_get_current+1,w
  9535  0F1F  00A3               	movwf	_ADC_val+1
  9536  0F20  0861               	movf	?_get_current,w
  9537  0F21  00A2               	movwf	_ADC_val
  9538                           
  9539                           ;newmain1.c: 2009: if(ADC_val > 500)
  9540  0F22  3001               	movlw	1
  9541  0F23  0223               	subwf	_ADC_val+1,w
  9542  0F24  30F5               	movlw	245
  9543  0F25  1903               	skipnz
  9544  0F26  0222               	subwf	_ADC_val,w
  9545  0F27  1C03               	skipc
  9546  0F28  2F36               	goto	l4344
  9547                           
  9548                           ;newmain1.c: 2010: {
  9549                           ;newmain1.c: 2011: CCPR9L = 0;
  9550  0F29  002C               	movlb	12	; select bank12
  9551  0F2A  019A               	clrf	26	;volatile
  9552                           
  9553                           ;newmain1.c: 2012: print_error("Charger Err", "Curr too high");
  9554  0F2B  30E2               	movlw	low (STR_141| (0+32768))
  9555  0F2C  00F8               	movwf	print_error@top
  9556  0F2D  3092               	movlw	high (STR_141| (0+32768))
  9557  0F2E  00F9               	movwf	print_error@top+1
  9558  0F2F  30B4               	movlw	low (STR_142| (0+32768))
  9559  0F30  00FA               	movwf	print_error@bottom
  9560  0F31  3091               	movlw	high (STR_142| (0+32768))
  9561  0F32  00FB               	movwf	print_error@bottom+1
  9562  0F33  3182  223C  3188   	fcall	_print_error
  9563  0F36                     l4344:	
  9564                           
  9565                           ;newmain1.c: 2013: }
  9566                           ;newmain1.c: 2015: lcd_print_int(ADC_val, 1, 0b00001000, 1);
  9567  0F36  0020               	movlb	0	; select bank0
  9568  0F37  0823               	movf	_ADC_val+1,w
  9569  0F38  00C9               	movwf	lcd_print_int@number+1
  9570  0F39  0822               	movf	_ADC_val,w
  9571  0F3A  00C8               	movwf	lcd_print_int@number
  9572  0F3B  3008               	movlw	8
  9573  0F3C  01CA               	clrf	lcd_print_int@pos
  9574  0F3D  0ACA               	incf	lcd_print_int@pos,f
  9575  0F3E  01CB               	clrf	lcd_print_int@pos+1
  9576  0F3F  00CC               	movwf	lcd_print_int@decimal
  9577  0F40  01CD               	clrf	lcd_print_int@ten_thou_digit
  9578  0F41  0ACD               	incf	lcd_print_int@ten_thou_digit,f
  9579  0F42  3181  2199  3188   	fcall	_lcd_print_int
  9580                           
  9581                           ;newmain1.c: 2017: _delay((unsigned long)((100)*(16000000/4000.0)));
  9582  0F45  3003               	movlw	3
  9583  0F46  0020               	movlb	0	; select bank0
  9584  0F47  00E7               	movwf	??_main+2
  9585  0F48  3008               	movlw	8
  9586  0F49  00E6               	movwf	??_main+1
  9587  0F4A  3078               	movlw	120
  9588  0F4B  00E5               	movwf	??_main
  9589  0F4C                     u4027:	
  9590  0F4C  0BE5               	decfsz	??_main,f
  9591  0F4D  2F4C               	goto	u4027
  9592  0F4E  0BE6               	decfsz	??_main+1,f
  9593  0F4F  2F4C               	goto	u4027
  9594  0F50  0BE7               	decfsz	??_main+2,f
  9595  0F51  2F4C               	goto	u4027
  9596  0F52  2F16               	goto	l4348
  9597  0F53                     l4350:	
  9598                           
  9599                           ;newmain1.c: 2018: }
  9600                           ;newmain1.c: 2020: if(ADC_val < 200)
  9601  0F53  3000               	movlw	0
  9602  0F54  0223               	subwf	_ADC_val+1,w
  9603  0F55  30C8               	movlw	200
  9604  0F56  1903               	skipnz
  9605  0F57  0222               	subwf	_ADC_val,w
  9606  0F58  1803               	skipnc
  9607  0F59  2F67               	goto	l4356
  9608                           
  9609                           ;newmain1.c: 2021: {
  9610                           ;newmain1.c: 2022: CCPR9L = 0;
  9611  0F5A  002C               	movlb	12	; select bank12
  9612  0F5B  019A               	clrf	26	;volatile
  9613                           
  9614                           ;newmain1.c: 2023: print_error("Charger Err", "Curr too low");
  9615  0F5C  30E2               	movlw	low (STR_141| (0+32768))
  9616  0F5D  00F8               	movwf	print_error@top
  9617  0F5E  3092               	movlw	high (STR_141| (0+32768))
  9618  0F5F  00F9               	movwf	print_error@top+1
  9619  0F60  3099               	movlw	low (STR_144| (0+32768))
  9620  0F61  00FA               	movwf	print_error@bottom
  9621  0F62  3092               	movlw	high (STR_144| (0+32768))
  9622  0F63  00FB               	movwf	print_error@bottom+1
  9623  0F64  3182  223C  3188   	fcall	_print_error
  9624  0F67                     l4356:	
  9625                           
  9626                           ;newmain1.c: 2024: }
  9627                           ;newmain1.c: 2026: CCPR9L = 0;
  9628  0F67  002C               	movlb	12	; select bank12
  9629  0F68  019A               	clrf	26	;volatile
  9630                           
  9631                           ;newmain1.c: 2027: _delay((unsigned long)((100)*(16000000/4000.0)));
  9632  0F69  3003               	movlw	3
  9633  0F6A  0020               	movlb	0	; select bank0
  9634  0F6B  00E7               	movwf	??_main+2
  9635  0F6C  3008               	movlw	8
  9636  0F6D  00E6               	movwf	??_main+1
  9637  0F6E  3078               	movlw	120
  9638  0F6F  00E5               	movwf	??_main
  9639  0F70                     u4037:	
  9640  0F70  0BE5               	decfsz	??_main,f
  9641  0F71  2F70               	goto	u4037
  9642  0F72  0BE6               	decfsz	??_main+1,f
  9643  0F73  2F70               	goto	u4037
  9644  0F74  0BE7               	decfsz	??_main+2,f
  9645  0F75  2F70               	goto	u4037
  9646                           
  9647                           ;newmain1.c: 2028: LATB4 = 0;
  9648  0F76  0022               	movlb	2	; select bank2
  9649  0F77  120D               	bcf	13,4	;volatile
  9650                           
  9651                           ;newmain1.c: 2029: LATB6 = 1;
  9652  0F78  170D               	bsf	13,6	;volatile
  9653                           
  9654                           ;newmain1.c: 2030: _delay((unsigned long)((400)*(16000000/4000.0)));
  9655  0F79  3009               	movlw	9
  9656  0F7A  0020               	movlb	0	; select bank0
  9657  0F7B  00E7               	movwf	??_main+2
  9658  0F7C  301E               	movlw	30
  9659  0F7D  00E6               	movwf	??_main+1
  9660  0F7E  30EB               	movlw	235
  9661  0F7F  00E5               	movwf	??_main
  9662  0F80                     u4047:	
  9663  0F80  0BE5               	decfsz	??_main,f
  9664  0F81  2F80               	goto	u4047
  9665  0F82  0BE6               	decfsz	??_main+1,f
  9666  0F83  2F80               	goto	u4047
  9667  0F84  0BE7               	decfsz	??_main+2,f
  9668  0F85  2F80               	goto	u4047
  9669  0F86  0000               	nop
  9670                           
  9671                           ;newmain1.c: 2033: _delay((unsigned long)((10)*(16000000/4000.0)));
  9672  0F87  3034               	movlw	52
  9673  0F88  0020               	movlb	0	; select bank0
  9674  0F89  00E6               	movwf	??_main+1
  9675  0F8A  30F1               	movlw	241
  9676  0F8B  00E5               	movwf	??_main
  9677  0F8C                     u4057:	
  9678  0F8C  0BE5               	decfsz	??_main,f
  9679  0F8D  2F8C               	goto	u4057
  9680  0F8E  0BE6               	decfsz	??_main+1,f
  9681  0F8F  2F8C               	goto	u4057
  9682  0F90  3200               	nop2
  9683                           
  9684                           ;newmain1.c: 2035: RC2STAbits.SPEN = 0;
  9685  0F91  0029               	movlb	9	; select bank9
  9686  0F92  1395               	bcf	21,7	;volatile
  9687                           
  9688                           ;newmain1.c: 2036: _delay((unsigned long)((1)*(16000000/4000.0)));
  9689  0F93  3006               	movlw	6
  9690  0F94  0020               	movlb	0	; select bank0
  9691  0F95  00E6               	movwf	??_main+1
  9692  0F96  3030               	movlw	48
  9693  0F97  00E5               	movwf	??_main
  9694  0F98                     u4067:	
  9695  0F98  0BE5               	decfsz	??_main,f
  9696  0F99  2F98               	goto	u4067
  9697  0F9A  0BE6               	decfsz	??_main+1,f
  9698  0F9B  2F98               	goto	u4067
  9699  0F9C  0000               	nop
  9700                           
  9701                           ;newmain1.c: 2037: RC2STAbits.SPEN = 1;
  9702  0F9D  0029               	movlb	9	; select bank9
  9703  0F9E  1795               	bsf	21,7	;volatile
  9704                           
  9705                           ;newmain1.c: 2039: send_usart_packet_manage(253, 253);
  9706  0F9F  30FD               	movlw	253
  9707  0FA0  00F1               	movwf	send_usart_packet_manage@Data_carry
  9708  0FA1  01F2               	clrf	send_usart_packet_manage@Data_carry+1
  9709  0FA2  3188  2036  3188   	fcall	_send_usart_packet_manage
  9710                           
  9711                           ;newmain1.c: 2040: Data_Temp_Work_int = receive_data_bytes(1000);
  9712  0FA5  30E8               	movlw	232
  9713  0FA6  00FC               	movwf	receive_data_bytes@time_out_first_byte
  9714  0FA7  3003               	movlw	3
  9715  0FA8  00FD               	movwf	receive_data_bytes@time_out_first_byte+1
  9716  0FA9  3180  20C9  3188   	fcall	_receive_data_bytes
  9717  0FAC  087D               	movf	?_receive_data_bytes+1,w
  9718  0FAD  00A5               	movwf	_Data_Temp_Work_int+1
  9719  0FAE  087C               	movf	?_receive_data_bytes,w
  9720  0FAF  00A4               	movwf	_Data_Temp_Work_int
  9721                           
  9722                           ;newmain1.c: 2041: _delay((unsigned long)((500)*(16000000/4000.0)));
  9723  0FB0  300B               	movlw	11
  9724  0FB1  00E7               	movwf	??_main+2
  9725  0FB2  3026               	movlw	38
  9726  0FB3  00E6               	movwf	??_main+1
  9727  0FB4  3066               	movlw	102
  9728  0FB5  00E5               	movwf	??_main
  9729  0FB6                     u4077:	
  9730  0FB6  0BE5               	decfsz	??_main,f
  9731  0FB7  2FB6               	goto	u4077
  9732  0FB8  0BE6               	decfsz	??_main+1,f
  9733  0FB9  2FB6               	goto	u4077
  9734  0FBA  0BE7               	decfsz	??_main+2,f
  9735  0FBB  2FB6               	goto	u4077
  9736  0FBC  3200               	nop2
  9737                           
  9738                           ;newmain1.c: 2043: print_screen("Test Pass", "");
  9739  0FBD  305A               	movlw	low (STR_145| (0+32768))
  9740  0FBE  00F4               	movwf	print_screen@top
  9741  0FBF  3093               	movlw	high (STR_145| (0+32768))
  9742  0FC0  00F5               	movwf	print_screen@top+1
  9743  0FC1  30F9               	movlw	low ((STR_163+4)| (0+32768))
  9744  0FC2  00F6               	movwf	print_screen@bottom
  9745  0FC3  3093               	movlw	high ((STR_163+4)| (0+32768))
  9746  0FC4  00F7               	movwf	print_screen@bottom+1
  9747  0FC5  3182  221A  3188   	fcall	_print_screen
  9748                           
  9749                           ;newmain1.c: 2044: power_supply_set(4);
  9750  0FC8  3004               	movlw	4
  9751  0FC9  3184  242B  3188   	fcall	_power_supply_set
  9752                           
  9753                           ;newmain1.c: 2046: buzz_timer = 500 ; LATC5 = 1;
  9754  0FCC  30F4               	movlw	244
  9755  0FCD  0020               	movlb	0	; select bank0
  9756  0FCE  00A6               	movwf	_buzz_timer	;volatile
  9757  0FCF  3001               	movlw	1
  9758  0FD0  00A7               	movwf	_buzz_timer+1	;volatile
  9759  0FD1  0022               	movlb	2	; select bank2
  9760  0FD2  168E               	bsf	14,5	;volatile
  9761  0FD3                     l526:	
  9762                           ;newmain1.c: 2047: while(LATC5 == 1);
  9763                           
  9764  0FD3  1A8E               	btfsc	14,5	;volatile
  9765  0FD4  2FD3               	goto	l526
  9766                           
  9767                           ;newmain1.c: 2048: _delay((unsigned long)((200)*(16000000/4000.0)));
  9768  0FD5  3005               	movlw	5
  9769  0FD6  0020               	movlb	0	; select bank0
  9770  0FD7  00E7               	movwf	??_main+2
  9771  0FD8  300F               	movlw	15
  9772  0FD9  00E6               	movwf	??_main+1
  9773  0FDA  30F4               	movlw	244
  9774  0FDB  00E5               	movwf	??_main
  9775  0FDC                     u4087:	
  9776  0FDC  0BE5               	decfsz	??_main,f
  9777  0FDD  2FDC               	goto	u4087
  9778  0FDE  0BE6               	decfsz	??_main+1,f
  9779  0FDF  2FDC               	goto	u4087
  9780  0FE0  0BE7               	decfsz	??_main+2,f
  9781  0FE1  2FDC               	goto	u4087
  9782                           
  9783                           ;newmain1.c: 2049: buzz_timer = 500 ; LATC5 = 1;
  9784  0FE2  30F4               	movlw	244
  9785  0FE3  0020               	movlb	0	; select bank0
  9786  0FE4  00A6               	movwf	_buzz_timer	;volatile
  9787  0FE5  3001               	movlw	1
  9788  0FE6  00A7               	movwf	_buzz_timer+1	;volatile
  9789  0FE7  0022               	movlb	2	; select bank2
  9790  0FE8  168E               	bsf	14,5	;volatile
  9791  0FE9                     l529:	
  9792                           ;newmain1.c: 2050: while(LATC5 == 1);
  9793                           
  9794  0FE9  1A8E               	btfsc	14,5	;volatile
  9795  0FEA  2FE9               	goto	l529
  9796                           
  9797                           ;newmain1.c: 2051: _delay((unsigned long)((200)*(16000000/4000.0)));
  9798  0FEB  3005               	movlw	5
  9799  0FEC  0020               	movlb	0	; select bank0
  9800  0FED  00E7               	movwf	??_main+2
  9801  0FEE  300F               	movlw	15
  9802  0FEF  00E6               	movwf	??_main+1
  9803  0FF0  30F4               	movlw	244
  9804  0FF1  00E5               	movwf	??_main
  9805  0FF2                     u4097:	
  9806  0FF2  0BE5               	decfsz	??_main,f
  9807  0FF3  2FF2               	goto	u4097
  9808  0FF4  0BE6               	decfsz	??_main+1,f
  9809  0FF5  2FF2               	goto	u4097
  9810  0FF6  0BE7               	decfsz	??_main+2,f
  9811  0FF7  2FF2               	goto	u4097
  9812                           
  9813                           ;newmain1.c: 2052: buzz_timer = 1000 ; LATC5 = 1;
  9814  0FF8  30E8               	movlw	232
  9815  0FF9  0020               	movlb	0	; select bank0
  9816  0FFA  00A6               	movwf	_buzz_timer	;volatile
  9817  0FFB  3003               	movlw	3
  9818  0FFC  00A7               	movwf	_buzz_timer+1	;volatile
  9819  0FFD  0022               	movlb	2	; select bank2
  9820  0FFE  168E               	bsf	14,5	;volatile
  9821  0FFF                     l532:	
  9822                           ;newmain1.c: 2054: while(1)
  9823                           
  9824                           
  9825                           ;newmain1.c: 2055: {}
  9826  0FFF  2FFF               	goto	l532
  9827  1000                     __end_of_main:	


Data Sizes:
    Strings     1023
    Constant    0
    Data        2
    BSS         40
    Persistent  0
    Stack       0

Auto Spaces:
    Space          Size  Autos    Used
    COMMON           14     14      14
    BANK0            80     32      75
    BANK1            80      0       0
    BANK2            80      0       0
    BANK3            80      0       0
    BANK4            80      0       0
    BANK5            80      0       0
    BANK6            80      0       0
    BANK7            80      0       0
    BANK8            80      0       0
    BANK9            80      0       0
    BANK10           80      0       0
    BANK11           80      0       0
    BANK12           80      0       0
    BANK13           80      0       0
    BANK14           80      0       0
    BANK15           80      0       0
    BANK16           80      0       0
    BANK17           80      0       0
    BANK18           80      0       0

Pointer List with Targets:

    print_screen@bottom	PTR const unsigned char  size(2) Largest target is 22
		 -> STR_178(CODE[17]), STR_176(CODE[14]), STR_174(CODE[14]), STR_172(CODE[14]), 
		 -> STR_170(CODE[14]), STR_168(CODE[8]), STR_166(CODE[9]), STR_164(CODE[9]), 
		 -> STR_162(CODE[9]), STR_160(CODE[17]), STR_156(CODE[14]), STR_154(CODE[14]), 
		 -> STR_152(CODE[14]), STR_150(CODE[14]), STR_148(CODE[14]), STR_146(CODE[1]), 
		 -> STR_136(CODE[1]), STR_132(CODE[10]), STR_112(CODE[14]), STR_108(CODE[13]), 
		 -> STR_106(CODE[16]), STR_104(CODE[16]), STR_102(CODE[16]), STR_100(CODE[16]), 
		 -> STR_98(CODE[10]), STR_96(CODE[10]), STR_74(CODE[14]), STR_50(CODE[5]), 
		 -> STR_46(CODE[1]), STR_44(CODE[9]), STR_38(CODE[1]), STR_32(CODE[1]), 
		 -> STR_26(CODE[1]), STR_22(CODE[1]), STR_18(CODE[10]), STR_14(CODE[8]), 
		 -> STR_12(CODE[22]), STR_10(CODE[9]), STR_8(CODE[22]), STR_6(CODE[17]), 

    print_screen@top	PTR const unsigned char  size(2) Largest target is 18
		 -> STR_177(CODE[12]), STR_175(CODE[16]), STR_173(CODE[16]), STR_171(CODE[12]), 
		 -> STR_169(CODE[15]), STR_167(CODE[13]), STR_165(CODE[16]), STR_163(CODE[5]), 
		 -> STR_161(CODE[8]), STR_159(CODE[17]), STR_155(CODE[10]), STR_153(CODE[18]), 
		 -> STR_151(CODE[16]), STR_149(CODE[9]), STR_147(CODE[12]), STR_145(CODE[10]), 
		 -> STR_135(CODE[16]), STR_131(CODE[8]), STR_111(CODE[8]), STR_107(CODE[8]), 
		 -> STR_105(CODE[10]), STR_103(CODE[9]), STR_101(CODE[14]), STR_99(CODE[13]), 
		 -> STR_97(CODE[6]), STR_95(CODE[6]), STR_73(CODE[8]), STR_49(CODE[12]), 
		 -> STR_45(CODE[14]), STR_43(CODE[12]), STR_37(CODE[15]), STR_31(CODE[13]), 
		 -> STR_25(CODE[14]), STR_21(CODE[13]), STR_17(CODE[10]), STR_13(CODE[15]), 
		 -> STR_11(CODE[16]), STR_9(CODE[6]), STR_7(CODE[16]), STR_5(CODE[13]), 

    print_error@bottom	PTR const unsigned char  size(2) Largest target is 17
		 -> STR_158(CODE[17]), STR_144(CODE[13]), STR_142(CODE[14]), STR_140(CODE[15]), 
		 -> STR_138(CODE[16]), STR_134(CODE[8]), STR_130(CODE[14]), STR_128(CODE[14]), 
		 -> STR_126(CODE[14]), STR_124(CODE[14]), STR_122(CODE[14]), STR_120(CODE[14]), 
		 -> STR_118(CODE[13]), STR_116(CODE[14]), STR_114(CODE[14]), STR_110(CODE[15]), 
		 -> STR_94(CODE[14]), STR_92(CODE[14]), STR_90(CODE[12]), STR_88(CODE[9]), 
		 -> STR_86(CODE[9]), STR_84(CODE[12]), STR_82(CODE[16]), STR_80(CODE[14]), 
		 -> STR_78(CODE[14]), STR_76(CODE[14]), STR_72(CODE[6]), STR_70(CODE[7]), 
		 -> STR_68(CODE[13]), STR_66(CODE[8]), STR_64(CODE[9]), STR_62(CODE[8]), 
		 -> STR_60(CODE[9]), STR_58(CODE[15]), STR_56(CODE[16]), STR_54(CODE[8]), 
		 -> STR_52(CODE[9]), STR_48(CODE[6]), STR_42(CODE[9]), STR_40(CODE[8]), 
		 -> STR_36(CODE[9]), STR_34(CODE[8]), STR_30(CODE[9]), STR_28(CODE[8]), 
		 -> STR_24(CODE[8]), STR_20(CODE[9]), STR_16(CODE[12]), STR_4(CODE[1]), 
		 -> STR_2(CODE[1]), 

    print_error@top	PTR const unsigned char  size(2) Largest target is 17
		 -> STR_157(CODE[17]), STR_143(CODE[12]), STR_141(CODE[12]), STR_139(CODE[11]), 
		 -> STR_137(CODE[11]), STR_133(CODE[9]), STR_129(CODE[12]), STR_127(CODE[12]), 
		 -> STR_125(CODE[12]), STR_123(CODE[12]), STR_121(CODE[12]), STR_119(CODE[12]), 
		 -> STR_117(CODE[12]), STR_115(CODE[12]), STR_113(CODE[12]), STR_109(CODE[6]), 
		 -> STR_93(CODE[6]), STR_91(CODE[6]), STR_89(CODE[6]), STR_87(CODE[6]), 
		 -> STR_85(CODE[6]), STR_83(CODE[6]), STR_81(CODE[6]), STR_79(CODE[6]), 
		 -> STR_77(CODE[6]), STR_75(CODE[6]), STR_71(CODE[15]), STR_69(CODE[15]), 
		 -> STR_67(CODE[15]), STR_65(CODE[10]), STR_63(CODE[10]), STR_61(CODE[9]), 
		 -> STR_59(CODE[9]), STR_57(CODE[11]), STR_55(CODE[11]), STR_53(CODE[13]), 
		 -> STR_51(CODE[13]), STR_47(CODE[12]), STR_41(CODE[13]), STR_39(CODE[13]), 
		 -> STR_35(CODE[11]), STR_33(CODE[11]), STR_29(CODE[12]), STR_27(CODE[12]), 
		 -> STR_23(CODE[15]), STR_19(CODE[10]), STR_15(CODE[6]), STR_3(CODE[15]), 
		 -> STR_1(CODE[14]), 

    i2c_Write_string@data	PTR const unsigned char  size(2) Largest target is 22
		 -> STR_178(CODE[17]), STR_177(CODE[12]), STR_176(CODE[14]), STR_175(CODE[16]), 
		 -> STR_174(CODE[14]), STR_173(CODE[16]), STR_172(CODE[14]), STR_171(CODE[12]), 
		 -> STR_170(CODE[14]), STR_169(CODE[15]), STR_168(CODE[8]), STR_167(CODE[13]), 
		 -> STR_166(CODE[9]), STR_165(CODE[16]), STR_164(CODE[9]), STR_163(CODE[5]), 
		 -> STR_162(CODE[9]), STR_161(CODE[8]), STR_160(CODE[17]), STR_159(CODE[17]), 
		 -> STR_158(CODE[17]), STR_157(CODE[17]), STR_156(CODE[14]), STR_155(CODE[10]), 
		 -> STR_154(CODE[14]), STR_153(CODE[18]), STR_152(CODE[14]), STR_151(CODE[16]), 
		 -> STR_150(CODE[14]), STR_149(CODE[9]), STR_148(CODE[14]), STR_147(CODE[12]), 
		 -> STR_146(CODE[1]), STR_145(CODE[10]), STR_144(CODE[13]), STR_143(CODE[12]), 
		 -> STR_142(CODE[14]), STR_141(CODE[12]), STR_140(CODE[15]), STR_139(CODE[11]), 
		 -> STR_138(CODE[16]), STR_137(CODE[11]), STR_136(CODE[1]), STR_135(CODE[16]), 
		 -> STR_134(CODE[8]), STR_133(CODE[9]), STR_132(CODE[10]), STR_131(CODE[8]), 
		 -> STR_130(CODE[14]), STR_129(CODE[12]), STR_128(CODE[14]), STR_127(CODE[12]), 
		 -> STR_126(CODE[14]), STR_125(CODE[12]), STR_124(CODE[14]), STR_123(CODE[12]), 
		 -> STR_122(CODE[14]), STR_121(CODE[12]), STR_120(CODE[14]), STR_119(CODE[12]), 
		 -> STR_118(CODE[13]), STR_117(CODE[12]), STR_116(CODE[14]), STR_115(CODE[12]), 
		 -> STR_114(CODE[14]), STR_113(CODE[12]), STR_112(CODE[14]), STR_111(CODE[8]), 
		 -> STR_110(CODE[15]), STR_109(CODE[6]), STR_108(CODE[13]), STR_107(CODE[8]), 
		 -> STR_106(CODE[16]), STR_105(CODE[10]), STR_104(CODE[16]), STR_103(CODE[9]), 
		 -> STR_102(CODE[16]), STR_101(CODE[14]), STR_100(CODE[16]), STR_99(CODE[13]), 
		 -> STR_98(CODE[10]), STR_97(CODE[6]), STR_96(CODE[10]), STR_95(CODE[6]), 
		 -> STR_94(CODE[14]), STR_93(CODE[6]), STR_92(CODE[14]), STR_91(CODE[6]), 
		 -> STR_90(CODE[12]), STR_89(CODE[6]), STR_88(CODE[9]), STR_87(CODE[6]), 
		 -> STR_86(CODE[9]), STR_85(CODE[6]), STR_84(CODE[12]), STR_83(CODE[6]), 
		 -> STR_82(CODE[16]), STR_81(CODE[6]), STR_80(CODE[14]), STR_79(CODE[6]), 
		 -> STR_78(CODE[14]), STR_77(CODE[6]), STR_76(CODE[14]), STR_75(CODE[6]), 
		 -> STR_74(CODE[14]), STR_73(CODE[8]), STR_72(CODE[6]), STR_71(CODE[15]), 
		 -> STR_70(CODE[7]), STR_69(CODE[15]), STR_68(CODE[13]), STR_67(CODE[15]), 
		 -> STR_66(CODE[8]), STR_65(CODE[10]), STR_64(CODE[9]), STR_63(CODE[10]), 
		 -> STR_62(CODE[8]), STR_61(CODE[9]), STR_60(CODE[9]), STR_59(CODE[9]), 
		 -> STR_58(CODE[15]), STR_57(CODE[11]), STR_56(CODE[16]), STR_55(CODE[11]), 
		 -> STR_54(CODE[8]), STR_53(CODE[13]), STR_52(CODE[9]), STR_51(CODE[13]), 
		 -> STR_50(CODE[5]), STR_49(CODE[12]), STR_48(CODE[6]), STR_47(CODE[12]), 
		 -> STR_46(CODE[1]), STR_45(CODE[14]), STR_44(CODE[9]), STR_43(CODE[12]), 
		 -> STR_42(CODE[9]), STR_41(CODE[13]), STR_40(CODE[8]), STR_39(CODE[13]), 
		 -> STR_38(CODE[1]), STR_37(CODE[15]), STR_36(CODE[9]), STR_35(CODE[11]), 
		 -> STR_34(CODE[8]), STR_33(CODE[11]), STR_32(CODE[1]), STR_31(CODE[13]), 
		 -> STR_30(CODE[9]), STR_29(CODE[12]), STR_28(CODE[8]), STR_27(CODE[12]), 
		 -> STR_26(CODE[1]), STR_25(CODE[14]), STR_24(CODE[8]), STR_23(CODE[15]), 
		 -> STR_22(CODE[1]), STR_21(CODE[13]), STR_20(CODE[9]), STR_19(CODE[10]), 
		 -> STR_18(CODE[10]), STR_17(CODE[10]), STR_16(CODE[12]), STR_15(CODE[6]), 
		 -> STR_14(CODE[8]), STR_13(CODE[15]), STR_12(CODE[22]), STR_11(CODE[16]), 
		 -> STR_10(CODE[9]), STR_9(CODE[6]), STR_8(CODE[22]), STR_7(CODE[16]), 
		 -> STR_6(CODE[17]), STR_5(CODE[13]), STR_4(CODE[1]), STR_3(CODE[15]), 
		 -> STR_2(CODE[1]), STR_1(CODE[14]), 


Critical Paths under _main in COMMON

    _main->_receive_data_bytes
    _send_usart_packet_manage->_EUSART1_Write
    _receive_data_bytes->_print_error
    _print_error->_print_screen
    _print_screen->_i2c_Write_string
    _i2c_second_line->_i2c_Write
    _i2c_first_line->_i2c_Write
    _i2c_Write_string->_i2c_Write
    _clear_lcd->_i2c_Write
    _lcd_print_int->_ten_thou_conv
    _ten_thou_conv->___wmul
    _lcd_set_cursor->_i2c_Write
    _i2c_write_char->_i2c_Write
    _init_i2c_lcd_5v->_i2c_Write
    _get_current->___ftmul
    ___lwtoft->___ftpack
    ___fttol->___ftmul
    ___ftmul->___lwtoft

Critical Paths under _isr in COMMON

    None.

Critical Paths under _main in BANK0

    _main->_get_current
    _receive_data_bytes->_print_error
    _get_current->___fttol
    ___fttol->___ftmul

Critical Paths under _isr in BANK0

    None.

Critical Paths under _main in BANK1

    None.

Critical Paths under _isr in BANK1

    None.

Critical Paths under _main in BANK2

    None.

Critical Paths under _isr in BANK2

    None.

Critical Paths under _main in BANK3

    None.

Critical Paths under _isr in BANK3

    None.

Critical Paths under _main in BANK4

    None.

Critical Paths under _isr in BANK4

    None.

Critical Paths under _main in BANK5

    None.

Critical Paths under _isr in BANK5

    None.

Critical Paths under _main in BANK6

    None.

Critical Paths under _isr in BANK6

    None.

Critical Paths under _main in BANK7

    None.

Critical Paths under _isr in BANK7

    None.

Critical Paths under _main in BANK8

    None.

Critical Paths under _isr in BANK8

    None.

Critical Paths under _main in BANK9

    None.

Critical Paths under _isr in BANK9

    None.

Critical Paths under _main in BANK10

    None.

Critical Paths under _isr in BANK10

    None.

Critical Paths under _main in BANK11

    None.

Critical Paths under _isr in BANK11

    None.

Critical Paths under _main in BANK12

    None.

Critical Paths under _isr in BANK12

    None.

Critical Paths under _main in BANK13

    None.

Critical Paths under _isr in BANK13

    None.

Critical Paths under _main in BANK14

    None.

Critical Paths under _isr in BANK14

    None.

Critical Paths under _main in BANK15

    None.

Critical Paths under _isr in BANK15

    None.

Critical Paths under _main in BANK16

    None.

Critical Paths under _isr in BANK16

    None.

Critical Paths under _main in BANK17

    None.

Critical Paths under _isr in BANK17

    None.

Critical Paths under _main in BANK18

    None.

Critical Paths under _isr in BANK18

    None.

Call Graph Tables:

 ---------------------------------------------------------------------------------
 (Depth) Function   	        Calls       Base Space   Used Autos Params    Refs
 ---------------------------------------------------------------------------------
 (0) _main                                                 3     3      0   39934
                                             29 BANK0      3     3      0
                        _ADC_get_val
                           _buzz_one
                      _debug_fast_tx
                        _get_current
                           _init_ADC
                  _init_current_sink
                           _init_i2c
                    _init_i2c_lcd_5v
                         _init_uart1
                         _init_uart2
                      _lcd_print_int
                   _power_supply_set
                        _print_error
                       _print_screen
                 _receive_data_bytes
           _send_usart_packet_manage
 ---------------------------------------------------------------------------------
 (1) _send_usart_packet_manage                            15    13      2    3156
                                              1 COMMON     8     6      2
                                              0 BANK0      7     7      0
                      _EUSART1_Write
 ---------------------------------------------------------------------------------
 (2) _EUSART1_Write                                        1     1      0      22
                                              0 COMMON     1     1      0
 ---------------------------------------------------------------------------------
 (1) _receive_data_bytes                                  21    19      2   13596
                                             12 COMMON     2     0      2
                                              3 BANK0     17    17      0
                   _manage_read_byte
                        _print_error
 ---------------------------------------------------------------------------------
 (2) _print_error                                          7     3      4   10458
                                              8 COMMON     4     0      4
                                              0 BANK0      3     3      0
                           _buzz_one
                          _clear_lcd
                      _debug_fast_tx
                   _i2c_Write_string
                     _i2c_first_line
                    _i2c_second_line
                   _power_supply_set
                       _print_screen
 ---------------------------------------------------------------------------------
 (3) _print_screen                                         4     0      4    4265
                                              4 COMMON     4     0      4
                          _clear_lcd
                   _i2c_Write_string
                     _i2c_first_line
                    _i2c_second_line
 ---------------------------------------------------------------------------------
 (4) _i2c_second_line                                      1     1      0      22
                                              1 COMMON     1     1      0
                          _i2c_Start
                           _i2c_Stop
                          _i2c_Write
 ---------------------------------------------------------------------------------
 (4) _i2c_first_line                                       1     1      0      22
                                              1 COMMON     1     1      0
                          _i2c_Start
                           _i2c_Stop
                          _i2c_Write
 ---------------------------------------------------------------------------------
 (4) _i2c_Write_string                                     3     1      2     279
                                              1 COMMON     3     1      2
                          _i2c_Start
                           _i2c_Stop
                          _i2c_Write
 ---------------------------------------------------------------------------------
 (4) _clear_lcd                                            2     2      0      22
                                              1 COMMON     2     2      0
                          _i2c_Start
                           _i2c_Stop
                          _i2c_Write
 ---------------------------------------------------------------------------------
 (3) _power_supply_set                                     1     1      0      22
                                              0 COMMON     1     1      0
 ---------------------------------------------------------------------------------
 (3) _debug_fast_tx                                        3     1      2     428
                                              0 COMMON     3     1      2
 ---------------------------------------------------------------------------------
 (3) _buzz_one                                             2     0      2     186
                                              0 COMMON     2     0      2
 ---------------------------------------------------------------------------------
 (2) _manage_read_byte                                     1     1      0      22
                                              0 COMMON     1     1      0
 ---------------------------------------------------------------------------------
 (1) _lcd_print_int                                        6     0      6    3352
                                              0 BANK0      6     0      6
                     _i2c_write_char
                     _lcd_set_cursor
                      _ten_thou_conv
 ---------------------------------------------------------------------------------
 (2) _ten_thou_conv                                        5     3      2    2205
                                              6 COMMON     5     3      2
                             ___bmul
                             ___wmul
 ---------------------------------------------------------------------------------
 (3) ___wmul                                               6     2      4    1156
                                              0 COMMON     6     2      4
 ---------------------------------------------------------------------------------
 (3) ___bmul                                               3     2      1     908
                                              0 COMMON     3     2      1
 ---------------------------------------------------------------------------------
 (2) _lcd_set_cursor                                       3     2      1     147
                                              1 COMMON     3     2      1
                          _i2c_Start
                           _i2c_Stop
                          _i2c_Write
 ---------------------------------------------------------------------------------
 (2) _i2c_write_char                                       1     1      0      44
                                              1 COMMON     1     1      0
                          _i2c_Start
                           _i2c_Stop
                          _i2c_Write
 ---------------------------------------------------------------------------------
 (1) _init_uart2                                           0     0      0       0
 ---------------------------------------------------------------------------------
 (1) _init_uart1                                           0     0      0       0
 ---------------------------------------------------------------------------------
 (1) _init_i2c_lcd_5v                                      4     3      1     141
                                              1 COMMON     4     3      1
                          _i2c_Start
                           _i2c_Stop
                          _i2c_Write
 ---------------------------------------------------------------------------------
 (5) _i2c_Write                                            1     1      0      22
                                              0 COMMON     1     1      0
 ---------------------------------------------------------------------------------
 (5) _i2c_Stop                                             0     0      0       0
 ---------------------------------------------------------------------------------
 (5) _i2c_Start                                            0     0      0       0
 ---------------------------------------------------------------------------------
 (1) _init_i2c                                             3     3      0       0
                                              0 COMMON     3     3      0
 ---------------------------------------------------------------------------------
 (1) _init_current_sink                                    0     0      0       0
 ---------------------------------------------------------------------------------
 (1) _init_ADC                                             0     0      0       0
 ---------------------------------------------------------------------------------
 (1) _get_current                                          4     2      2    4284
                                             25 BANK0      4     2      2
                        _ADC_get_val
                            ___ftmul
                            ___fttol
                           ___lwtoft
 ---------------------------------------------------------------------------------
 (2) ___lwtoft                                             3     0      3    1744
                                              8 COMMON     3     0      3
                           ___ftpack
 ---------------------------------------------------------------------------------
 (2) ___fttol                                             13     9      4     305
                                             12 BANK0     13     9      4
                            ___ftmul (ARG)
                           ___lwtoft (ARG)
 ---------------------------------------------------------------------------------
 (2) ___ftmul                                             15     9      6    2143
                                             11 COMMON     3     3      0
                                              0 BANK0     12     6      6
                           ___ftpack
                           ___lwtoft (ARG)
 ---------------------------------------------------------------------------------
 (3) ___ftpack                                             8     3      5    1629
                                              0 COMMON     8     3      5
 ---------------------------------------------------------------------------------
 (2) _ADC_get_val                                          7     5      2      46
                                              0 COMMON     7     5      2
 ---------------------------------------------------------------------------------
 Estimated maximum stack depth 5
 ---------------------------------------------------------------------------------
 (Depth) Function   	        Calls       Base Space   Used Autos Params    Refs
 ---------------------------------------------------------------------------------
 (6) _isr                                                  0     0      0       0
 ---------------------------------------------------------------------------------
 Estimated maximum stack depth 6
 ---------------------------------------------------------------------------------

 Call Graph Graphs:

 _main (ROOT)
   _ADC_get_val
   _buzz_one
   _debug_fast_tx
   _get_current
     _ADC_get_val
     ___ftmul
       ___ftpack
       ___lwtoft (ARG)
         ___ftpack
     ___fttol
       ___ftmul (ARG)
         ___ftpack
         ___lwtoft (ARG)
           ___ftpack
       ___lwtoft (ARG)
         ___ftpack
     ___lwtoft
       ___ftpack
   _init_ADC
   _init_current_sink
   _init_i2c
   _init_i2c_lcd_5v
     _i2c_Start
     _i2c_Stop
     _i2c_Write
   _init_uart1
   _init_uart2
   _lcd_print_int
     _i2c_write_char
       _i2c_Start
       _i2c_Stop
       _i2c_Write
     _lcd_set_cursor
       _i2c_Start
       _i2c_Stop
       _i2c_Write
     _ten_thou_conv
       ___bmul
       ___wmul
   _power_supply_set
   _print_error
     _buzz_one
     _clear_lcd
       _i2c_Start
       _i2c_Stop
       _i2c_Write
     _debug_fast_tx
     _i2c_Write_string
       _i2c_Start
       _i2c_Stop
       _i2c_Write
     _i2c_first_line
       _i2c_Start
       _i2c_Stop
       _i2c_Write
     _i2c_second_line
       _i2c_Start
       _i2c_Stop
       _i2c_Write
     _power_supply_set
     _print_screen
       _clear_lcd
         _i2c_Start
         _i2c_Stop
         _i2c_Write
       _i2c_Write_string
         _i2c_Start
         _i2c_Stop
         _i2c_Write
       _i2c_first_line
         _i2c_Start
         _i2c_Stop
         _i2c_Write
       _i2c_second_line
         _i2c_Start
         _i2c_Stop
         _i2c_Write
   _print_screen
     _clear_lcd
       _i2c_Start
       _i2c_Stop
       _i2c_Write
     _i2c_Write_string
       _i2c_Start
       _i2c_Stop
       _i2c_Write
     _i2c_first_line
       _i2c_Start
       _i2c_Stop
       _i2c_Write
     _i2c_second_line
       _i2c_Start
       _i2c_Stop
       _i2c_Write
   _receive_data_bytes
     _manage_read_byte
     _print_error
       _buzz_one
       _clear_lcd
         _i2c_Start
         _i2c_Stop
         _i2c_Write
       _debug_fast_tx
       _i2c_Write_string
         _i2c_Start
         _i2c_Stop
         _i2c_Write
       _i2c_first_line
         _i2c_Start
         _i2c_Stop
         _i2c_Write
       _i2c_second_line
         _i2c_Start
         _i2c_Stop
         _i2c_Write
       _power_supply_set
       _print_screen
         _clear_lcd
           _i2c_Start
           _i2c_Stop
           _i2c_Write
         _i2c_Write_string
           _i2c_Start
           _i2c_Stop
           _i2c_Write
         _i2c_first_line
           _i2c_Start
           _i2c_Stop
           _i2c_Write
         _i2c_second_line
           _i2c_Start
           _i2c_Stop
           _i2c_Write
   _send_usart_packet_manage
     _EUSART1_Write

 _isr (ROOT)

 Address spaces:
Name               Size   Autos  Total    Cost      Usage
BIGRAM             5F0      0       0       0        0.0%
NULL                 0      0       0       0        0.0%
CODE                 0      0       0       0        0.0%
BITCOMMON            E      0       0       1        0.0%
BITSFR0              0      0       0       1        0.0%
SFR0                 0      0       0       1        0.0%
COMMON               E      E       E       2      100.0%
BITSFR1              0      0       0       2        0.0%
SFR1                 0      0       0       2        0.0%
BITSFR2              0      0       0       3        0.0%
SFR2                 0      0       0       3        0.0%
STACK                0      0       0       3        0.0%
BITBANK0            50      0       1       4        1.3%
BITSFR3              0      0       0       4        0.0%
SFR3                 0      0       0       4        0.0%
BANK0               50     20      4B       5       93.8%
BITSFR4              0      0       0       5        0.0%
SFR4                 0      0       0       5        0.0%
BITBANK1            50      0       0       6        0.0%
BITSFR5              0      0       0       6        0.0%
SFR5                 0      0       0       6        0.0%
BANK1               50      0       0       7        0.0%
BITSFR6              0      0       0       7        0.0%
SFR6                 0      0       0       7        0.0%
BITBANK2            50      0       0       8        0.0%
BITSFR7              0      0       0       8        0.0%
SFR7                 0      0       0       8        0.0%
BANK2               50      0       0       9        0.0%
BITSFR8              0      0       0       9        0.0%
SFR8                 0      0       0       9        0.0%
BITBANK3            50      0       0      10        0.0%
BITSFR9              0      0       0      10        0.0%
SFR9                 0      0       0      10        0.0%
BANK3               50      0       0      11        0.0%
BITSFR10             0      0       0      11        0.0%
SFR10                0      0       0      11        0.0%
BITBANK4            50      0       0      12        0.0%
BITSFR11             0      0       0      12        0.0%
SFR11                0      0       0      12        0.0%
BANK4               50      0       0      13        0.0%
BITSFR12             0      0       0      13        0.0%
SFR12                0      0       0      13        0.0%
BITBANK5            50      0       0      14        0.0%
BITSFR13             0      0       0      14        0.0%
SFR13                0      0       0      14        0.0%
BANK5               50      0       0      15        0.0%
BITSFR14             0      0       0      15        0.0%
SFR14                0      0       0      15        0.0%
BITSFR15             0      0       0      16        0.0%
SFR15                0      0       0      16        0.0%
ABS                  0      0      59      16        0.0%
BITBANK6            50      0       0      17        0.0%
BITSFR16             0      0       0      17        0.0%
SFR16                0      0       0      17        0.0%
BANK6               50      0       0      18        0.0%
BITSFR17             0      0       0      18        0.0%
SFR17                0      0       0      18        0.0%
BITBANK7            50      0       0      19        0.0%
BITSFR18             0      0       0      19        0.0%
SFR18                0      0       0      19        0.0%
BANK7               50      0       0      20        0.0%
BITSFR19             0      0       0      20        0.0%
SFR19                0      0       0      20        0.0%
BITBANK8            50      0       0      21        0.0%
BITSFR20             0      0       0      21        0.0%
SFR20                0      0       0      21        0.0%
BANK8               50      0       0      22        0.0%
BITSFR21             0      0       0      22        0.0%
SFR21                0      0       0      22        0.0%
BITBANK9            50      0       0      23        0.0%
BITSFR22             0      0       0      23        0.0%
SFR22                0      0       0      23        0.0%
BANK9               50      0       0      24        0.0%
BITSFR23             0      0       0      24        0.0%
SFR23                0      0       0      24        0.0%
BITBANK10           50      0       0      25        0.0%
BITSFR24             0      0       0      25        0.0%
SFR24                0      0       0      25        0.0%
BANK10              50      0       0      26        0.0%
BITSFR25             0      0       0      26        0.0%
SFR25                0      0       0      26        0.0%
BITBANK11           50      0       0      27        0.0%
BITSFR26             0      0       0      27        0.0%
SFR26                0      0       0      27        0.0%
BITSFR27             0      0       0      28        0.0%
SFR27                0      0       0      28        0.0%
DATA                 0      0      59      28        0.0%
BANK11              50      0       0      29        0.0%
BITSFR28             0      0       0      29        0.0%
SFR28                0      0       0      29        0.0%
BITBANK12           50      0       0      30        0.0%
BITSFR29             0      0       0      30        0.0%
SFR29                0      0       0      30        0.0%
BANK12              50      0       0      31        0.0%
BITSFR30             0      0       0      31        0.0%
SFR30                0      0       0      31        0.0%
BITBANK13           50      0       0      32        0.0%
BITSFR31             0      0       0      32        0.0%
SFR31                0      0       0      32        0.0%
BANK13              50      0       0      33        0.0%
BITBANK14           50      0       0      34        0.0%
BANK14              50      0       0      35        0.0%
BITBANK15           50      0       0      36        0.0%
BANK15              50      0       0      37        0.0%
BITBANK16           50      0       0      38        0.0%
BANK16              50      0       0      39        0.0%
BITBANK17           50      0       0      40        0.0%
BANK17              50      0       0      41        0.0%
BITBANK18           50      0       0      42        0.0%
BANK18              50      0       0      43        0.0%


Microchip Technology PIC Macro Assembler V1.35 build -356382666 
Symbol Table                                                                                   Mon Aug 26 14:56:15 2019

                       _motor_direction_timer 002E                                    __CFG_CP$ON 0000  
             receive_data_bytes@data_low_byte 005B                           ??_init_current_sink 0070  
                                           pc 0002                                ___bmul@product 0071  
                            _power_supply_set 042B                           ___wmul@multiplicand 0072  
                                         l420 171B                                           l333 0866  
                                         l342 016A                                           l431 0794  
                                         l423 1768                                           l433 07CD  
                                         l426 15F8                                           l347 0178  
                                         l427 161E                                           l532 0FFF  
                                         l429 1657                                           l526 0FD3  
                                         l609 02ED                                           l705 0209  
                                         l529 0FE9                                           l814 042D  
                                         l584 0303                                           l816 0435  
                                         l593 0313                                           l817 043D  
                                         l578 030E                                           l850 040B  
                                         l819 0445                                           l793 0496  
                                         _GIE 005F                                           _RA0 0060  
                                         _RA1 0061                                           _RA4 0064  
                                         _RA5 0065                             ??_i2c_second_line 0071  
                                         _RE0 0080                                           _RE4 0084  
                                         _RE5 0085                                           _RF5 1465  
                                         _PR2 001B                                           _PR8 0596  
                                         _isr 0004                                           _ten 0042  
                                __CFG_BORV$HI 0000                                           wreg 0009  
                              ?_lcd_print_int 0048                            _receive_data_bytes 00C9  
                                        S4456 1400                                          S4458 07F6  
                     __size_of_i2c_write_char 000D                               ?_lcd_set_cursor 0071  
                                __CFG_LVP$OFF 0000                     __end_of_init_current_sink 081F  
                                        l1044 0525                                          l1056 054A  
                                        l3030 0532                                          l3032 053B  
                                        l3026 0529                                          l3036 0548  
                                        l3028 052D                                          l3212 04D9  
                                        l3140 0193                                          l3038 0540  
                                        l3142 0195                                          l3070 017F  
                                        l4110 0B74                                          l3224 04EB  
                                        l3216 04E1                                          l3240 0568  
                                        l3056 0172                                          l3312 00D6  
                                        l3304 00CC                                          l3400 015C  
                                        l4120 0B90                                          l4008 098E  
                                        l3242 056D                                          l3058 0176  
                                        l3322 00E4                                          l3306 00D0  
                                        l3228 04F3                                          l3084 024F  
                                        l3324 00E6                                          l3190 04B4  
                                        l3270 05A1                                          l3262 0594  
                                        l3318 00E1                                          l4214 0D15  
                                        l4054 0A73                                          l3520 01EC  
                                        l3512 01E0                                          l3504 01D2  
                                        l3360 010A                                          l3336 00F2  
                                        l4064 0A8F                                          l3194 04C5  
                                        l3274 05AF                                          l3258 058D  
                                        l3530 01FD                                          l3514 01E3  
                                        l4314 0EC2                                          l4242 0DAD  
                                        l4146 0BEF                                          l4138 0BD3  
                                        l3268 0598                                          l3532 0200  
                                        l3372 0116                                          l3348 00FE  
                                        l4332 0F0E                                          l4260 0DDA  
                                        l4228 0D61                                          l4172 0C4E  
                                        l4164 0C31                                          l3390 0148  
                                        l3382 0139                                          l4350 0F53  
                                        l4254 0DCB                                          l3448 02E6  
                                        l3384 013E                                          l4344 0F36  
                                        l4328 0EFB                                          l4248 0DBC  
                                        l3490 01BB                                          l3482 01AF  
                                        l2930 044F                                          l3394 014E  
                                        l4290 0E4E                                          l3810 0621  
                                        l3484 01B2                                          l4356 0F67  
                                        l4348 0F16                                          l4284 0E3F  
                                        l3716 1710                                          l3486 01B5  
                                        l2950 0412                                          l4278 0E30  
                                        l4198 0CC1                                          l3910 0732  
                                        l3902 0716                                          l3822 064B  
                                        l3806 060E                                          l3734 175D  
                                        l3718 171C                                          l2880 0311  
                                        l2960 03F0                                          l3496 01C6  
                                        l3840 0693                                          l3498 01C9  
                                        l2882 02AD                                          l3914 0740  
                                        l3906 0724                                          l3826 0660  
                                        l3754 1644                                          l2876 0305  
                                        l2956 03EA                                          l2892 02B5  
                                        l3940 0897                                          l3852 06C9  
                                        l3844 06A6                                          l3780 07E6  
                                        l3764 0781                                          l2894 02C7  
                                        l3926 0769                                          l3774 07BA  
                                        l3880 16CE                                          l3856 06DB  
                                        l3784 07F4                                          l3970 0907  
                                        l3954 08C2                                          l3884 16E1  
                                        l3868 169B                                          l3894 06FA  
                                        l3986 094A                                          l3978 092D  
                                        l3898 0708                                          ?_isr 0070  
                                        l3998 0971                                          STR_1 11EC  
                                        STR_2 13F9                                          STR_3 1117  
                                        STR_4 13F9                                          STR_5 127F  
                                        STR_6 1039                                          STR_7 106C  
                                        STR_8 1000                                          STR_9 10D5  
                                        u2105 03A3                                          u2055 0320  
                                        u2065 032F                                          u2075 033E  
                                        u2315 0135                                          u2085 035A  
                                        u2095 0381                                          u4007 0E9B  
                                        u2185 0574                                          u4017 0ED9  
                                        u4107 0268                                          u4027 0F4C  
                                        u4117 027F                                          u4037 0F70  
                                        u4127 0238                                          u4047 0F80  
                                        u4137 0294                                          u4057 0F8C  
                                        u3417 17DE                                          u1770 0410  
                                        u4147 02A7                                          u4067 0F98  
                                        u3507 066A                                          u3427 17ED  
                                        u4157 02FA                                          u4077 0FB6  
                                        u3517 1671                                          u3437 17F8  
                                        u4167 0826                                          u4087 0FDC  
                                        u3607 094E                                          u3527 16A4  
                                        u3447 1730                                          u4177 048F  
                                        u4097 0FF2                                          u3617 0976  
                                        u3537 0747                                          u3457 1740  
                                        u3707 0A77                                          u3627 0992  
                                        u3547 0874                                          u3467 1751  
                                        u3717 0A93                                          u3637 09BA  
                                        u3557 089F                                          u3477 05D0  
                                        u3807 0B94                                          u3727 0ABB  
                                        u3647 09D5                                          u3567 08C9  
                                        u3487 05E4                                          u3817 0BBC  
                                        u3737 0AD6                                          u3657 09F0  
                                        u3577 08E4                                          u3497 062B  
                                        u3907 0CED                                          u3827 0BD7  
                                        u3747 0AF1                                          u3667 0A0B  
                                        u3587 091D                                          u3917 0D1A  
                                        u3837 0BF3                                          u3757 0B0C  
                                        u3677 0A26                                          u3597 0932  
                                        u3927 0D37                                          u3847 0C0F  
                                        u3767 0B27                                          u3687 0A41  
                                        u3937 0D66                                          u3857 0C36  
                                        u3777 0B42                                          u3697 0A5C  
                                        u3947 0D83                                          u3867 0C52  
                                        u3787 0B5D                                          u3957 0DDF  
                                        u3877 0C7A                                          u3797 0B78  
                                        u3967 0DFC                                          u3887 0C97  
                                        u3977 0E1A                                          u3897 0CC6  
                                        u3987 0E53                                          u3997 0E6F  
                                        _TMR0 0015                                          _WPUB 020D  
                                        _WPUD 020F                                          _WPUE 0210  
                               _EUSART1_Write 0865                                  __CFG_WRT$OFF 0000  
                         ?_receive_data_bytes 007C                                          _main 1778  
                                ___ftpack@arg 0070                                   _usart_timer 003E  
                                        _hund 0040                                  ___ftpack@exp 0073  
                                        _thou 0047                                          fsr0h 0005  
                                        fsr0l 0004                                          indf0 0000  
                                        _unit 0044                                          btemp 007E  
                               __CFG_BOREN$ON 0000                                          ltemp 007E  
                                        start 00B7                                          ttemp 007E  
                                        wtemp 007E                                 __CFG_IESO$OFF 0000  
                     i2c_write_char@char_data 0071                             ___bmul@multiplier 0072  
                               __CFG_MCLRE$ON 0000                                  ___ftmul@cntr 0052  
                                ___ftmul@sign 0053                          __size_of_ADC_get_val 001D  
                     __end_of_init_i2c_lcd_5v 0300                                  ___fttol@exp1 0060  
                                ___fttol@lval 005C                                         ??_isr 0070  
                              _i2c_first_line 0287                          ??_receive_data_bytes 004B  
                                       ?_main 0070                                         STR_10 1392  
                                       STR_11 106C                                         STR_12 1000  
                                       STR_20 139B                                         STR_21 1224  
                                       STR_13 10CC                                         STR_22 13F9  
                                       STR_30 139B                                         STR_14 13BE  
                                       STR_15 13E3                                         STR_31 128C  
                                       STR_23 10EA                                         STR_32 13F9  
                                       STR_40 13CE                                         STR_24 13CE  
                                       STR_16 12FA                                         STR_41 1265  
                                       STR_17 133C                                         STR_33 1312  
                                       STR_25 1198                                         STR_26 13F9  
                                       STR_42 139B                                         STR_34 13CE  
                                       STR_50 13FA                                         STR_18 1364  
                                       STR_35 1312                                         STR_19 1364  
                                       STR_43 12CA                                         STR_27 12B2  
                                       STR_51 123E                                         STR_60 139B  
                                       STR_52 139B                                         STR_36 139B  
                                       STR_28 13CE                                         STR_44 1389  
                                       STR_61 1377                                         STR_53 123E  
                                       STR_29 12B2                                         STR_45 1144  
                                       STR_37 1126                                         STR_46 13F9  
                                       STR_38 13F9                                         STR_62 13CE  
                                       STR_54 13CE                                         STR_70 13D6  
                                       STR_47 12CA                                         STR_71 1108  
                                       STR_63 1332                                         STR_55 131D  
                                       STR_39 1265                                         STR_64 139B  
                                       STR_72 13EF                                         STR_48 13DD  
                                       STR_80 11FA                                         STR_56 107C  
                                       STR_65 1332                                         STR_49 12CA  
                                       STR_81 13E3                                         STR_57 131D  
                                       STR_73 13C6                                         STR_90 1306  
                                       STR_66 13CE                                         STR_74 11C2  
                                       STR_58 1135                                         STR_82 10BC  
                                       STR_91 13E3                                         STR_83 13E3  
                                       STR_75 13E3                                         STR_59 1377  
                                       STR_67 1108                                         STR_92 1208  
                                       STR_84 1306                                         STR_68 1258  
                                       STR_76 1208                                         STR_93 13E3  
                                       STR_85 13E3                                         STR_77 13E3  
                                       STR_69 1108                                         STR_94 1216  
                                       STR_86 13AD                                         STR_78 1216  
                                       STR_87 13E3                                         STR_79 13E3  
                                       STR_95 13E9                                         STR_88 13AD  
                                       STR_96 1350                                         STR_89 13E3  
                                       STR_97 13E9                                         STR_98 10B2  
                                       STR_99 1231                               __end_of___ftmul 050D  
                             __end_of___fttol 05B8                                         _T2CON 001C  
                                       _LATB4 086C                                         _LATA6 0866  
                                       _LATB5 086D                                         _LATA7 0867  
                                       _LATD2 087A                                         _LATB6 086E  
                                       _LATC5 0875                                         _LATB7 086F  
                                       _LATD4 087C                                         _LATD5 087D  
                                       _LATC7 0877                                         _LATG0 1C68  
                                       _LATD6 087E                                         _LATD7 087F  
                                       _LATF4 1C64                                         _RC2IF 00A5  
                                       _LATG3 1C6B                                         _LATG4 1C6C  
                                       _LATF7 1C67                         __end_of_debug_fast_tx 042B  
                                       _T8CON 0597                                         i1l410 009C  
                                       i1l406 007D                                         i1l407 0081  
                                       i1l415 00B5                                         i1l393 0092  
                                       i1l395 0036                                         i1l387 0011  
                                       i1l398 0048                                         _PORTA 000C  
                                       _PORTB 000D                                         _PORTC 000E  
                                       _PORTD 000F                                         _PORTE 0010  
                                       _PORTF 028C                                         _PORTG 028D  
                                       _TRISA 008C                                         _TRISB 008D  
                                       _TRISC 008E                                         _TRISD 008F  
                                       _TRISE 0090                                         _TRISF 030C  
                                       _TRISG 030D                                 __CFG_PWRTE$ON 0000  
                              __CFG_FCMEN$OFF 0000                            _current_sink_timer 002C  
                    __end_of_i2c_Write_string 02C8                             ?_manage_read_byte 0070  
                               ___ftpack@sign 0074                                ?_EUSART1_Write 0070  
                                       ltemp0 007E                                         ltemp1 0082  
                                       ltemp2 0086                                         ltemp3 0080  
                          ??_manage_read_byte 0070                                         ttemp0 007E  
                                       ttemp1 0081                                         ttemp2 0084  
                                       ttemp3 0087                                         ttemp4 007F  
                                       status 0003                                         wtemp0 007E  
                                       wtemp1 0080                                         wtemp2 0082  
                                       wtemp3 0084                                         wtemp4 0086  
                                       wtemp5 0088                                         wtemp6 007F  
                             __initialization 00B9                    lcd_set_cursor@LCD_position 0073  
                                __end_of_main 1000                        __end_of_i2c_first_line 0298  
                            __end_of_i2c_Stop 0316                                __CFG_LPBOR$OFF 0000  
                                      ??_main 0065                                 ___fttol@sign1 005B  
                             ??_lcd_print_int 007B                           lcd_print_int@number 0048  
                           _usart_fault_state 0045                                        _ADCON0 009D  
                                      _ADCON1 009E                                        i1S4460 1412  
                                      STR_100 10AC                                        STR_101 117C  
                                      STR_102 10AC                                        STR_110 10DB  
                                      STR_111 13C6                                        STR_103 136E  
                                      STR_104 10AC                                        STR_112 11D0  
                                      STR_120 1152                                        STR_121 12D6  
                                      STR_105 1328                                        STR_113 12D6  
                                      STR_130 116E                                        STR_106 10AC  
                                      STR_114 11DE                                        STR_122 1160  
                                      _ADRESH 009C                                        STR_131 13C6  
                                      STR_107 13C6                                        STR_123 12D6  
                                      STR_115 12D6                                        STR_116 11DE  
                                      STR_140 1135                                        STR_132 1346  
                                      STR_108 124B                                        STR_124 116E  
                                      STR_109 13E3                                        STR_125 12D6  
                                      STR_117 12D6                                        STR_133 1380  
                                      STR_141 12E2                                        STR_126 1152  
                                      STR_134 11F2                                        STR_118 1272  
                                      STR_142 11B4                                        _ADRESL 009B  
                                      STR_127 12D6                                        STR_119 12D6  
                                      STR_143 12E2                                        STR_151 109C  
                                      STR_135 108C                                        STR_136 13F9  
                                      STR_128 1160                                        STR_144 1299  
                                      STR_129 12D6                                        STR_137 131D  
                                      STR_161 13B6                                        STR_145 135A  
                                      STR_153 1016                                        STR_146 13F9  
                                      STR_138 107C                                        STR_170 118A  
                                      STR_139 131D                                        STR_163 13F5  
                                      STR_147 12EE                                        STR_171 12BE  
                                      STR_148 11A6                                        STR_149 13A4  
                                      STR_157 1028                                        STR_158 104A  
                                      STR_177 12A6                                        STR_169 10F9  
                                      STR_178 105B                    __size_of_init_current_sink 0015  
                                      _CCPR9L 061A                                        _ANSELA 018C  
                                      _ANSELB 018D                                        _ANSELD 018F  
                                      _ANSELE 0190                                        _ANSELF 040C  
                            __end_of___ftpack 055B                                        _ANSELG 040D  
                                      _RC2REG 0491                            __size_of_i2c_Start 0005  
                                      _RC1STA 019D                                        _RC2STA 0495  
                                      i1l3600 0077                                        i1l3610 0092  
                                      i1l3602 0079                                        i1l3620 00AC  
                                      i1l3614 009E                                        i1l3624 00B4  
                                      i1l3608 0088                                        i1l3618 00A8  
                                      i1l3554 0025                                        i1l3546 0019  
                                      i1l3564 0040                                        i1l3548 001A  
                                      i1l3590 0068                                        i1l3574 0053  
                                      i1l3558 002D                            __size_of_i2c_Write 000C  
                                      i1l3588 0066                                        _FVRCON 0117  
                            __end_of___lwtoft 051D                                        _OSCCON 0099  
                                      _TMR0IE 005D                                        _TMR0IF 005A  
                                      _TX2REG 0492                                        _TX1STA 019E  
                                      _TX2STA 0496                                        _TRISC3 0473  
                                      _TRISC4 0474                             print_error@bottom 007A  
                         _current_sink_stable 002A                                        ___bmul 03C5  
                             ?_i2c_first_line 0070                                        ___wmul 03E8  
                              __CFG_STVREN$ON 0000                          __size_of_get_current 002C  
                                   ??___ftmul 007B                                     ??___fttol 0058  
                            __end_of_init_ADC 1441                              ?_init_i2c_lcd_5v 0071  
                            __end_of_init_i2c 0836                              __end_of_buzz_one 03FE  
                            _ADC_cur_sink_val 0020                         ___ftmul@f3_as_product 004F  
                               i2c_Write@data 0070                                _i2c_write_char 020D  
                           debug_fast_tx@data 0070                               ??_EUSART1_Write 0070  
                    __end_of_power_supply_set 045A                                  ?_print_error 0078  
                     __end_of__initialization 00C5                           ___bmul@multiplicand 0070  
                                  ___ftmul@f1 0048                                    ___ftmul@f2 004B  
                             _i2c_second_line 022B                                    ___fttol@f1 0054  
                              __pcstackCOMMON 0070                      _send_usart_packet_manage 0836  
                                __pidataBANK0 0000                                print_error@top 0078  
                       __end_of_ten_thou_conv 03C5                             __end_of_i2c_Start 0311  
                           __end_of_i2c_Write 030C                            __size_of_clear_lcd 0015  
                                  ___lwtoft@c 0078                              ??_lcd_set_cursor 0072  
                      __end_of_i2c_write_char 021A                          i2c_Write_string@data 0071  
                        lcd_print_int@decimal 004C                              _one_second_timer 0068  
                                  __pbssBANK0 0020                                     ?_i2c_Stop 0070  
                 lcd_print_int@ten_thou_digit 004D                            ADC_get_val@channel 0074  
                                  __pmaintext 1778                                       ?___bmul 0070  
                                     ?___wmul 0070                                    __pintentry 0004  
                                     _CCP9CON 061C                                     ?___ftpack 0070  
                                     _ADC_val 0022                                     ?___lwtoft 0078  
                             ?_i2c_write_char 0070                                       _SP1BRGH 019C  
                                     _SP1BRGL 019B                                       _SP2BRGH 0494  
                                     _SP2BRGL 0493                                       _SSP1ADD 0212  
        receive_data_bytes@checksum_high_byte 0057                                       _SSP1BUF 0211  
                           ?_i2c_Write_string 0071                            ??_i2c_Write_string 0073  
                                  ??_i2c_Stop 0070                                     ?_init_ADC 0070  
                     __end_of_i2c_second_line 023C                                     ?_init_i2c 0070  
                           __end_of_clear_lcd 02AD         receive_data_bytes@time_out_first_byte 007C  
                                   ?_buzz_one 0070                                 ??_ADC_get_val 0072  
                   __size_of_manage_read_byte 0019                               __size_of___bmul 0023  
                             __size_of___wmul 0015                                       ___ftmul 04A3  
                                     ___fttol 055B           receive_data_bytes@checksum_low_byte 0058  
                                  _init_uart1 142B                                    _init_uart2 1420  
                                  ??___ftpack 0075                   __size_of_receive_data_bytes 009F  
                                     __ptext1 0836                                       __ptext2 0865  
                                     __ptext3 00C9                                       __ptext4 023C  
                                     __ptext5 021A                                       __ptext6 022B  
                                     __ptext7 0287                                       __ptext8 02AD  
                                     __ptext9 0298                                    ??___lwtoft 007B  
                                __size_of_isr 00B3                                    _buzz_timer 0026  
              init_i2c_lcd_5v@single1_double2 0071       receive_data_bytes@usart_validation_work 0051  
          send_usart_packet_manage@Data_carry 0071                            _pickit_all_counter 0030  
                                     clrloop0 0805                          end_of_initialization 00C5  
                                  ??_init_ADC 0070                                    ??_init_i2c 0070  
                                  ??_buzz_one 0072                              ??_i2c_first_line 0071  
                        __size_of_print_error 004B                        __size_of_debug_fast_tx 002D  
                                     psplit$0 B0033                                       psplit$1 330034  
                                     psplit$2 340035                                       psplit$3 350036  
                                     psplit$4 360037                                       psplit$5 370038  
                                     psplit$6 380039                                       psplit$7 39003A  
                                __pstringtext 1000                           __end_of_ADC_get_val 04A3  
                            __CFG_FOSC$INTOSC 0000                         __end_of_lcd_print_int 020D  
                               ?_print_screen 0074                          pnum$maintext_split_1 0033  
                        pnum$maintext_split_2 0034                          pnum$maintext_split_3 0035  
                        pnum$maintext_split_4 0036                          pnum$maintext_split_5 0037  
                        pnum$maintext_split_6 0038                          pnum$maintext_split_7 0039  
                        pnum$maintext_split_8 003A                               get_current@temp 0063  
                         EUSART1_Write@txData 0070                             ?_power_supply_set 0070  
                  ??_send_usart_packet_manage 0073                              ?_i2c_second_line 0070  
                          ??_power_supply_set 0070                                 ??_get_current 007E  
                              ten_thou_conv@n 0076                                   ___ftmul@exp 004E  
                              __end_of___bmul 03E8                                __end_of___wmul 03FD  
                                buzz_one@time 0070                                   ?_init_uart1 0070  
                                 ?_init_uart2 0070                                 __pbitbssBANK0 0350  
            receive_data_bytes@data_high_byte 005A                                 _debug_fast_tx 03FE  
                                   _i2c_Start 030C                                     _i2c_Write 0300  
                         start_initialization 00B9                      __size_of_init_i2c_lcd_5v 0038  
                              ??_print_screen 0078                                   __end_of_isr 00B7  
                       __end_of_EUSART1_Write 086C    send_usart_packet_manage@checksum_send_work 004D  
                            _usart_fault_flag 0350              receive_data_bytes@data_int_value 0055  
                           __size_of_i2c_Stop 0005                               print_screen@top 0074  
                                 _ADC_get_val 0486                                      ??___bmul 0071  
                            _manage_read_byte 0168                                      ??___wmul 0074  
                                 __pdataBANK0 0068                              ??_i2c_write_char 0071  
                         __end_of_get_current 0486                                ?_debug_fast_tx 0070  
                           __size_of___ftpack 003E                                    ?_i2c_Start 0070  
                                  ?_i2c_Write 0070                                     ___latbits 0003  
                           __size_of___lwtoft 0010                                 __pcstackBANK0 0048  
                          _pickit_red_counter 0034                              lcd_print_int@pos 004A  
                      __size_of_ten_thou_conv 00AF                           __size_of_init_uart1 000B  
                         __size_of_init_uart2 000B                             __size_of_init_ADC 000B  
                           __size_of_init_i2c 0017                                     _clear_lcd 0298  
                           __size_of_buzz_one 0001                            _pickit_pgm_timeout 0032  
                   __size_of_i2c_Write_string 001B                                      ?___ftmul 0048  
                                    ?___fttol 0054                                     __pswtext1 1400  
                                   __pswtext2 07F6                                     __pswtext3 1412  
                                    _BAUD1CON 019F                                      _BAUD2CON 0497  
                                    _CCPTMRS2 029F                              __CFG_WDTE$SWDTEN 0000  
            __end_of_send_usart_packet_manage 0865                             ??_init_i2c_lcd_5v 0072  
                     __size_of_lcd_set_cursor 0018      send_usart_packet_manage@data_high_byte_2 004B  
                              ___wmul@product 0074                                     clear_ram0 0804  
                                    _PIE1bits 0091                                      _PIR1bits 0011  
                                 _get_current 045A                                    ?_clear_lcd 0070  
                        __end_of_print_screen 022B        send_usart_packet_manage@command_byte_1 004A  
                          print_screen@bottom 0076                                      _SSP1CON1 0215  
                                    _SSP1CON2 0216                                      _SSP1STAT 0214  
                  __end_of_receive_data_bytes 0168   send_usart_packet_manage@checksum_low_byte_5 0049  
                                _pickit_timer 0036                                  _pickit_state 0041  
                               _ten_thou_conv 0316                               ??_debug_fast_tx 0072  
                                  _ADCON0bits 009D                             ___wmul@multiplier 0070  
                                 ??_i2c_Start 0070                                   ??_i2c_Write 0070  
                              debug_fast_tx@i 0072                                      _i2c_Stop 0311  
                               ??_print_error 0048                         ADC_get_val@return_val 0075  
                          _Data_Temp_Work_int 0024                                  pnum$maintext 000B  
                              ?_ten_thou_conv 0076                              __size_of___ftmul 006A  
                            __size_of___fttol 005D                                  ??_init_uart1 0070  
                                ??_init_uart2 0070                     __size_of_power_supply_set 002F  
                                    ___ftpack 051D                                      ___lwtoft 050D  
                     init_i2c_lcd_5v@contrast 0074                                      __ptext10 042B  
                                    __ptext11 03FE                                      __ptext20 1420  
                                    __ptext12 03FD                                      __ptext21 142B  
                                    __ptext13 0168                                      __ptext30 050D  
                                    __ptext22 02C8                                      __ptext14 0199  
                                    __ptext31 055B                                      __ptext23 0300  
                                    __ptext15 0316                                      __ptext32 04A3  
                                    __ptext24 0311                                      __ptext16 03E8  
                                    __ptext33 051D                                      __ptext25 030C  
                                    __ptext17 03C5                                      __ptext34 0486  
                                    __ptext26 081F                                      __ptext18 0181  
                                    __ptext27 080A                                      __ptext19 020D  
                                    __ptext28 1436                                      __ptext29 045A  
                    __end_of_manage_read_byte 0181                                  _SSP1CON2bits 0216  
                                    _init_ADC 1436                                      _init_i2c 081F  
            receive_data_bytes@usart_checksum 0053                                 __size_of_main F888  
                          __end_of_init_uart1 1436                            __end_of_init_uart2 142B  
                                    _buzz_one 03FD                                  ?_ADC_get_val 0070  
                                 ??_clear_lcd 0071                           __end_of_print_error 0287  
                            _i2c_Write_string 02AD                                      _ten_thou 0043  
                                  _RC2STAbits 0495                                      _tj_timer 003A  
                      __size_of_lcd_print_int 0074                      __size_of_i2c_second_line 0011  
                                    int$flags 007E                                  _SSP1STATbits 0214  
           __size_of_send_usart_packet_manage 002F                       __size_of_i2c_first_line 0011  
                   ?_send_usart_packet_manage 0071                            _uart_receive_timer 003C  
                    _usart_receive_state_main 0046                                    _INTCONbits 000B  
              receive_data_bytes@command_byte 0059  send_usart_packet_manage@checksum_high_byte_4 0048  
                                    intlevel1 0000                                _lcd_set_cursor 0181  
                           lcd_set_cursor@col 0071                             lcd_set_cursor@row 0072  
                       __size_of_print_screen 0011                             __CFG_CLKOUTEN$OFF 0000  
                      power_supply_set@supply 0070                               ??_ten_thou_conv 0078  
     send_usart_packet_manage@data_low_byte_3 004C                        __size_of_EUSART1_Write 0007  
              manage_read_byte@timeout_enable 0070                                    _OPTION_REG 0095  
                               _testjig_timer 0038                               _init_i2c_lcd_5v 02C8  
                               _lcd_print_int 0199                               _curent_sink_val 0028  
                                _print_screen 021A                        __end_of_lcd_set_cursor 0199  
                                  _TX2STAbits 0496                             _init_current_sink 080A  
                                 _print_error 023C                            ?_init_current_sink 0070  
                                ?_get_current 0061  
