

Microchip Technology PIC LITE Macro Assembler V1.35 build -356382666 
                                                                                               Thu Mar 26 20:15:11 2020

Microchip Technology Omniscient Code Generator v1.35 (Free mode) build 201507080246
     1                           	processor	16F1527
     2                           	opt	pw 120
     3                           	opt	lm
     4                           	psect	idataBANK0,global,class=CODE,delta=2
     5                           	psect	idataBANK1,global,class=CODE,delta=2
     6                           	psect	idataBANK2,global,class=CODE,delta=2
     7                           	psect	stringtext,global,class=STRCODE,delta=2
     8                           	psect	cinit,global,class=CODE,merge=1,delta=2
     9                           	psect	bitbssCOMMON,global,bit,class=COMMON,space=1,delta=1
    10                           	psect	bssCOMMON,global,class=COMMON,space=1,delta=1
    11                           	psect	bssBANK0,global,class=BANK0,space=1,delta=1
    12                           	psect	dataBANK0,global,class=BANK0,space=1,delta=1
    13                           	psect	bssBANK1,global,class=BANK1,space=1,delta=1
    14                           	psect	dataBANK1,global,class=BANK1,space=1,delta=1
    15                           	psect	dataBANK2,global,class=BANK2,space=1,delta=1
    16                           	psect	clrtext,global,class=CODE,delta=2
    17                           	psect	inittext,global,class=CODE,delta=2
    18                           	psect	cstackCOMMON,global,class=COMMON,space=1,delta=1
    19                           	psect	cstackBANK0,global,class=BANK0,space=1,delta=1
    20                           	psect	maintext,global,class=CODE,merge=1,split=1,delta=2
    21                           	psect	text1,local,class=CODE,merge=1,delta=2
    22                           	psect	text2,local,class=CODE,merge=1,delta=2
    23                           	psect	text3,local,class=CODE,merge=1,delta=2
    24                           	psect	swtext1,local,class=CONST,delta=2
    25                           	psect	text4,local,class=CODE,merge=1,delta=2
    26                           	psect	text5,local,class=CODE,merge=1,delta=2
    27                           	psect	text6,local,class=CODE,merge=1,delta=2
    28                           	psect	text7,local,class=CODE,merge=1,delta=2
    29                           	psect	text8,local,class=CODE,merge=1,delta=2
    30                           	psect	text9,local,class=CODE,merge=1,delta=2
    31                           	psect	text10,local,class=CODE,merge=1,delta=2
    32                           	psect	swtext2,local,class=CONST,delta=2
    33                           	psect	text11,local,class=CODE,merge=1,delta=2
    34                           	psect	text12,local,class=CODE,merge=1,delta=2
    35                           	psect	text13,local,class=CODE,merge=1,delta=2
    36                           	psect	text14,local,class=CODE,merge=1,delta=2
    37                           	psect	text15,local,class=CODE,merge=1,delta=2
    38                           	psect	text16,local,class=CODE,merge=1,delta=2
    39                           	psect	text17,local,class=CODE,merge=1,delta=2
    40                           	psect	text18,local,class=CODE,merge=1,delta=2
    41                           	psect	text19,local,class=CODE,merge=1,delta=2
    42                           	psect	text20,local,class=CODE,merge=1,delta=2
    43                           	psect	text21,local,class=CODE,merge=1,delta=2
    44                           	psect	text22,local,class=CODE,merge=1,delta=2
    45                           	psect	text23,local,class=CODE,merge=1,delta=2
    46                           	psect	text24,local,class=CODE,merge=1,delta=2
    47                           	psect	text25,local,class=CODE,merge=1,delta=2
    48                           	psect	text26,local,class=CODE,merge=1,delta=2
    49                           	psect	text27,local,class=CODE,merge=1,delta=2
    50                           	psect	text28,local,class=CODE,merge=1,delta=2
    51                           	psect	text29,local,class=CODE,merge=1,delta=2
    52                           	psect	text30,local,class=CODE,merge=1,delta=2
    53                           	psect	text31,local,class=CODE,merge=1,delta=2
    54                           	psect	text32,local,class=CODE,merge=1,delta=2
    55                           	psect	text33,local,class=CODE,merge=1,delta=2
    56                           	psect	text34,local,class=CODE,merge=1,delta=2
    57                           	psect	text35,local,class=CODE,merge=1,delta=2
    58                           	psect	text36,local,class=CODE,merge=1,delta=2
    59                           	psect	intentry,global,class=CODE,delta=2
    60                           	psect	swtext3,local,class=CONST,delta=2
    61                           	psect	maintext_split_1,global,class=CODE,merge=1,split=1,delta=2
    62                           	psect	maintext_split_2,global,class=CODE,merge=1,split=1,delta=2
    63                           	psect	maintext_split_3,global,class=CODE,merge=1,split=1,delta=2
    64                           	psect	maintext_split_4,global,class=CODE,merge=1,split=1,delta=2
    65                           	psect	maintext_split_5,global,class=CODE,merge=1,split=1,delta=2
    66                           	psect	maintext_split_6,global,class=CODE,merge=1,split=1,delta=2
    67                           	psect	maintext_split_7,global,class=CODE,merge=1,split=1,delta=2
    68                           	psect	maintext_split_8,global,class=CODE,merge=1,split=1,delta=2
    69                           	dabs	1,0x7E,2
    70  0000                     	;# 
    71  0001                     	;# 
    72  0002                     	;# 
    73  0003                     	;# 
    74  0004                     	;# 
    75  0005                     	;# 
    76  0006                     	;# 
    77  0007                     	;# 
    78  0008                     	;# 
    79  0009                     	;# 
    80  000A                     	;# 
    81  000B                     	;# 
    82  000C                     	;# 
    83  000D                     	;# 
    84  000E                     	;# 
    85  000F                     	;# 
    86  0010                     	;# 
    87  0011                     	;# 
    88  0012                     	;# 
    89  0013                     	;# 
    90  0014                     	;# 
    91  0015                     	;# 
    92  0016                     	;# 
    93  0016                     	;# 
    94  0017                     	;# 
    95  0018                     	;# 
    96  0019                     	;# 
    97  001A                     	;# 
    98  001B                     	;# 
    99  001C                     	;# 
   100  008C                     	;# 
   101  008D                     	;# 
   102  008E                     	;# 
   103  008F                     	;# 
   104  0090                     	;# 
   105  0091                     	;# 
   106  0092                     	;# 
   107  0093                     	;# 
   108  0094                     	;# 
   109  0095                     	;# 
   110  0096                     	;# 
   111  0097                     	;# 
   112  0099                     	;# 
   113  009A                     	;# 
   114  009B                     	;# 
   115  009B                     	;# 
   116  009C                     	;# 
   117  009D                     	;# 
   118  009E                     	;# 
   119  010C                     	;# 
   120  010D                     	;# 
   121  010E                     	;# 
   122  010F                     	;# 
   123  0110                     	;# 
   124  0116                     	;# 
   125  0117                     	;# 
   126  011D                     	;# 
   127  018C                     	;# 
   128  018D                     	;# 
   129  018F                     	;# 
   130  0190                     	;# 
   131  0191                     	;# 
   132  0191                     	;# 
   133  0192                     	;# 
   134  0193                     	;# 
   135  0193                     	;# 
   136  0194                     	;# 
   137  0195                     	;# 
   138  0196                     	;# 
   139  0197                     	;# 
   140  0199                     	;# 
   141  0199                     	;# 
   142  0199                     	;# 
   143  019A                     	;# 
   144  019A                     	;# 
   145  019A                     	;# 
   146  019B                     	;# 
   147  019B                     	;# 
   148  019B                     	;# 
   149  019B                     	;# 
   150  019B                     	;# 
   151  019C                     	;# 
   152  019C                     	;# 
   153  019C                     	;# 
   154  019D                     	;# 
   155  019D                     	;# 
   156  019D                     	;# 
   157  019E                     	;# 
   158  019E                     	;# 
   159  019E                     	;# 
   160  019F                     	;# 
   161  019F                     	;# 
   162  019F                     	;# 
   163  020D                     	;# 
   164  020F                     	;# 
   165  0210                     	;# 
   166  0211                     	;# 
   167  0211                     	;# 
   168  0212                     	;# 
   169  0212                     	;# 
   170  0213                     	;# 
   171  0213                     	;# 
   172  0214                     	;# 
   173  0214                     	;# 
   174  0215                     	;# 
   175  0215                     	;# 
   176  0215                     	;# 
   177  0216                     	;# 
   178  0216                     	;# 
   179  0217                     	;# 
   180  0217                     	;# 
   181  0219                     	;# 
   182  021A                     	;# 
   183  021B                     	;# 
   184  021C                     	;# 
   185  021D                     	;# 
   186  021E                     	;# 
   187  021F                     	;# 
   188  028C                     	;# 
   189  028D                     	;# 
   190  0291                     	;# 
   191  0291                     	;# 
   192  0292                     	;# 
   193  0293                     	;# 
   194  0298                     	;# 
   195  0298                     	;# 
   196  0299                     	;# 
   197  029A                     	;# 
   198  029D                     	;# 
   199  029E                     	;# 
   200  029F                     	;# 
   201  030C                     	;# 
   202  030D                     	;# 
   203  0311                     	;# 
   204  0311                     	;# 
   205  0312                     	;# 
   206  0313                     	;# 
   207  0318                     	;# 
   208  0318                     	;# 
   209  0319                     	;# 
   210  031A                     	;# 
   211  031C                     	;# 
   212  031C                     	;# 
   213  031D                     	;# 
   214  031E                     	;# 
   215  038C                     	;# 
   216  038D                     	;# 
   217  0394                     	;# 
   218  0395                     	;# 
   219  0396                     	;# 
   220  040C                     	;# 
   221  040D                     	;# 
   222  0411                     	;# 
   223  0411                     	;# 
   224  0412                     	;# 
   225  0413                     	;# 
   226  0414                     	;# 
   227  0415                     	;# 
   228  0416                     	;# 
   229  0417                     	;# 
   230  0418                     	;# 
   231  0418                     	;# 
   232  0419                     	;# 
   233  041A                     	;# 
   234  041B                     	;# 
   235  041C                     	;# 
   236  041D                     	;# 
   237  041E                     	;# 
   238  048D                     	;# 
   239  0491                     	;# 
   240  0491                     	;# 
   241  0492                     	;# 
   242  0492                     	;# 
   243  0493                     	;# 
   244  0493                     	;# 
   245  0493                     	;# 
   246  0494                     	;# 
   247  0494                     	;# 
   248  0495                     	;# 
   249  0495                     	;# 
   250  0496                     	;# 
   251  0496                     	;# 
   252  0497                     	;# 
   253  0497                     	;# 
   254  0595                     	;# 
   255  0596                     	;# 
   256  0597                     	;# 
   257  059C                     	;# 
   258  059D                     	;# 
   259  059E                     	;# 
   260  0611                     	;# 
   261  0611                     	;# 
   262  0612                     	;# 
   263  0613                     	;# 
   264  0614                     	;# 
   265  0614                     	;# 
   266  0615                     	;# 
   267  0616                     	;# 
   268  0617                     	;# 
   269  0617                     	;# 
   270  0618                     	;# 
   271  0619                     	;# 
   272  061A                     	;# 
   273  061A                     	;# 
   274  061B                     	;# 
   275  061C                     	;# 
   276  061D                     	;# 
   277  061D                     	;# 
   278  061E                     	;# 
   279  061F                     	;# 
   280  0FE4                     	;# 
   281  0FE5                     	;# 
   282  0FE6                     	;# 
   283  0FE7                     	;# 
   284  0FE8                     	;# 
   285  0FE9                     	;# 
   286  0FEA                     	;# 
   287  0FEB                     	;# 
   288  0FED                     	;# 
   289  0FEE                     	;# 
   290  0FEF                     	;# 
   291                           
   292                           	psect	idataBANK0
   293  1F2C                     __pidataBANK0:	
   294                           
   295                           ;initializer for _one_second_timer
   296  1F2C  34E8               	retlw	232
   297  1F2D  3403               	retlw	3
   298                           
   299                           ;initializer for _button_beep_delay
   300  1F2E  3402               	retlw	2
   301                           
   302                           	psect	idataBANK1
   303  0808                     __pidataBANK1:	
   304                           
   305                           ;initializer for lcd_bar_create@F3905
   306  0808  3400               	retlw	0
   307  0809  3400               	retlw	0
   308  080A  3400               	retlw	0
   309  080B  3400               	retlw	0
   310  080C  3400               	retlw	0
   311  080D  3400               	retlw	0
   312  080E  3400               	retlw	0
   313  080F  341F               	retlw	31
   314                           
   315                           ;initializer for lcd_bar_create@F3907
   316  0810  3400               	retlw	0
   317  0811  3400               	retlw	0
   318  0812  3400               	retlw	0
   319  0813  3400               	retlw	0
   320  0814  3400               	retlw	0
   321  0815  3400               	retlw	0
   322  0816  341F               	retlw	31
   323  0817  341F               	retlw	31
   324                           
   325                           ;initializer for lcd_bar_create@F3909
   326  0818  3400               	retlw	0
   327  0819  3400               	retlw	0
   328  081A  3400               	retlw	0
   329  081B  3400               	retlw	0
   330  081C  3400               	retlw	0
   331  081D  341F               	retlw	31
   332  081E  341F               	retlw	31
   333  081F  341F               	retlw	31
   334                           
   335                           ;initializer for lcd_bar_create@F3911
   336  0820  3400               	retlw	0
   337  0821  3400               	retlw	0
   338  0822  3400               	retlw	0
   339  0823  3400               	retlw	0
   340  0824  341F               	retlw	31
   341  0825  341F               	retlw	31
   342  0826  341F               	retlw	31
   343  0827  341F               	retlw	31
   344                           
   345                           ;initializer for lcd_bar_create@F3913
   346  0828  3400               	retlw	0
   347  0829  3400               	retlw	0
   348  082A  3400               	retlw	0
   349  082B  341F               	retlw	31
   350  082C  341F               	retlw	31
   351  082D  341F               	retlw	31
   352  082E  341F               	retlw	31
   353  082F  341F               	retlw	31
   354                           
   355                           	psect	idataBANK2
   356  13BA                     __pidataBANK2:	
   357                           
   358                           ;initializer for lcd_bar_create@F3915
   359  13BA  3400               	retlw	0
   360  13BB  3400               	retlw	0
   361  13BC  341F               	retlw	31
   362  13BD  341F               	retlw	31
   363  13BE  341F               	retlw	31
   364  13BF  341F               	retlw	31
   365  13C0  341F               	retlw	31
   366  13C1  341F               	retlw	31
   367                           
   368                           ;initializer for lcd_bar_create@F3917
   369  13C2  3400               	retlw	0
   370  13C3  341F               	retlw	31
   371  13C4  341F               	retlw	31
   372  13C5  341F               	retlw	31
   373  13C6  341F               	retlw	31
   374  13C7  341F               	retlw	31
   375  13C8  341F               	retlw	31
   376  13C9  341F               	retlw	31
   377                           
   378                           ;initializer for lcd_bar_create@F3919
   379  13CA  341F               	retlw	31
   380  13CB  341F               	retlw	31
   381  13CC  341F               	retlw	31
   382  13CD  341F               	retlw	31
   383  13CE  341F               	retlw	31
   384  13CF  341F               	retlw	31
   385  13D0  341F               	retlw	31
   386  13D1  341F               	retlw	31
   387                           
   388                           	psect	stringtext
   389  1000                     __pstringtext:	
   390  1000                     _popup_delay:	
   391  1000  340F               	retlw	15
   392  1001  3400               	retlw	0
   393  1002                     __end_of_popup_delay:	
   394  000B                     _INTCONbits	set	11
   395  0011                     _PIR1bits	set	17
   396  000C                     _PORTA	set	12
   397  000D                     _PORTB	set	13
   398  000E                     _PORTC	set	14
   399  000F                     _PORTD	set	15
   400  0010                     _PORTE	set	16
   401  001B                     _PR2	set	27
   402  001C                     _T2CON	set	28
   403  0015                     _TMR0	set	21
   404  005F                     _GIE	set	95
   405  0060                     _RA0	set	96
   406  0061                     _RA1	set	97
   407  0064                     _RA4	set	100
   408  0065                     _RA5	set	101
   409  0068                     _RB0	set	104
   410  00A5                     _RC2IF	set	165
   411  0080                     _RE0	set	128
   412  0087                     _RE7	set	135
   413  005D                     _TMR0IE	set	93
   414  005A                     _TMR0IF	set	90
   415  009D                     _ADCON0	set	157
   416  009D                     _ADCON0bits	set	157
   417  009E                     _ADCON1	set	158
   418  009C                     _ADRESH	set	156
   419  009B                     _ADRESL	set	155
   420  0095                     _OPTION_REG	set	149
   421  0099                     _OSCCON	set	153
   422  0091                     _PIE1bits	set	145
   423  008C                     _TRISA	set	140
   424  008D                     _TRISB	set	141
   425  008E                     _TRISC	set	142
   426  008F                     _TRISD	set	143
   427  0090                     _TRISE	set	144
   428  0473                     _TRISC3	set	1139
   429  0474                     _TRISC4	set	1140
   430  0117                     _FVRCON	set	279
   431  0866                     _LATA6	set	2150
   432  086C                     _LATB4	set	2156
   433  086D                     _LATB5	set	2157
   434  086E                     _LATB6	set	2158
   435  0872                     _LATC2	set	2162
   436  0875                     _LATC5	set	2165
   437  0876                     _LATC6	set	2166
   438  0877                     _LATC7	set	2167
   439  087A                     _LATD2	set	2170
   440  087C                     _LATD4	set	2172
   441  087D                     _LATD5	set	2173
   442  087E                     _LATD6	set	2174
   443  087F                     _LATD7	set	2175
   444  018C                     _ANSELA	set	396
   445  018D                     _ANSELB	set	397
   446  018F                     _ANSELD	set	399
   447  0190                     _ANSELE	set	400
   448  019F                     _BAUD1CON	set	415
   449  019D                     _RC1STA	set	413
   450  019C                     _SP1BRGH	set	412
   451  019B                     _SP1BRGL	set	411
   452  019A                     _TX1REG	set	410
   453  019E                     _TX1STA	set	414
   454  019E                     _TX1STAbits	set	414
   455  0212                     _SSP1ADD	set	530
   456  0211                     _SSP1BUF	set	529
   457  0215                     _SSP1CON1	set	533
   458  0216                     _SSP1CON2	set	534
   459  0216                     _SSP1CON2bits	set	534
   460  0214                     _SSP1STAT	set	532
   461  0214                     _SSP1STATbits	set	532
   462  020D                     _WPUB	set	525
   463  020F                     _WPUD	set	527
   464  0210                     _WPUE	set	528
   465  029F                     _CCPTMRS2	set	671
   466  028C                     _PORTF	set	652
   467  028D                     _PORTG	set	653
   468  1462                     _RF2	set	5218
   469  146B                     _RG3	set	5227
   470  030C                     _TRISF	set	780
   471  030D                     _TRISG	set	781
   472  1868                     _TRISG0	set	6248
   473  1C64                     _LATF4	set	7268
   474  1C67                     _LATF7	set	7271
   475  1C68                     _LATG0	set	7272
   476  1C6B                     _LATG3	set	7275
   477  1C6C                     _LATG4	set	7276
   478  040C                     _ANSELF	set	1036
   479  040D                     _ANSELG	set	1037
   480  0497                     _BAUD2CON	set	1175
   481  0491                     _RC2REG	set	1169
   482  0495                     _RC2STA	set	1173
   483  0495                     _RC2STAbits	set	1173
   484  0494                     _SP2BRGH	set	1172
   485  0493                     _SP2BRGL	set	1171
   486  0492                     _TX2REG	set	1170
   487  0496                     _TX2STA	set	1174
   488  0496                     _TX2STAbits	set	1174
   489  0596                     _PR8	set	1430
   490  0597                     _T8CON	set	1431
   491  061C                     _CCP9CON	set	1564
   492  061A                     _CCPR9L	set	1562
   493  1002                     STR_8:	
   494  1002  342D               	retlw	45	;'-'
   495  1003  343E               	retlw	62	;'>'
   496  1004  3420               	retlw	32	;' '
   497  1005  3449               	retlw	73	;'I'
   498  1006  346E               	retlw	110	;'n'
   499  1007  3473               	retlw	115	;'s'
   500  1008  3465               	retlw	101	;'e'
   501  1009  3472               	retlw	114	;'r'
   502  100A  3474               	retlw	116	;'t'
   503  100B  3420               	retlw	32	;' '
   504  100C  3450               	retlw	80	;'P'
   505  100D  3443               	retlw	67	;'C'
   506  100E  3442               	retlw	66	;'B'
   507  100F  3420               	retlw	32	;' '
   508  1010  3426               	retlw	38	;'&'
   509  1011  3420               	retlw	32	;' '
   510  1012  3453               	retlw	83	;'S'
   511  1013  3474               	retlw	116	;'t'
   512  1014  3461               	retlw	97	;'a'
   513  1015  3472               	retlw	114	;'r'
   514  1016  3474               	retlw	116	;'t'
   515  1017  3400               	retlw	0
   516  1018                     STR_133:	
   517  1018  3444               	retlw	68	;'D'
   518  1019  3443               	retlw	67	;'C'
   519  101A  3442               	retlw	66	;'B'
   520  101B  3441               	retlw	65	;'A'
   521  101C  3420               	retlw	32	;' '
   522  101D  3452               	retlw	82	;'R'
   523  101E  346F               	retlw	111	;'o'
   524  101F  346C               	retlw	108	;'l'
   525  1020  346C               	retlw	108	;'l'
   526  1021  342D               	retlw	45	;'-'
   527  1022  3475               	retlw	117	;'u'
   528  1023  3470               	retlw	112	;'p'
   529  1024  3420               	retlw	32	;' '
   530  1025  3450               	retlw	80	;'P'
   531  1026  3461               	retlw	97	;'a'
   532  1027  3473               	retlw	115	;'s'
   533  1028  3473               	retlw	115	;'s'
   534  1029  3400               	retlw	0
   535  102A                     STR_137:	
   536  102A  3449               	retlw	73	;'I'
   537  102B  346E               	retlw	110	;'n'
   538  102C  3473               	retlw	115	;'s'
   539  102D  3465               	retlw	101	;'e'
   540  102E  3472               	retlw	114	;'r'
   541  102F  3474               	retlw	116	;'t'
   542  1030  3420               	retlw	32	;' '
   543  1031  344E               	retlw	78	;'N'
   544  1032  3465               	retlw	101	;'e'
   545  1033  3477               	retlw	119	;'w'
   546  1034  3420               	retlw	32	;' '
   547  1035  3442               	retlw	66	;'B'
   548  1036  346F               	retlw	111	;'o'
   549  1037  3461               	retlw	97	;'a'
   550  1038  3472               	retlw	114	;'r'
   551  1039  3464               	retlw	100	;'d'
   552  103A  3400               	retlw	0
   553  103B                     STR_6:	
   554  103B  3454               	retlw	84	;'T'
   555  103C  3465               	retlw	101	;'e'
   556  103D  3473               	retlw	115	;'s'
   557  103E  3474               	retlw	116	;'t'
   558  103F  342D               	retlw	45	;'-'
   559  1040  344A               	retlw	74	;'J'
   560  1041  3469               	retlw	105	;'i'
   561  1042  3467               	retlw	103	;'g'
   562  1043  347C               	retlw	124	;'|'
   563  1044  3453               	retlw	83	;'S'
   564  1045  3474               	retlw	116	;'t'
   565  1046  3461               	retlw	97	;'a'
   566  1047  3472               	retlw	114	;'r'
   567  1048  3474               	retlw	116	;'t'
   568  1049  3475               	retlw	117	;'u'
   569  104A  3470               	retlw	112	;'p'
   570  104B  3400               	retlw	0
   571  104C                     STR_138:	
   572  104C  3454               	retlw	84	;'T'
   573  104D  3468               	retlw	104	;'h'
   574  104E  3465               	retlw	101	;'e'
   575  104F  346E               	retlw	110	;'n'
   576  1050  3420               	retlw	32	;' '
   577  1051  3450               	retlw	80	;'P'
   578  1052  3472               	retlw	114	;'r'
   579  1053  3465               	retlw	101	;'e'
   580  1054  3473               	retlw	115	;'s'
   581  1055  3473               	retlw	115	;'s'
   582  1056  3420               	retlw	32	;' '
   583  1057  3453               	retlw	83	;'S'
   584  1058  3474               	retlw	116	;'t'
   585  1059  3461               	retlw	97	;'a'
   586  105A  3472               	retlw	114	;'r'
   587  105B  3474               	retlw	116	;'t'
   588  105C  3400               	retlw	0
   589  105D                     STR_158:	
   590  105D  3420               	retlw	32	;' '
   591  105E  3474               	retlw	116	;'t'
   592  105F  346F               	retlw	111	;'o'
   593  1060  3420               	retlw	32	;' '
   594  1061  3472               	retlw	114	;'r'
   595  1062  3465               	retlw	101	;'e'
   596  1063  3473               	retlw	115	;'s'
   597  1064  3474               	retlw	116	;'t'
   598  1065  3461               	retlw	97	;'a'
   599  1066  3472               	retlw	114	;'r'
   600  1067  3474               	retlw	116	;'t'
   601  1068  3420               	retlw	32	;' '
   602  1069  3474               	retlw	116	;'t'
   603  106A  3465               	retlw	101	;'e'
   604  106B  3473               	retlw	115	;'s'
   605  106C  3474               	retlw	116	;'t'
   606  106D  3400               	retlw	0
   607  106E                     STR_7:	
   608  106E  3444               	retlw	68	;'D'
   609  106F  3443               	retlw	67	;'C'
   610  1070  3442               	retlw	66	;'B'
   611  1071  3441               	retlw	65	;'A'
   612  1072  3420               	retlw	32	;' '
   613  1073  3452               	retlw	82	;'R'
   614  1074  346F               	retlw	111	;'o'
   615  1075  346C               	retlw	108	;'l'
   616  1076  346C               	retlw	108	;'l'
   617  1077  342D               	retlw	45	;'-'
   618  1078  3475               	retlw	117	;'u'
   619  1079  3470               	retlw	112	;'p'
   620  107A  3420               	retlw	32	;' '
   621  107B  3454               	retlw	84	;'T'
   622  107C  344A               	retlw	74	;'J'
   623  107D  3400               	retlw	0
   624  107E                     STR_40:	
   625  107E  3456               	retlw	86	;'V'
   626  107F  346F               	retlw	111	;'o'
   627  1080  346C               	retlw	108	;'l'
   628  1081  3474               	retlw	116	;'t'
   629  1082  3461               	retlw	97	;'a'
   630  1083  3467               	retlw	103	;'g'
   631  1084  3465               	retlw	101	;'e'
   632  1085  3420               	retlw	32	;' '
   633  1086  3474               	retlw	116	;'t'
   634  1087  346F               	retlw	111	;'o'
   635  1088  3420               	retlw	32	;' '
   636  1089  3448               	retlw	72	;'H'
   637  108A  3469               	retlw	105	;'i'
   638  108B  3467               	retlw	103	;'g'
   639  108C  3468               	retlw	104	;'h'
   640  108D  3400               	retlw	0
   641  108E                     STR_115:	
   642  108E  3454               	retlw	84	;'T'
   643  108F  3465               	retlw	101	;'e'
   644  1090  3473               	retlw	115	;'s'
   645  1091  3474               	retlw	116	;'t'
   646  1092  3469               	retlw	105	;'i'
   647  1093  346E               	retlw	110	;'n'
   648  1094  3467               	retlw	103	;'g'
   649  1095  3420               	retlw	32	;' '
   650  1096  3443               	retlw	67	;'C'
   651  1097  3468               	retlw	104	;'h'
   652  1098  3461               	retlw	97	;'a'
   653  1099  3472               	retlw	114	;'r'
   654  109A  3467               	retlw	103	;'g'
   655  109B  3465               	retlw	101	;'e'
   656  109C  3472               	retlw	114	;'r'
   657  109D  3400               	retlw	0
   658  109E                     STR_131:	
   659  109E  344D               	retlw	77	;'M'
   660  109F  3465               	retlw	101	;'e'
   661  10A0  346D               	retlw	109	;'m'
   662  10A1  345F               	retlw	95	;'_'
   663  10A2  3443               	retlw	67	;'C'
   664  10A3  346F               	retlw	111	;'o'
   665  10A4  3470               	retlw	112	;'p'
   666  10A5  3469               	retlw	105	;'i'
   667  10A6  3465               	retlw	101	;'e'
   668  10A7  3472               	retlw	114	;'r'
   669  10A8  3420               	retlw	32	;' '
   670  10A9  3450               	retlw	80	;'P'
   671  10AA  3461               	retlw	97	;'a'
   672  10AB  3473               	retlw	115	;'s'
   673  10AC  3473               	retlw	115	;'s'
   674  10AD  3400               	retlw	0
   675  10AE                     STR_80:	
   676  10AE  3450               	retlw	80	;'P'
   677  10AF  3472               	retlw	114	;'r'
   678  10B0  3465               	retlw	101	;'e'
   679  10B1  3473               	retlw	115	;'s'
   680  10B2  3473               	retlw	115	;'s'
   681  10B3  3420               	retlw	32	;' '
   682  10B4  3444               	retlw	68	;'D'
   683  10B5  346F               	retlw	111	;'o'
   684  10B6  3477               	retlw	119	;'w'
   685  10B7  346E               	retlw	110	;'n'
   686  10B8  3420               	retlw	32	;' '
   687  10B9  3442               	retlw	66	;'B'
   688  10BA  3475               	retlw	117	;'u'
   689  10BB  3474               	retlw	116	;'t'
   690  10BC  3474               	retlw	116	;'t'
   691  10BD  3400               	retlw	0
   692  10BE                     STR_62:	
   693  10BE  3442               	retlw	66	;'B'
   694  10BF  3475               	retlw	117	;'u'
   695  10C0  3474               	retlw	116	;'t'
   696  10C1  3474               	retlw	116	;'t'
   697  10C2  3420               	retlw	32	;' '
   698  10C3  3444               	retlw	68	;'D'
   699  10C4  346F               	retlw	111	;'o'
   700  10C5  3477               	retlw	119	;'w'
   701  10C6  346E               	retlw	110	;'n'
   702  10C7  3420               	retlw	32	;' '
   703  10C8  3449               	retlw	73	;'I'
   704  10C9  346E               	retlw	110	;'n'
   705  10CA  3470               	retlw	112	;'p'
   706  10CB  3475               	retlw	117	;'u'
   707  10CC  3474               	retlw	116	;'t'
   708  10CD  3400               	retlw	0
   709  10CE                     STR_13:	
   710  10CE  3450               	retlw	80	;'P'
   711  10CF  346F               	retlw	111	;'o'
   712  10D0  3477               	retlw	119	;'w'
   713  10D1  3465               	retlw	101	;'e'
   714  10D2  3472               	retlw	114	;'r'
   715  10D3  3469               	retlw	105	;'i'
   716  10D4  346E               	retlw	110	;'n'
   717  10D5  3467               	retlw	103	;'g'
   718  10D6  3420               	retlw	32	;' '
   719  10D7  3442               	retlw	66	;'B'
   720  10D8  346F               	retlw	111	;'o'
   721  10D9  3461               	retlw	97	;'a'
   722  10DA  3472               	retlw	114	;'r'
   723  10DB  3464               	retlw	100	;'d'
   724  10DC  3400               	retlw	0
   725  10DD                     STR_90:	
   726  10DD  3443               	retlw	67	;'C'
   727  10DE  3468               	retlw	104	;'h'
   728  10DF  3461               	retlw	97	;'a'
   729  10E0  3472               	retlw	114	;'r'
   730  10E1  3467               	retlw	103	;'g'
   731  10E2  3465               	retlw	101	;'e'
   732  10E3  3420               	retlw	32	;' '
   733  10E4  3444               	retlw	68	;'D'
   734  10E5  3469               	retlw	105	;'i'
   735  10E6  3473               	retlw	115	;'s'
   736  10E7  3461               	retlw	97	;'a'
   737  10E8  3462               	retlw	98	;'b'
   738  10E9  346C               	retlw	108	;'l'
   739  10EA  3465               	retlw	101	;'e'
   740  10EB  3400               	retlw	0
   741  10EC                     STR_23:	
   742  10EC  3456               	retlw	86	;'V'
   743  10ED  3431               	retlw	49	;'1'
   744  10EE  3420               	retlw	32	;' '
   745  10EF  3456               	retlw	86	;'V'
   746  10F0  346F               	retlw	111	;'o'
   747  10F1  346C               	retlw	108	;'l'
   748  10F2  3474               	retlw	116	;'t'
   749  10F3  3461               	retlw	97	;'a'
   750  10F4  3467               	retlw	103	;'g'
   751  10F5  3465               	retlw	101	;'e'
   752  10F6  342D               	retlw	45	;'-'
   753  10F7  344A               	retlw	74	;'J'
   754  10F8  3469               	retlw	105	;'i'
   755  10F9  3467               	retlw	103	;'g'
   756  10FA  3400               	retlw	0
   757  10FB                     STR_149:	
   758  10FB  3443               	retlw	67	;'C'
   759  10FC  346F               	retlw	111	;'o'
   760  10FD  346E               	retlw	110	;'n'
   761  10FE  3464               	retlw	100	;'d'
   762  10FF  346F               	retlw	111	;'o'
   763  1100  3433               	retlw	51	;'3'
   764  1101  3420               	retlw	32	;' '
   765  1102  3454               	retlw	84	;'T'
   766  1103  3465               	retlw	101	;'e'
   767  1104  3473               	retlw	115	;'s'
   768  1105  3474               	retlw	116	;'t'
   769  1106  346A               	retlw	106	;'j'
   770  1107  3469               	retlw	105	;'i'
   771  1108  3467               	retlw	103	;'g'
   772  1109  3400               	retlw	0
   773  110A                     STR_47:	
   774  110A  3442               	retlw	66	;'B'
   775  110B  3465               	retlw	101	;'e'
   776  110C  3461               	retlw	97	;'a'
   777  110D  346D               	retlw	109	;'m'
   778  110E  3420               	retlw	32	;' '
   779  110F  3449               	retlw	73	;'I'
   780  1110  346E               	retlw	110	;'n'
   781  1111  3470               	retlw	112	;'p'
   782  1112  3475               	retlw	117	;'u'
   783  1113  3474               	retlw	116	;'t'
   784  1114  3420               	retlw	32	;' '
   785  1115  3445               	retlw	69	;'E'
   786  1116  3472               	retlw	114	;'r'
   787  1117  3472               	retlw	114	;'r'
   788  1118  3400               	retlw	0
   789  1119                     STR_3:	
   790  1119  3443               	retlw	67	;'C'
   791  111A  346F               	retlw	111	;'o'
   792  111B  346D               	retlw	109	;'m'
   793  111C  346D               	retlw	109	;'m'
   794  111D  3473               	retlw	115	;'s'
   795  111E  345F               	retlw	95	;'_'
   796  111F  3444               	retlw	68	;'D'
   797  1120  3461               	retlw	97	;'a'
   798  1121  3474               	retlw	116	;'t'
   799  1122  3461               	retlw	97	;'a'
   800  1123  345F               	retlw	95	;'_'
   801  1124  3445               	retlw	69	;'E'
   802  1125  3472               	retlw	114	;'r'
   803  1126  3472               	retlw	114	;'r'
   804  1127  3400               	retlw	0
   805  1128                     STR_42:	
   806  1128  3456               	retlw	86	;'V'
   807  1129  346F               	retlw	111	;'o'
   808  112A  346C               	retlw	108	;'l'
   809  112B  3474               	retlw	116	;'t'
   810  112C  3461               	retlw	97	;'a'
   811  112D  3467               	retlw	103	;'g'
   812  112E  3465               	retlw	101	;'e'
   813  112F  3420               	retlw	32	;' '
   814  1130  3474               	retlw	116	;'t'
   815  1131  346F               	retlw	111	;'o'
   816  1132  3420               	retlw	32	;' '
   817  1133  344C               	retlw	76	;'L'
   818  1134  346F               	retlw	111	;'o'
   819  1135  3477               	retlw	119	;'w'
   820  1136  3400               	retlw	0
   821  1137                     STR_100:	
   822  1137  3443               	retlw	67	;'C'
   823  1138  3469               	retlw	105	;'i'
   824  1139  3472               	retlw	114	;'r'
   825  113A  3463               	retlw	99	;'c'
   826  113B  3475               	retlw	117	;'u'
   827  113C  3469               	retlw	105	;'i'
   828  113D  3474               	retlw	116	;'t'
   829  113E  3420               	retlw	32	;' '
   830  113F  3445               	retlw	69	;'E'
   831  1140  3472               	retlw	114	;'r'
   832  1141  3472               	retlw	114	;'r'
   833  1142  3420               	retlw	32	;' '
   834  1143  3431               	retlw	49	;'1'
   835  1144  3400               	retlw	0
   836  1145                     STR_102:	
   837  1145  3443               	retlw	67	;'C'
   838  1146  3469               	retlw	105	;'i'
   839  1147  3472               	retlw	114	;'r'
   840  1148  3463               	retlw	99	;'c'
   841  1149  3475               	retlw	117	;'u'
   842  114A  3469               	retlw	105	;'i'
   843  114B  3474               	retlw	116	;'t'
   844  114C  3420               	retlw	32	;' '
   845  114D  3445               	retlw	69	;'E'
   846  114E  3472               	retlw	114	;'r'
   847  114F  3472               	retlw	114	;'r'
   848  1150  3420               	retlw	32	;' '
   849  1151  3432               	retlw	50	;'2'
   850  1152  3400               	retlw	0
   851  1153                     STR_104:	
   852  1153  3443               	retlw	67	;'C'
   853  1154  3469               	retlw	105	;'i'
   854  1155  3472               	retlw	114	;'r'
   855  1156  3463               	retlw	99	;'c'
   856  1157  3475               	retlw	117	;'u'
   857  1158  3469               	retlw	105	;'i'
   858  1159  3474               	retlw	116	;'t'
   859  115A  3420               	retlw	32	;' '
   860  115B  3445               	retlw	69	;'E'
   861  115C  3472               	retlw	114	;'r'
   862  115D  3472               	retlw	114	;'r'
   863  115E  3420               	retlw	32	;' '
   864  115F  3433               	retlw	51	;'3'
   865  1160  3400               	retlw	0
   866  1161                     STR_81:	
   867  1161  3441               	retlw	65	;'A'
   868  1162  346C               	retlw	108	;'l'
   869  1163  346C               	retlw	108	;'l'
   870  1164  3420               	retlw	32	;' '
   871  1165  344C               	retlw	76	;'L'
   872  1166  3465               	retlw	101	;'e'
   873  1167  3464               	retlw	100	;'d'
   874  1168  3473               	retlw	115	;'s'
   875  1169  3420               	retlw	32	;' '
   876  116A  344F               	retlw	79	;'O'
   877  116B  3466               	retlw	102	;'f'
   878  116C  3466               	retlw	102	;'f'
   879  116D  343F               	retlw	63	;'?'
   880  116E  3400               	retlw	0
   881  116F                     STR_150:	
   882  116F  342D               	retlw	45	;'-'
   883  1170  343E               	retlw	62	;'>'
   884  1171  3420               	retlw	32	;' '
   885  1172  3449               	retlw	73	;'I'
   886  1173  346E               	retlw	110	;'n'
   887  1174  3473               	retlw	115	;'s'
   888  1175  3465               	retlw	101	;'e'
   889  1176  3472               	retlw	114	;'r'
   890  1177  3474               	retlw	116	;'t'
   891  1178  3420               	retlw	32	;' '
   892  1179  3450               	retlw	80	;'P'
   893  117A  3443               	retlw	67	;'C'
   894  117B  3442               	retlw	66	;'B'
   895  117C  3400               	retlw	0
   896  117D                     STR_128:	
   897  117D  3420               	retlw	32	;' '
   898  117E  3452               	retlw	82	;'R'
   899  117F  3465               	retlw	101	;'e'
   900  1180  346D               	retlw	109	;'m'
   901  1181  346F               	retlw	111	;'o'
   902  1182  3476               	retlw	118	;'v'
   903  1183  3465               	retlw	101	;'e'
   904  1184  3420               	retlw	32	;' '
   905  1185  3462               	retlw	98	;'b'
   906  1186  346F               	retlw	111	;'o'
   907  1187  3461               	retlw	97	;'a'
   908  1188  3472               	retlw	114	;'r'
   909  1189  3464               	retlw	100	;'d'
   910  118A  3400               	retlw	0
   911  118B                     STR_122:	
   912  118B  3443               	retlw	67	;'C'
   913  118C  3475               	retlw	117	;'u'
   914  118D  3472               	retlw	114	;'r'
   915  118E  3472               	retlw	114	;'r'
   916  118F  3420               	retlw	32	;' '
   917  1190  3474               	retlw	116	;'t'
   918  1191  346F               	retlw	111	;'o'
   919  1192  346F               	retlw	111	;'o'
   920  1193  3420               	retlw	32	;' '
   921  1194  3468               	retlw	104	;'h'
   922  1195  3469               	retlw	105	;'i'
   923  1196  3467               	retlw	103	;'g'
   924  1197  3468               	retlw	104	;'h'
   925  1198  3400               	retlw	0
   926  1199                     STR_54:	
   927  1199  3441               	retlw	65	;'A'
   928  119A  346C               	retlw	108	;'l'
   929  119B  346C               	retlw	108	;'l'
   930  119C  3420               	retlw	32	;' '
   931  119D  3469               	retlw	105	;'i'
   932  119E  346F               	retlw	111	;'o'
   933  119F  3427               	retlw	39	;'''
   934  11A0  3473               	retlw	115	;'s'
   935  11A1  3420               	retlw	32	;' '
   936  11A2  3468               	retlw	104	;'h'
   937  11A3  3469               	retlw	105	;'i'
   938  11A4  3467               	retlw	103	;'g'
   939  11A5  3468               	retlw	104	;'h'
   940  11A6  3400               	retlw	0
   941  11A7                     STR_92:	
   942  11A7  344D               	retlw	77	;'M'
   943  11A8  346F               	retlw	111	;'o'
   944  11A9  3474               	retlw	116	;'t'
   945  11AA  346F               	retlw	111	;'o'
   946  11AB  3472               	retlw	114	;'r'
   947  11AC  3420               	retlw	32	;' '
   948  11AD  3443               	retlw	67	;'C'
   949  11AE  3469               	retlw	105	;'i'
   950  11AF  3472               	retlw	114	;'r'
   951  11B0  3463               	retlw	99	;'c'
   952  11B1  3475               	retlw	117	;'u'
   953  11B2  3469               	retlw	105	;'i'
   954  11B3  3474               	retlw	116	;'t'
   955  11B4  3400               	retlw	0
   956  11B5                     STR_94:	
   957  11B5  3443               	retlw	67	;'C'
   958  11B6  3469               	retlw	105	;'i'
   959  11B7  3472               	retlw	114	;'r'
   960  11B8  3463               	retlw	99	;'c'
   961  11B9  3475               	retlw	117	;'u'
   962  11BA  3469               	retlw	105	;'i'
   963  11BB  3474               	retlw	116	;'t'
   964  11BC  3420               	retlw	32	;' '
   965  11BD  3453               	retlw	83	;'S'
   966  11BE  3468               	retlw	104	;'h'
   967  11BF  346F               	retlw	111	;'o'
   968  11C0  3472               	retlw	114	;'r'
   969  11C1  3474               	retlw	116	;'t'
   970  11C2  3400               	retlw	0
   971  11C3                     STR_1:	
   972  11C3  3443               	retlw	67	;'C'
   973  11C4  346F               	retlw	111	;'o'
   974  11C5  346D               	retlw	109	;'m'
   975  11C6  346D               	retlw	109	;'m'
   976  11C7  3473               	retlw	115	;'s'
   977  11C8  3420               	retlw	32	;' '
   978  11C9  3454               	retlw	84	;'T'
   979  11CA  3469               	retlw	105	;'i'
   980  11CB  346D               	retlw	109	;'m'
   981  11CC  3465               	retlw	101	;'e'
   982  11CD  346F               	retlw	111	;'o'
   983  11CE  3475               	retlw	117	;'u'
   984  11CF  3474               	retlw	116	;'t'
   985  11D0  3400               	retlw	0
   986  11D1                     STR_60:	
   987  11D1  3442               	retlw	66	;'B'
   988  11D2  3475               	retlw	117	;'u'
   989  11D3  3474               	retlw	116	;'t'
   990  11D4  3474               	retlw	116	;'t'
   991  11D5  3420               	retlw	32	;' '
   992  11D6  3455               	retlw	85	;'U'
   993  11D7  3470               	retlw	112	;'p'
   994  11D8  3420               	retlw	32	;' '
   995  11D9  3449               	retlw	73	;'I'
   996  11DA  346E               	retlw	110	;'n'
   997  11DB  3470               	retlw	112	;'p'
   998  11DC  3475               	retlw	117	;'u'
   999  11DD  3474               	retlw	116	;'t'
  1000  11DE  3400               	retlw	0
  1001  11DF                     STR_56:	
  1002  11DF  3445               	retlw	69	;'E'
  1003  11E0  346E               	retlw	110	;'n'
  1004  11E1  3463               	retlw	99	;'c'
  1005  11E2  346F               	retlw	111	;'o'
  1006  11E3  3464               	retlw	100	;'d'
  1007  11E4  3465               	retlw	101	;'e'
  1008  11E5  3472               	retlw	114	;'r'
  1009  11E6  3420               	retlw	32	;' '
  1010  11E7  3449               	retlw	73	;'I'
  1011  11E8  346E               	retlw	110	;'n'
  1012  11E9  3470               	retlw	112	;'p'
  1013  11EA  3475               	retlw	117	;'u'
  1014  11EB  3474               	retlw	116	;'t'
  1015  11EC  3400               	retlw	0
  1016  11ED                     STR_58:	
  1017  11ED  3445               	retlw	69	;'E'
  1018  11EE  3463               	retlw	99	;'c'
  1019  11EF  3461               	retlw	97	;'a'
  1020  11F0  346E               	retlw	110	;'n'
  1021  11F1  3420               	retlw	32	;' '
  1022  11F2  3452               	retlw	82	;'R'
  1023  11F3  3478               	retlw	120	;'x'
  1024  11F4  3420               	retlw	32	;' '
  1025  11F5  3449               	retlw	73	;'I'
  1026  11F6  346E               	retlw	110	;'n'
  1027  11F7  3470               	retlw	112	;'p'
  1028  11F8  3475               	retlw	117	;'u'
  1029  11F9  3474               	retlw	116	;'t'
  1030  11FA  3400               	retlw	0
  1031  11FB                     STR_21:	
  1032  11FB  344D               	retlw	77	;'M'
  1033  11FC  3465               	retlw	101	;'e'
  1034  11FD  3461               	retlw	97	;'a'
  1035  11FE  3473               	retlw	115	;'s'
  1036  11FF  3475               	retlw	117	;'u'
  1037  1200  3472               	retlw	114	;'r'
  1038  1201  3469               	retlw	105	;'i'
  1039  1202  346E               	retlw	110	;'n'
  1040  1203  3467               	retlw	103	;'g'
  1041  1204  3420               	retlw	32	;' '
  1042  1205  3456               	retlw	86	;'V'
  1043  1206  3431               	retlw	49	;'1'
  1044  1207  3400               	retlw	0
  1045  1208                     STR_79:	
  1046  1208  3441               	retlw	65	;'A'
  1047  1209  346C               	retlw	108	;'l'
  1048  120A  346C               	retlw	108	;'l'
  1049  120B  3420               	retlw	32	;' '
  1050  120C  344C               	retlw	76	;'L'
  1051  120D  3465               	retlw	101	;'e'
  1052  120E  3464               	retlw	100	;'d'
  1053  120F  3473               	retlw	115	;'s'
  1054  1210  3420               	retlw	32	;' '
  1055  1211  344F               	retlw	79	;'O'
  1056  1212  346E               	retlw	110	;'n'
  1057  1213  343F               	retlw	63	;'?'
  1058  1214  3400               	retlw	0
  1059  1215                     STR_35:	
  1060  1215  3456               	retlw	86	;'V'
  1061  1216  3431               	retlw	49	;'1'
  1062  1217  3420               	retlw	32	;' '
  1063  1218  3456               	retlw	86	;'V'
  1064  1219  346F               	retlw	111	;'o'
  1065  121A  346C               	retlw	108	;'l'
  1066  121B  3474               	retlw	116	;'t'
  1067  121C  3461               	retlw	97	;'a'
  1068  121D  3467               	retlw	103	;'g'
  1069  121E  3465               	retlw	101	;'e'
  1070  121F  3420               	retlw	32	;' '
  1071  1220  3462               	retlw	98	;'b'
  1072  1221  3400               	retlw	0
  1073  1222                     STR_88:	
  1074  1222  3442               	retlw	66	;'B'
  1075  1223  3461               	retlw	97	;'a'
  1076  1224  3474               	retlw	116	;'t'
  1077  1225  3474               	retlw	116	;'t'
  1078  1226  3465               	retlw	101	;'e'
  1079  1227  3472               	retlw	114	;'r'
  1080  1228  3479               	retlw	121	;'y'
  1081  1229  3420               	retlw	32	;' '
  1082  122A  3444               	retlw	68	;'D'
  1083  122B  3469               	retlw	105	;'i'
  1084  122C  3473               	retlw	115	;'s'
  1085  122D  3463               	retlw	99	;'c'
  1086  122E  3400               	retlw	0
  1087  122F                     STR_48:	
  1088  122F  344E               	retlw	78	;'N'
  1089  1230  346F               	retlw	111	;'o'
  1090  1231  3474               	retlw	116	;'t'
  1091  1232  3420               	retlw	32	;' '
  1092  1233  3472               	retlw	114	;'r'
  1093  1234  3465               	retlw	101	;'e'
  1094  1235  346C               	retlw	108	;'l'
  1095  1236  3465               	retlw	101	;'e'
  1096  1237  3461               	retlw	97	;'a'
  1097  1238  3473               	retlw	115	;'s'
  1098  1239  3465               	retlw	101	;'e'
  1099  123A  3464               	retlw	100	;'d'
  1100  123B  3400               	retlw	0
  1101  123C                     STR_98:	
  1102  123C  3443               	retlw	67	;'C'
  1103  123D  3469               	retlw	105	;'i'
  1104  123E  3472               	retlw	114	;'r'
  1105  123F  3463               	retlw	99	;'c'
  1106  1240  3475               	retlw	117	;'u'
  1107  1241  3469               	retlw	105	;'i'
  1108  1242  3474               	retlw	116	;'t'
  1109  1243  3420               	retlw	32	;' '
  1110  1244  344F               	retlw	79	;'O'
  1111  1245  3470               	retlw	112	;'p'
  1112  1246  3465               	retlw	101	;'e'
  1113  1247  346E               	retlw	110	;'n'
  1114  1248  3400               	retlw	0
  1115  1249                     STR_5:	
  1116  1249  3444               	retlw	68	;'D'
  1117  124A  3443               	retlw	67	;'C'
  1118  124B  3442               	retlw	66	;'B'
  1119  124C  3441               	retlw	65	;'A'
  1120  124D  3420               	retlw	32	;' '
  1121  124E  3452               	retlw	82	;'R'
  1122  124F  346F               	retlw	111	;'o'
  1123  1250  346C               	retlw	108	;'l'
  1124  1251  346C               	retlw	108	;'l'
  1125  1252  342D               	retlw	45	;'-'
  1126  1253  3475               	retlw	117	;'u'
  1127  1254  3470               	retlw	112	;'p'
  1128  1255  3400               	retlw	0
  1129  1256                     STR_25:	
  1130  1256  344D               	retlw	77	;'M'
  1131  1257  3465               	retlw	101	;'e'
  1132  1258  3461               	retlw	97	;'a'
  1133  1259  3473               	retlw	115	;'s'
  1134  125A  3475               	retlw	117	;'u'
  1135  125B  3472               	retlw	114	;'r'
  1136  125C  3469               	retlw	105	;'i'
  1137  125D  346E               	retlw	110	;'n'
  1138  125E  3467               	retlw	103	;'g'
  1139  125F  3420               	retlw	32	;' '
  1140  1260  3435               	retlw	53	;'5'
  1141  1261  3476               	retlw	118	;'v'
  1142  1262  3400               	retlw	0
  1143  1263                     STR_124:	
  1144  1263  3443               	retlw	67	;'C'
  1145  1264  3475               	retlw	117	;'u'
  1146  1265  3472               	retlw	114	;'r'
  1147  1266  3472               	retlw	114	;'r'
  1148  1267  3420               	retlw	32	;' '
  1149  1268  3474               	retlw	116	;'t'
  1150  1269  346F               	retlw	111	;'o'
  1151  126A  346F               	retlw	111	;'o'
  1152  126B  3420               	retlw	32	;' '
  1153  126C  346C               	retlw	108	;'l'
  1154  126D  346F               	retlw	111	;'o'
  1155  126E  3477               	retlw	119	;'w'
  1156  126F  3400               	retlw	0
  1157  1270                     STR_157:	
  1158  1270  3450               	retlw	80	;'P'
  1159  1271  3472               	retlw	114	;'r'
  1160  1272  3465               	retlw	101	;'e'
  1161  1273  3473               	retlw	115	;'s'
  1162  1274  3473               	retlw	115	;'s'
  1163  1275  3420               	retlw	32	;' '
  1164  1276  3453               	retlw	83	;'S'
  1165  1277  3454               	retlw	84	;'T'
  1166  1278  3441               	retlw	65	;'A'
  1167  1279  3452               	retlw	82	;'R'
  1168  127A  3454               	retlw	84	;'T'
  1169  127B  3400               	retlw	0
  1170  127C                     STR_151:	
  1171  127C  3452               	retlw	82	;'R'
  1172  127D  3458               	retlw	88	;'X'
  1173  127E  3433               	retlw	51	;'3'
  1174  127F  3420               	retlw	32	;' '
  1175  1280  3454               	retlw	84	;'T'
  1176  1281  3465               	retlw	101	;'e'
  1177  1282  3473               	retlw	115	;'s'
  1178  1283  3474               	retlw	116	;'t'
  1179  1284  346A               	retlw	106	;'j'
  1180  1285  3469               	retlw	105	;'i'
  1181  1286  3467               	retlw	103	;'g'
  1182  1287  3400               	retlw	0
  1183  1288                     STR_33:	
  1184  1288  3450               	retlw	80	;'P'
  1185  1289  3472               	retlw	114	;'r'
  1186  128A  346F               	retlw	111	;'o'
  1187  128B  3467               	retlw	103	;'g'
  1188  128C  3472               	retlw	114	;'r'
  1189  128D  3461               	retlw	97	;'a'
  1190  128E  346D               	retlw	109	;'m'
  1191  128F  346D               	retlw	109	;'m'
  1192  1290  3469               	retlw	105	;'i'
  1193  1291  346E               	retlw	110	;'n'
  1194  1292  3467               	retlw	103	;'g'
  1195  1293  3400               	retlw	0
  1196  1294                     STR_93:	
  1197  1294  3445               	retlw	69	;'E'
  1198  1295  3472               	retlw	114	;'r'
  1199  1296  3472               	retlw	114	;'r'
  1200  1297  346F               	retlw	111	;'o'
  1201  1298  3472               	retlw	114	;'r'
  1202  1299  3420               	retlw	32	;' '
  1203  129A  344D               	retlw	77	;'M'
  1204  129B  346F               	retlw	111	;'o'
  1205  129C  3474               	retlw	116	;'t'
  1206  129D  346F               	retlw	111	;'o'
  1207  129E  3472               	retlw	114	;'r'
  1208  129F  3400               	retlw	0
  1209  12A0                     STR_121:	
  1210  12A0  3443               	retlw	67	;'C'
  1211  12A1  3468               	retlw	104	;'h'
  1212  12A2  3461               	retlw	97	;'a'
  1213  12A3  3472               	retlw	114	;'r'
  1214  12A4  3467               	retlw	103	;'g'
  1215  12A5  3465               	retlw	101	;'e'
  1216  12A6  3472               	retlw	114	;'r'
  1217  12A7  3420               	retlw	32	;' '
  1218  12A8  3445               	retlw	69	;'E'
  1219  12A9  3472               	retlw	114	;'r'
  1220  12AA  3472               	retlw	114	;'r'
  1221  12AB  3400               	retlw	0
  1222  12AC                     STR_127:	
  1223  12AC  3443               	retlw	67	;'C'
  1224  12AD  346F               	retlw	111	;'o'
  1225  12AE  346E               	retlw	110	;'n'
  1226  12AF  3464               	retlw	100	;'d'
  1227  12B0  346F               	retlw	111	;'o'
  1228  12B1  3433               	retlw	51	;'3'
  1229  12B2  3420               	retlw	32	;' '
  1230  12B3  3450               	retlw	80	;'P'
  1231  12B4  3461               	retlw	97	;'a'
  1232  12B5  3473               	retlw	115	;'s'
  1233  12B6  3473               	retlw	115	;'s'
  1234  12B7  3400               	retlw	0
  1235  12B8                     STR_16:	
  1236  12B8  344D               	retlw	77	;'M'
  1237  12B9  346F               	retlw	111	;'o'
  1238  12BA  3474               	retlw	116	;'t'
  1239  12BB  346F               	retlw	111	;'o'
  1240  12BC  3472               	retlw	114	;'r'
  1241  12BD  3420               	retlw	32	;' '
  1242  12BE  3453               	retlw	83	;'S'
  1243  12BF  3468               	retlw	104	;'h'
  1244  12C0  346F               	retlw	111	;'o'
  1245  12C1  3472               	retlw	114	;'r'
  1246  12C2  3474               	retlw	116	;'t'
  1247  12C3  3400               	retlw	0
  1248  12C4                     STR_64:	
  1249  12C4  344C               	retlw	76	;'L'
  1250  12C5  3469               	retlw	105	;'i'
  1251  12C6  346D               	retlw	109	;'m'
  1252  12C7  3469               	retlw	105	;'i'
  1253  12C8  3474               	retlw	116	;'t'
  1254  12C9  3420               	retlw	32	;' '
  1255  12CA  3449               	retlw	73	;'I'
  1256  12CB  346E               	retlw	110	;'n'
  1257  12CC  3470               	retlw	112	;'p'
  1258  12CD  3475               	retlw	117	;'u'
  1259  12CE  3474               	retlw	116	;'t'
  1260  12CF  3400               	retlw	0
  1261  12D0                     STR_29:	
  1262  12D0  3435               	retlw	53	;'5'
  1263  12D1  3456               	retlw	86	;'V'
  1264  12D2  3420               	retlw	32	;' '
  1265  12D3  3456               	retlw	86	;'V'
  1266  12D4  346F               	retlw	111	;'o'
  1267  12D5  346C               	retlw	108	;'l'
  1268  12D6  3474               	retlw	116	;'t'
  1269  12D7  3461               	retlw	97	;'a'
  1270  12D8  3467               	retlw	103	;'g'
  1271  12D9  3465               	retlw	101	;'e'
  1272  12DA  3400               	retlw	0
  1273  12DB                     STR_39:	
  1274  12DB  3443               	retlw	67	;'C'
  1275  12DC  3468               	retlw	104	;'h'
  1276  12DD  3461               	retlw	97	;'a'
  1277  12DE  3472               	retlw	114	;'r'
  1278  12DF  3467               	retlw	103	;'g'
  1279  12E0  3465               	retlw	101	;'e'
  1280  12E1  3420               	retlw	32	;' '
  1281  12E2  3445               	retlw	69	;'E'
  1282  12E3  3472               	retlw	114	;'r'
  1283  12E4  3472               	retlw	114	;'r'
  1284  12E5  3400               	retlw	0
  1285  12E6                     STR_85:	
  1286  12E6  3442               	retlw	66	;'B'
  1287  12E7  3475               	retlw	117	;'u'
  1288  12E8  347A               	retlw	122	;'z'
  1289  12E9  347A               	retlw	122	;'z'
  1290  12EA  3420               	retlw	32	;' '
  1291  12EB  344F               	retlw	79	;'O'
  1292  12EC  3466               	retlw	102	;'f'
  1293  12ED  3466               	retlw	102	;'f'
  1294  12EE  343F               	retlw	63	;'?'
  1295  12EF  3400               	retlw	0
  1296  12F0                     STR_17:	
  1297  12F0  344D               	retlw	77	;'M'
  1298  12F1  3465               	retlw	101	;'e'
  1299  12F2  3461               	retlw	97	;'a'
  1300  12F3  3473               	retlw	115	;'s'
  1301  12F4  3475               	retlw	117	;'u'
  1302  12F5  3472               	retlw	114	;'r'
  1303  12F6  3469               	retlw	105	;'i'
  1304  12F7  346E               	retlw	110	;'n'
  1305  12F8  3467               	retlw	103	;'g'
  1306  12F9  3400               	retlw	0
  1307  12FA                     STR_112:	
  1308  12FA  3452               	retlw	82	;'R'
  1309  12FB  3478               	retlw	120	;'x'
  1310  12FC  3420               	retlw	32	;' '
  1311  12FD  3453               	retlw	83	;'S'
  1312  12FE  3479               	retlw	121	;'y'
  1313  12FF  3473               	retlw	115	;'s'
  1314  1300  3474               	retlw	116	;'t'
  1315  1301  3465               	retlw	101	;'e'
  1316  1302  346D               	retlw	109	;'m'
  1317  1303  3400               	retlw	0
  1318  1304                     STR_76:	
  1319  1304  3455               	retlw	85	;'U'
  1320  1305  3470               	retlw	112	;'p'
  1321  1306  3420               	retlw	32	;' '
  1322  1307  3442               	retlw	66	;'B'
  1323  1308  3475               	retlw	117	;'u'
  1324  1309  3474               	retlw	116	;'t'
  1325  130A  3474               	retlw	116	;'t'
  1326  130B  346F               	retlw	111	;'o'
  1327  130C  346E               	retlw	110	;'n'
  1328  130D  3400               	retlw	0
  1329  130E                     STR_125:	
  1330  130E  3454               	retlw	84	;'T'
  1331  130F  3465               	retlw	101	;'e'
  1332  1310  3473               	retlw	115	;'s'
  1333  1311  3474               	retlw	116	;'t'
  1334  1312  3420               	retlw	32	;' '
  1335  1313  3450               	retlw	80	;'P'
  1336  1314  3461               	retlw	97	;'a'
  1337  1315  3473               	retlw	115	;'s'
  1338  1316  3473               	retlw	115	;'s'
  1339  1317  3400               	retlw	0
  1340  1318                     STR_18:	
  1341  1318  3451               	retlw	81	;'Q'
  1342  1319  3420               	retlw	32	;' '
  1343  131A  3443               	retlw	67	;'C'
  1344  131B  3475               	retlw	117	;'u'
  1345  131C  3472               	retlw	114	;'r'
  1346  131D  3472               	retlw	114	;'r'
  1347  131E  3465               	retlw	101	;'e'
  1348  131F  346E               	retlw	110	;'n'
  1349  1320  3474               	retlw	116	;'t'
  1350  1321  3400               	retlw	0
  1351  1322                     STR_83:	
  1352  1322  3442               	retlw	66	;'B'
  1353  1323  3475               	retlw	117	;'u'
  1354  1324  347A               	retlw	122	;'z'
  1355  1325  347A               	retlw	122	;'z'
  1356  1326  3420               	retlw	32	;' '
  1357  1327  344F               	retlw	79	;'O'
  1358  1328  346E               	retlw	110	;'n'
  1359  1329  343F               	retlw	63	;'?'
  1360  132A  3400               	retlw	0
  1361  132B                     STR_43:	
  1362  132B  3456               	retlw	86	;'V'
  1363  132C  3432               	retlw	50	;'2'
  1364  132D  3420               	retlw	32	;' '
  1365  132E  3453               	retlw	83	;'S'
  1366  132F  3445               	retlw	69	;'E'
  1367  1330  344E               	retlw	78	;'N'
  1368  1331  3453               	retlw	83	;'S'
  1369  1332  3445               	retlw	69	;'E'
  1370  1333  3400               	retlw	0
  1371  1334                     STR_113:	
  1372  1334  3445               	retlw	69	;'E'
  1373  1335  3472               	retlw	114	;'r'
  1374  1336  3472               	retlw	114	;'r'
  1375  1337  346F               	retlw	111	;'o'
  1376  1338  3472               	retlw	114	;'r'
  1377  1339  3420               	retlw	32	;' '
  1378  133A  3452               	retlw	82	;'R'
  1379  133B  3446               	retlw	70	;'F'
  1380  133C  3400               	retlw	0
  1381  133D                     STR_34:	
  1382  133D  3442               	retlw	66	;'B'
  1383  133E  3479               	retlw	121	;'y'
  1384  133F  3470               	retlw	112	;'p'
  1385  1340  3461               	retlw	97	;'a'
  1386  1341  3473               	retlw	115	;'s'
  1387  1342  3473               	retlw	115	;'s'
  1388  1343  3465               	retlw	101	;'e'
  1389  1344  3464               	retlw	100	;'d'
  1390  1345  3400               	retlw	0
  1391  1346                     STR_10:	
  1392  1346  3444               	retlw	68	;'D'
  1393  1347  3465               	retlw	101	;'e'
  1394  1348  3474               	retlw	116	;'t'
  1395  1349  3465               	retlw	101	;'e'
  1396  134A  3463               	retlw	99	;'c'
  1397  134B  3474               	retlw	116	;'t'
  1398  134C  3465               	retlw	101	;'e'
  1399  134D  3464               	retlw	100	;'d'
  1400  134E  3400               	retlw	0
  1401  134F                     STR_20:	
  1402  134F  3454               	retlw	84	;'T'
  1403  1350  346F               	retlw	111	;'o'
  1404  1351  346F               	retlw	111	;'o'
  1405  1352  3420               	retlw	32	;' '
  1406  1353  3448               	retlw	72	;'H'
  1407  1354  3469               	retlw	105	;'i'
  1408  1355  3467               	retlw	103	;'g'
  1409  1356  3468               	retlw	104	;'h'
  1410  1357  3400               	retlw	0
  1411  1358                     STR_129:	
  1412  1358  3452               	retlw	82	;'R'
  1413  1359  3458               	retlw	88	;'X'
  1414  135A  3433               	retlw	51	;'3'
  1415  135B  3420               	retlw	32	;' '
  1416  135C  3450               	retlw	80	;'P'
  1417  135D  3461               	retlw	97	;'a'
  1418  135E  3473               	retlw	115	;'s'
  1419  135F  3473               	retlw	115	;'s'
  1420  1360  3400               	retlw	0
  1421  1361                     STR_66:	
  1422  1361  3442               	retlw	66	;'B'
  1423  1362  3474               	retlw	116	;'t'
  1424  1363  3420               	retlw	32	;' '
  1425  1364  3449               	retlw	73	;'I'
  1426  1365  346E               	retlw	110	;'n'
  1427  1366  3470               	retlw	112	;'p'
  1428  1367  3475               	retlw	117	;'u'
  1429  1368  3474               	retlw	116	;'t'
  1430  1369  3400               	retlw	0
  1431  136A                     STR_141:	
  1432  136A  3443               	retlw	67	;'C'
  1433  136B  346F               	retlw	111	;'o'
  1434  136C  346E               	retlw	110	;'n'
  1435  136D  3464               	retlw	100	;'d'
  1436  136E  346F               	retlw	111	;'o'
  1437  136F  3433               	retlw	51	;'3'
  1438  1370  3420               	retlw	32	;' '
  1439  1371  3400               	retlw	0
  1440  1372                     STR_53:	
  1441  1372  3454               	retlw	84	;'T'
  1442  1373  3465               	retlw	101	;'e'
  1443  1374  3473               	retlw	115	;'s'
  1444  1375  3474               	retlw	116	;'t'
  1445  1376  3469               	retlw	105	;'i'
  1446  1377  346E               	retlw	110	;'n'
  1447  1378  3467               	retlw	103	;'g'
  1448  1379  3400               	retlw	0
  1449  137A                     STR_24:	
  1450  137A  3454               	retlw	84	;'T'
  1451  137B  346F               	retlw	111	;'o'
  1452  137C  346F               	retlw	111	;'o'
  1453  137D  3420               	retlw	32	;' '
  1454  137E  344C               	retlw	76	;'L'
  1455  137F  346F               	retlw	111	;'o'
  1456  1380  3477               	retlw	119	;'w'
  1457  1381  3400               	retlw	0
  1458  1382                     STR_50:	
  1459  1382  3456               	retlw	86	;'V'
  1460  1383  3420               	retlw	32	;' '
  1461  1384  3448               	retlw	72	;'H'
  1462  1385  3469               	retlw	105	;'i'
  1463  1386  3467               	retlw	103	;'g'
  1464  1387  3468               	retlw	104	;'h'
  1465  1388  3400               	retlw	0
  1466  1389                     STR_15:	
  1467  1389  3445               	retlw	69	;'E'
  1468  138A  3472               	retlw	114	;'r'
  1469  138B  3472               	retlw	114	;'r'
  1470  138C  346F               	retlw	111	;'o'
  1471  138D  3472               	retlw	114	;'r'
  1472  138E  3400               	retlw	0
  1473  138F                     STR_75:	
  1474  138F  3450               	retlw	80	;'P'
  1475  1390  3472               	retlw	114	;'r'
  1476  1391  3465               	retlw	101	;'e'
  1477  1392  3473               	retlw	115	;'s'
  1478  1393  3473               	retlw	115	;'s'
  1479  1394  3400               	retlw	0
  1480  1395                     STR_52:	
  1481  1395  3456               	retlw	86	;'V'
  1482  1396  3420               	retlw	32	;' '
  1483  1397  344C               	retlw	76	;'L'
  1484  1398  346F               	retlw	111	;'o'
  1485  1399  3477               	retlw	119	;'w'
  1486  139A  3400               	retlw	0
  1487  139B                     STR_143:	
  1488  139B  3452               	retlw	82	;'R'
  1489  139C  3458               	retlw	88	;'X'
  1490  139D  3433               	retlw	51	;'3'
  1491  139E  3420               	retlw	32	;' '
  1492  139F  3400               	retlw	0
  1493  139F                     
  1494                           ; #config settings
  1495  0000                     
  1496                           	psect	cinit
  1497  00CA                     start_initialization:	
  1498  00CA                     __initialization:	
  1499                           
  1500                           ; Clear objects allocated to BITCOMMON
  1501  00CA  01FA               	clrf	(__pbitbssCOMMON/(0+8))& (0+127)
  1502                           
  1503                           ; Clear objects allocated to COMMON
  1504  00CB  01FB               	clrf	__pbssCOMMON& (0+127)
  1505                           
  1506                           ; Clear objects allocated to BANK0
  1507  00CC  3049               	movlw	low __pbssBANK0
  1508  00CD  0084               	movwf	4
  1509  00CE  3000               	movlw	high __pbssBANK0
  1510  00CF  0085               	movwf	5
  1511  00D0  3024               	movlw	36
  1512  00D1  3188  2002  3180   	fcall	clear_ram0
  1513                           
  1514                           ; Clear objects allocated to BANK1
  1515  00D4  30C8               	movlw	low __pbssBANK1
  1516  00D5  0084               	movwf	4
  1517  00D6  3000               	movlw	high __pbssBANK1
  1518  00D7  0085               	movwf	5
  1519  00D8  3026               	movlw	38
  1520  00D9  3188  2002  3180   	fcall	clear_ram0
  1521                           
  1522                           ; Initialize objects allocated to BANK0
  1523  00DC  302C               	movlw	low __pidataBANK0
  1524  00DD  0084               	movwf	4
  1525  00DE  309F               	movlw	(high __pidataBANK0)| (0+128)
  1526  00DF  0085               	movwf	5
  1527  00E0  306D               	movlw	low __pdataBANK0
  1528  00E1  0086               	movwf	6
  1529  00E2  3000               	movlw	high __pdataBANK0
  1530  00E3  0087               	movwf	7
  1531  00E4  3003               	movlw	3
  1532  00E5  319F  2739  3180   	fcall	init_ram
  1533                           
  1534                           ; Initialize objects allocated to BANK1
  1535  00E8  3008               	movlw	low __pidataBANK1
  1536  00E9  0084               	movwf	4
  1537  00EA  3088               	movlw	(high __pidataBANK1)| (0+128)
  1538  00EB  0085               	movwf	5
  1539  00EC  30A0               	movlw	low __pdataBANK1
  1540  00ED  0086               	movwf	6
  1541  00EE  3000               	movlw	high __pdataBANK1
  1542  00EF  0087               	movwf	7
  1543  00F0  3028               	movlw	40
  1544  00F1  319F  2739  3180   	fcall	init_ram
  1545                           
  1546                           ; Initialize objects allocated to BANK2
  1547  00F4  30BA               	movlw	low __pidataBANK2
  1548  00F5  0084               	movwf	4
  1549  00F6  3093               	movlw	(high __pidataBANK2)| (0+128)
  1550  00F7  0085               	movwf	5
  1551  00F8  3020               	movlw	low __pdataBANK2
  1552  00F9  0086               	movwf	6
  1553  00FA  3001               	movlw	high __pdataBANK2
  1554  00FB  0087               	movwf	7
  1555  00FC  3018               	movlw	24
  1556  00FD  319F  2739         	fcall	init_ram
  1557  00FF                     end_of_initialization:	
  1558                           ;End of C runtime variable initialization code
  1559                           
  1560  00FF                     __end_of__initialization:	
  1561  00FF  107E               	bcf	int$flags,0	;clear compiler interrupt flag (level 1)
  1562  0100  0020               	movlb	0
  1563  0101  3185  2D56         	ljmp	_main	;jump to C main() function
  1564                           
  1565                           	psect	bitbssCOMMON
  1566  03D0                     __pbitbssCOMMON:	
  1567  03D0                     _usart_fault_flag:	
  1568  03D0                     	ds	1
  1569                           
  1570                           	psect	bssCOMMON
  1571  007B                     __pbssCOMMON:	
  1572  007B                     _ten_thou:	
  1573  007B                     	ds	1
  1574                           
  1575                           	psect	bssBANK0
  1576  0049                     __pbssBANK0:	
  1577  0049                     _ADC_val:	
  1578  0049                     	ds	2
  1579  004B                     _Data_Temp_Work_int:	
  1580  004B                     	ds	2
  1581  004D                     _buzz_timer:	
  1582  004D                     	ds	2
  1583  004F                     _lower:	
  1584  004F                     	ds	2
  1585  0051                     _motor_direction_timer:	
  1586  0051                     	ds	2
  1587  0053                     _pickit_pgm_timeout:	
  1588  0053                     	ds	2
  1589  0055                     _pickit_red_counter:	
  1590  0055                     	ds	2
  1591  0057                     _pickit_timer:	
  1592  0057                     	ds	2
  1593  0059                     _testjig_timer:	
  1594  0059                     	ds	2
  1595  005B                     _tj_timer:	
  1596  005B                     	ds	2
  1597  005D                     _uart_receive_timer:	
  1598  005D                     	ds	2
  1599  005F                     _usart_timer:	
  1600  005F                     	ds	2
  1601  0061                     _Data_Temp_Work_char:	
  1602  0061                     	ds	1
  1603  0062                     _RelayVsDiodes:	
  1604  0062                     	ds	1
  1605  0063                     _current_sink_state:	
  1606  0063                     	ds	1
  1607  0064                     _pickit_state:	
  1608  0064                     	ds	1
  1609  0065                     _return_data:	
  1610  0065                     	ds	1
  1611  0066                     _usart_fault_state:	
  1612  0066                     	ds	1
  1613  0067                     _usart_receive_state_main:	
  1614  0067                     	ds	1
  1615  0068                     _volt_reading:	
  1616  0068                     	ds	1
  1617  0069                     _hund:	
  1618  0069                     	ds	1
  1619  006A                     _ten:	
  1620  006A                     	ds	1
  1621  006B                     _thou:	
  1622  006B                     	ds	1
  1623  006C                     _unit:	
  1624  006C                     	ds	1
  1625                           
  1626                           	psect	dataBANK0
  1627  006D                     __pdataBANK0:	
  1628  006D                     _one_second_timer:	
  1629  006D                     	ds	2
  1630  006F                     _button_beep_delay:	
  1631  006F                     	ds	1
  1632                           
  1633                           	psect	bssBANK1
  1634  00C8                     __pbssBANK1:	
  1635  00C8                     _uart_buff_work_recieve:	
  1636  00C8                     	ds	5
  1637  00CD                     _voltage_f:	
  1638  00CD                     	ds	3
  1639  00D0                     _ADC_cur_sink_val:	
  1640  00D0                     	ds	2
  1641  00D2                     _callsign:	
  1642  00D2                     	ds	2
  1643  00D4                     _curent_sink_val:	
  1644  00D4                     	ds	2
  1645  00D6                     _current_actual:	
  1646  00D6                     	ds	2
  1647  00D8                     _current_sink_stable:	
  1648  00D8                     	ds	2
  1649  00DA                     _current_sink_timer:	
  1650  00DA                     	ds	2
  1651  00DC                     _detect:	
  1652  00DC                     	ds	2
  1653  00DE                     _device:	
  1654  00DE                     	ds	2
  1655  00E0                     _higher:	
  1656  00E0                     	ds	2
  1657  00E2                     _pickit_all_counter:	
  1658  00E2                     	ds	2
  1659  00E4                     _trip_current:	
  1660  00E4                     	ds	2
  1661  00E6                     _voltage_actual:	
  1662  00E6                     	ds	2
  1663  00E8                     _voltage_i:	
  1664  00E8                     	ds	2
  1665  00EA                     _voltage_outcome:	
  1666  00EA                     	ds	2
  1667  00EC                     _voltage_req:	
  1668  00EC                     	ds	2
  1669                           
  1670                           	psect	dataBANK1
  1671  00A0                     __pdataBANK1:	
  1672  00A0                     lcd_bar_create@F3905:	
  1673  00A0                     	ds	8
  1674  00A8                     lcd_bar_create@F3907:	
  1675  00A8                     	ds	8
  1676  00B0                     lcd_bar_create@F3909:	
  1677  00B0                     	ds	8
  1678  00B8                     lcd_bar_create@F3911:	
  1679  00B8                     	ds	8
  1680  00C0                     lcd_bar_create@F3913:	
  1681  00C0                     	ds	8
  1682                           
  1683                           	psect	dataBANK2
  1684  0120                     __pdataBANK2:	
  1685  0120                     lcd_bar_create@F3915:	
  1686  0120                     	ds	8
  1687  0128                     lcd_bar_create@F3917:	
  1688  0128                     	ds	8
  1689  0130                     lcd_bar_create@F3919:	
  1690  0130                     	ds	8
  1691                           
  1692                           	psect	clrtext
  1693  0802                     clear_ram0:	
  1694                           ;	Called with FSR0 containing the base address, and
  1695                           ;	WREG with the size to clear
  1696                           
  1697  0802  0064               	clrwdt	;clear the watchdog before getting into this loop
  1698  0803                     clrloop0:	
  1699  0803  0180               	clrf	0	;clear RAM location pointed to by FSR
  1700  0804  3101               	addfsr 0,1
  1701  0805  0B89               	decfsz	9,f	;Have we reached the end of clearing yet?
  1702  0806  2803               	goto	clrloop0	;have we reached the end yet?
  1703  0807  3400               	retlw	0	;all done for this memory range, return
  1704                           
  1705                           	psect	inittext
  1706  1F39                     init_ram:	
  1707  1F39  00FE               	movwf	126
  1708  1F3A                     initloop:	
  1709  1F3A  0012               	moviw fsr0++
  1710  1F3B  001E               	movwi fsr1++
  1711  1F3C  0BFE               	decfsz	126,f
  1712  1F3D  2F3A               	goto	initloop
  1713  1F3E  3400               	retlw	0
  1714                           
  1715                           	psect	cstackCOMMON
  1716  0070                     __pcstackCOMMON:	
  1717  0070                     ?_power_supply_set:	
  1718  0070                     ?_init_ADC:	
  1719                           ; 0 bytes @ 0x0
  1720                           
  1721  0070                     ?_init_current_sink:	
  1722                           ; 0 bytes @ 0x0
  1723                           
  1724  0070                     ?_init_i2c:	
  1725                           ; 0 bytes @ 0x0
  1726                           
  1727  0070                     ?_init_uart2:	
  1728                           ; 0 bytes @ 0x0
  1729                           
  1730  0070                     ?_init_uart1:	
  1731                           ; 0 bytes @ 0x0
  1732                           
  1733  0070                     ?_digitalpot:	
  1734                           ; 0 bytes @ 0x0
  1735                           
  1736  0070                     ?_EUSART1_Write:	
  1737                           ; 0 bytes @ 0x0
  1738                           
  1739  0070                     ?_isr:	
  1740                           ; 0 bytes @ 0x0
  1741                           
  1742  0070                     ??_isr:	
  1743                           ; 0 bytes @ 0x0
  1744                           
  1745  0070                     ?_main:	
  1746                           ; 0 bytes @ 0x0
  1747                           
  1748  0070                     ?_i2c_Start:	
  1749                           ; 0 bytes @ 0x0
  1750                           
  1751  0070                     ?_i2c_Write:	
  1752                           ; 0 bytes @ 0x0
  1753                           
  1754  0070                     ?_i2c_Stop:	
  1755                           ; 0 bytes @ 0x0
  1756                           
  1757  0070                     ?_i2c_write_char:	
  1758                           ; 0 bytes @ 0x0
  1759                           
  1760  0070                     ?_clear_lcd:	
  1761                           ; 0 bytes @ 0x0
  1762                           
  1763  0070                     ?_i2c_first_line:	
  1764                           ; 0 bytes @ 0x0
  1765                           
  1766  0070                     ?_i2c_second_line:	
  1767                           ; 0 bytes @ 0x0
  1768                           
  1769  0070                     ?_manage_read_byte:	
  1770                           ; 0 bytes @ 0x0
  1771                           
  1772                           
  1773                           ; 1 bytes @ 0x0
  1774  0070                     	ds	2
  1775  0072                     ??_power_supply_set:	
  1776  0072                     ??_init_ADC:	
  1777                           ; 0 bytes @ 0x2
  1778                           
  1779  0072                     ??_init_current_sink:	
  1780                           ; 0 bytes @ 0x2
  1781                           
  1782  0072                     ?_buzz_one:	
  1783                           ; 0 bytes @ 0x2
  1784                           
  1785  0072                     ??_init_i2c:	
  1786                           ; 0 bytes @ 0x2
  1787                           
  1788  0072                     ?_debug_fast_tx:	
  1789                           ; 0 bytes @ 0x2
  1790                           
  1791  0072                     ??_init_uart2:	
  1792                           ; 0 bytes @ 0x2
  1793                           
  1794  0072                     ??_init_uart1:	
  1795                           ; 0 bytes @ 0x2
  1796                           
  1797  0072                     ??_EUSART1_Write:	
  1798                           ; 0 bytes @ 0x2
  1799                           
  1800  0072                     ??_manage_read_byte:	
  1801                           ; 0 bytes @ 0x2
  1802                           
  1803  0072                     ??_i2c_Start:	
  1804                           ; 0 bytes @ 0x2
  1805                           
  1806  0072                     ??_i2c_Write:	
  1807                           ; 0 bytes @ 0x2
  1808                           
  1809  0072                     ??_i2c_Stop:	
  1810                           ; 0 bytes @ 0x2
  1811                           
  1812  0072                     ?___bmul:	
  1813                           ; 0 bytes @ 0x2
  1814                           
  1815  0072                     ?_ADC_get_val:	
  1816                           ; 1 bytes @ 0x2
  1817                           
  1818  0072                     ?___wmul:	
  1819                           ; 2 bytes @ 0x2
  1820                           
  1821  0072                     ?___ftpack:	
  1822                           ; 2 bytes @ 0x2
  1823                           
  1824  0072                     EUSART1_Write@txData:	
  1825                           ; 3 bytes @ 0x2
  1826                           
  1827  0072                     manage_read_byte@timeout_enable:	
  1828                           ; 1 bytes @ 0x2
  1829                           
  1830  0072                     i2c_Write@data:	
  1831                           ; 1 bytes @ 0x2
  1832                           
  1833  0072                     power_supply_set@supply:	
  1834                           ; 1 bytes @ 0x2
  1835                           
  1836  0072                     ___bmul@multiplicand:	
  1837                           ; 1 bytes @ 0x2
  1838                           
  1839  0072                     buzz_one@time:	
  1840                           ; 1 bytes @ 0x2
  1841                           
  1842  0072                     debug_fast_tx@data:	
  1843                           ; 2 bytes @ 0x2
  1844                           
  1845  0072                     ___wmul@multiplier:	
  1846                           ; 2 bytes @ 0x2
  1847                           
  1848  0072                     ___ftpack@arg:	
  1849                           ; 2 bytes @ 0x2
  1850                           
  1851                           
  1852                           ; 3 bytes @ 0x2
  1853  0072                     	ds	1
  1854  0073                     ?_init_i2c_lcd_5v:	
  1855  0073                     ??_digitalpot:	
  1856                           ; 0 bytes @ 0x3
  1857                           
  1858  0073                     ?_send_usart_packet_manage:	
  1859                           ; 0 bytes @ 0x3
  1860                           
  1861  0073                     ?_i2c_Write_string:	
  1862                           ; 0 bytes @ 0x3
  1863                           
  1864  0073                     ??_i2c_write_char:	
  1865                           ; 0 bytes @ 0x3
  1866                           
  1867  0073                     ??_clear_lcd:	
  1868                           ; 0 bytes @ 0x3
  1869                           
  1870  0073                     ??_i2c_first_line:	
  1871                           ; 0 bytes @ 0x3
  1872                           
  1873  0073                     ??_i2c_second_line:	
  1874                           ; 0 bytes @ 0x3
  1875                           
  1876  0073                     ?_lcd_set_cursor:	
  1877                           ; 0 bytes @ 0x3
  1878                           
  1879  0073                     ??___bmul:	
  1880                           ; 0 bytes @ 0x3
  1881                           
  1882  0073                     i2c_write_char@char_data:	
  1883                           ; 0 bytes @ 0x3
  1884                           
  1885  0073                     init_i2c_lcd_5v@single1_double2:	
  1886                           ; 1 bytes @ 0x3
  1887                           
  1888  0073                     lcd_set_cursor@col:	
  1889                           ; 1 bytes @ 0x3
  1890                           
  1891  0073                     send_usart_packet_manage@Data_carry:	
  1892                           ; 1 bytes @ 0x3
  1893                           
  1894  0073                     i2c_Write_string@data:	
  1895                           ; 2 bytes @ 0x3
  1896                           
  1897                           
  1898                           ; 2 bytes @ 0x3
  1899  0073                     	ds	1
  1900  0074                     ??_buzz_one:	
  1901  0074                     ??_init_i2c_lcd_5v:	
  1902                           ; 0 bytes @ 0x4
  1903                           
  1904  0074                     ??_debug_fast_tx:	
  1905                           ; 0 bytes @ 0x4
  1906                           
  1907  0074                     ??_ADC_get_val:	
  1908                           ; 0 bytes @ 0x4
  1909                           
  1910  0074                     ??_lcd_set_cursor:	
  1911                           ; 0 bytes @ 0x4
  1912                           
  1913  0074                     ___bmul@product:	
  1914                           ; 0 bytes @ 0x4
  1915                           
  1916  0074                     ___wmul@multiplicand:	
  1917                           ; 1 bytes @ 0x4
  1918                           
  1919                           
  1920                           ; 2 bytes @ 0x4
  1921  0074                     	ds	1
  1922  0075                     ??_i2c_Write_string:	
  1923  0075                     lcd_set_cursor@row:	
  1924                           ; 0 bytes @ 0x5
  1925                           
  1926  0075                     digitalpot@value:	
  1927                           ; 1 bytes @ 0x5
  1928                           
  1929  0075                     ___bmul@multiplier:	
  1930                           ; 1 bytes @ 0x5
  1931                           
  1932  0075                     ___ftpack@exp:	
  1933                           ; 1 bytes @ 0x5
  1934                           
  1935                           
  1936                           ; 1 bytes @ 0x5
  1937  0075                     	ds	1
  1938  0076                     ?_print_screen:	
  1939  0076                     ?_Vout_set:	
  1940                           ; 0 bytes @ 0x6
  1941                           
  1942  0076                     ??___wmul:	
  1943                           ; 0 bytes @ 0x6
  1944                           
  1945  0076                     init_i2c_lcd_5v@contrast:	
  1946                           ; 0 bytes @ 0x6
  1947                           
  1948  0076                     lcd_set_cursor@LCD_position:	
  1949                           ; 1 bytes @ 0x6
  1950                           
  1951  0076                     debug_fast_tx@i:	
  1952                           ; 1 bytes @ 0x6
  1953                           
  1954  0076                     ___ftpack@sign:	
  1955                           ; 1 bytes @ 0x6
  1956                           
  1957  0076                     print_screen@top:	
  1958                           ; 1 bytes @ 0x6
  1959                           
  1960  0076                     ADC_get_val@return_val:	
  1961                           ; 2 bytes @ 0x6
  1962                           
  1963  0076                     Vout_set@Volts:	
  1964                           ; 2 bytes @ 0x6
  1965                           
  1966  0076                     ___wmul@product:	
  1967                           ; 2 bytes @ 0x6
  1968                           
  1969                           
  1970                           ; 2 bytes @ 0x6
  1971  0076                     	ds	1
  1972  0077                     ??___ftpack:	
  1973                           
  1974                           ; 0 bytes @ 0x7
  1975  0077                     	ds	1
  1976  0078                     ??_Vout_set:	
  1977  0078                     ?_ten_thou_conv:	
  1978                           ; 0 bytes @ 0x8
  1979                           
  1980  0078                     ADC_get_val@channel:	
  1981                           ; 0 bytes @ 0x8
  1982                           
  1983  0078                     ten_thou_conv@n:	
  1984                           ; 1 bytes @ 0x8
  1985                           
  1986  0078                     print_screen@bottom:	
  1987                           ; 2 bytes @ 0x8
  1988                           
  1989                           
  1990                           ; 2 bytes @ 0x8
  1991  0078                     	ds	2
  1992  007A                     ??_print_screen:	
  1993  007A                     ??_get_current:	
  1994                           ; 0 bytes @ 0xA
  1995                           
  1996                           
  1997                           	psect	cstackBANK0
  1998  0020                     __pcstackBANK0:	
  1999                           ; 0 bytes @ 0xA
  2000                           
  2001  0020                     ?_print_error:	
  2002  0020                     ??_send_usart_packet_manage:	
  2003                           ; 0 bytes @ 0x0
  2004                           
  2005  0020                     ??_ten_thou_conv:	
  2006                           ; 0 bytes @ 0x0
  2007                           
  2008  0020                     ?___lwtoft:	
  2009                           ; 0 bytes @ 0x0
  2010                           
  2011  0020                     print_error@top:	
  2012                           ; 3 bytes @ 0x0
  2013                           
  2014  0020                     ___lwtoft@c:	
  2015                           ; 2 bytes @ 0x0
  2016                           
  2017  0020                     Vout_set@digi_step:	
  2018                           ; 2 bytes @ 0x0
  2019                           
  2020                           
  2021                           ; 4 bytes @ 0x0
  2022  0020                     	ds	2
  2023  0022                     print_error@bottom:	
  2024                           
  2025                           ; 2 bytes @ 0x2
  2026  0022                     	ds	1
  2027  0023                     ??___lwtoft:	
  2028                           
  2029                           ; 0 bytes @ 0x3
  2030  0023                     	ds	1
  2031  0024                     ??_print_error:	
  2032  0024                     ?___ftmul:	
  2033                           ; 0 bytes @ 0x4
  2034                           
  2035  0024                     ___ftmul@f1:	
  2036                           ; 3 bytes @ 0x4
  2037                           
  2038                           
  2039                           ; 3 bytes @ 0x4
  2040  0024                     	ds	2
  2041  0026                     ?_lcd_print_int:	
  2042  0026                     send_usart_packet_manage@checksum_high_byte_4:	
  2043                           ; 0 bytes @ 0x6
  2044                           
  2045  0026                     lcd_print_int@number:	
  2046                           ; 1 bytes @ 0x6
  2047                           
  2048                           
  2049                           ; 2 bytes @ 0x6
  2050  0026                     	ds	1
  2051  0027                     ?_receive_data_bytes:	
  2052  0027                     send_usart_packet_manage@checksum_low_byte_5:	
  2053                           ; 2 bytes @ 0x7
  2054                           
  2055  0027                     receive_data_bytes@time_out_first_byte:	
  2056                           ; 1 bytes @ 0x7
  2057                           
  2058  0027                     ___ftmul@f2:	
  2059                           ; 2 bytes @ 0x7
  2060                           
  2061                           
  2062                           ; 3 bytes @ 0x7
  2063  0027                     	ds	1
  2064  0028                     send_usart_packet_manage@command_byte_1:	
  2065  0028                     lcd_print_int@pos:	
  2066                           ; 1 bytes @ 0x8
  2067                           
  2068                           
  2069                           ; 2 bytes @ 0x8
  2070  0028                     	ds	1
  2071  0029                     ??_receive_data_bytes:	
  2072  0029                     send_usart_packet_manage@data_high_byte_2:	
  2073                           ; 0 bytes @ 0x9
  2074                           
  2075                           
  2076                           ; 1 bytes @ 0x9
  2077  0029                     	ds	1
  2078  002A                     ??___ftmul:	
  2079  002A                     send_usart_packet_manage@data_low_byte_3:	
  2080                           ; 0 bytes @ 0xA
  2081                           
  2082  002A                     lcd_print_int@decimal:	
  2083                           ; 1 bytes @ 0xA
  2084                           
  2085                           
  2086                           ; 1 bytes @ 0xA
  2087  002A                     	ds	1
  2088  002B                     lcd_print_int@ten_thou_digit:	
  2089  002B                     send_usart_packet_manage@checksum_send_work:	
  2090                           ; 1 bytes @ 0xB
  2091                           
  2092                           
  2093                           ; 2 bytes @ 0xB
  2094  002B                     	ds	1
  2095  002C                     ??_lcd_print_int:	
  2096                           
  2097                           ; 0 bytes @ 0xC
  2098  002C                     	ds	2
  2099  002E                     ___ftmul@exp:	
  2100                           
  2101                           ; 1 bytes @ 0xE
  2102  002E                     	ds	1
  2103  002F                     receive_data_bytes@usart_checksum:	
  2104  002F                     ___ftmul@f3_as_product:	
  2105                           ; 2 bytes @ 0xF
  2106                           
  2107                           
  2108                           ; 3 bytes @ 0xF
  2109  002F                     	ds	2
  2110  0031                     receive_data_bytes@data_int_value:	
  2111                           
  2112                           ; 2 bytes @ 0x11
  2113  0031                     	ds	1
  2114  0032                     ___ftmul@cntr:	
  2115                           
  2116                           ; 1 bytes @ 0x12
  2117  0032                     	ds	1
  2118  0033                     receive_data_bytes@checksum_high_byte:	
  2119  0033                     ___ftmul@sign:	
  2120                           ; 1 bytes @ 0x13
  2121                           
  2122                           
  2123                           ; 1 bytes @ 0x13
  2124  0033                     	ds	1
  2125  0034                     ?___fttol:	
  2126  0034                     receive_data_bytes@checksum_low_byte:	
  2127                           ; 4 bytes @ 0x14
  2128                           
  2129  0034                     ___fttol@f1:	
  2130                           ; 1 bytes @ 0x14
  2131                           
  2132                           
  2133                           ; 3 bytes @ 0x14
  2134  0034                     	ds	1
  2135  0035                     receive_data_bytes@command_byte:	
  2136                           
  2137                           ; 1 bytes @ 0x15
  2138  0035                     	ds	1
  2139  0036                     receive_data_bytes@data_high_byte:	
  2140                           
  2141                           ; 1 bytes @ 0x16
  2142  0036                     	ds	1
  2143  0037                     receive_data_bytes@data_low_byte:	
  2144                           
  2145                           ; 1 bytes @ 0x17
  2146  0037                     	ds	1
  2147  0038                     ??___fttol:	
  2148  0038                     receive_data_bytes@usart_validation_work:	
  2149                           ; 0 bytes @ 0x18
  2150                           
  2151                           
  2152                           ; 2 bytes @ 0x18
  2153  0038                     	ds	4
  2154  003C                     ___fttol@sign1:	
  2155                           
  2156                           ; 1 bytes @ 0x1C
  2157  003C                     	ds	1
  2158  003D                     ___fttol@lval:	
  2159                           
  2160                           ; 4 bytes @ 0x1D
  2161  003D                     	ds	4
  2162  0041                     ___fttol@exp1:	
  2163                           
  2164                           ; 1 bytes @ 0x21
  2165  0041                     	ds	1
  2166  0042                     ?_get_current:	
  2167                           
  2168                           ; 2 bytes @ 0x22
  2169  0042                     	ds	2
  2170  0044                     get_current@temp:	
  2171                           
  2172                           ; 2 bytes @ 0x24
  2173  0044                     	ds	2
  2174  0046                     ??_main:	
  2175                           
  2176                           ; 0 bytes @ 0x26
  2177  0046                     	ds	3
  2178                           
  2179                           	psect	maintext
  2180  0556                     __pmaintext:	
  2181 ;;
  2182 ;;Main: autosize = 0, tempsize = 3, incstack = 0, save=0
  2183 ;;
  2184 ;; *************** function _main *****************
  2185 ;; Defined at:
  2186 ;;		line 1096 in file "newmain1.c"
  2187 ;; Parameters:    Size  Location     Type
  2188 ;;		None
  2189 ;; Auto vars:     Size  Location     Type
  2190 ;;		None
  2191 ;; Return value:  Size  Location     Type
  2192 ;;		None               void
  2193 ;; Registers used:
  2194 ;;		wreg, fsr0l, fsr0h, status,2, status,0, pclath, cstack
  2195 ;; Tracked objects:
  2196 ;;		On entry : B1F/0
  2197 ;;		On exit  : 0/0
  2198 ;;		Unchanged: 0/0
  2199 ;; Data sizes:     COMMON   BANK0   BANK1   BANK2   BANK3   BANK4   BANK5   BANK6   BANK7   BANK8   BANK9  BANK10  BANK1
      +1  BANK12  BANK13  BANK14  BANK15  BANK16  BANK17  BANK18
  2200 ;;      Params:         0       0       0       0       0       0       0       0       0       0       0       0       
      +0       0       0       0       0       0       0       0
  2201 ;;      Locals:         0       0       0       0       0       0       0       0       0       0       0       0       
      +0       0       0       0       0       0       0       0
  2202 ;;      Temps:          0       3       0       0       0       0       0       0       0       0       0       0       
      +0       0       0       0       0       0       0       0
  2203 ;;      Totals:         0       3       0       0       0       0       0       0       0       0       0       0       
      +0       0       0       0       0       0       0       0
  2204 ;;Total ram usage:        3 bytes
  2205 ;; Hardware stack levels required when called:    6
  2206 ;; This function calls:
  2207 ;;		_ADC_get_val
  2208 ;;		_Vout_set
  2209 ;;		_buzz_one
  2210 ;;		_debug_fast_tx
  2211 ;;		_get_current
  2212 ;;		_init_ADC
  2213 ;;		_init_current_sink
  2214 ;;		_init_i2c
  2215 ;;		_init_i2c_lcd_5v
  2216 ;;		_init_uart1
  2217 ;;		_init_uart2
  2218 ;;		_lcd_print_int
  2219 ;;		_power_supply_set
  2220 ;;		_print_error
  2221 ;;		_print_screen
  2222 ;;		_receive_data_bytes
  2223 ;;		_send_usart_packet_manage
  2224 ;; This function is called by:
  2225 ;;		Startup code after reset
  2226 ;; This function uses a non-reentrant model
  2227 ;;
  2228                           
  2229                           
  2230                           ;psect for function _main
  2231  0556                     _main:	
  2232                           
  2233                           ;newmain1.c: 1099: OSCCON = 0x7A;
  2234                           
  2235                           ;incstack = 0
  2236                           ; Regs used in _main: [wreg-fsr0h+status,2+status,0+pclath+cstack]
  2237  0556  307A               	movlw	122
  2238  0557  0021               	movlb	1	; select bank1
  2239  0558  0099               	movwf	25	;volatile
  2240                           
  2241                           ;newmain1.c: 1101: OPTION_REG = 0b11010000;
  2242  0559  30D0               	movlw	208
  2243  055A  0095               	movwf	21	;volatile
  2244                           
  2245                           ;newmain1.c: 1102: TMR0 = 0x00;
  2246  055B  0020               	movlb	0	; select bank0
  2247  055C  0195               	clrf	21	;volatile
  2248                           
  2249                           ;newmain1.c: 1103: TMR0IF = 0;
  2250  055D  110B               	bcf	11,2	;volatile
  2251                           
  2252                           ;newmain1.c: 1104: TMR0IE = 1;
  2253  055E  168B               	bsf	11,5	;volatile
  2254                           
  2255                           ;newmain1.c: 1107: TRISA = 0b00001011;
  2256  055F  300B               	movlw	11
  2257  0560  0021               	movlb	1	; select bank1
  2258  0561  008C               	movwf	12	;volatile
  2259                           
  2260                           ;newmain1.c: 1108: TRISB = 0b00001111;
  2261  0562  300F               	movlw	15
  2262  0563  008D               	movwf	13	;volatile
  2263                           
  2264                           ;newmain1.c: 1109: TRISC = 0b00011010;
  2265  0564  301A               	movlw	26
  2266  0565  008E               	movwf	14	;volatile
  2267                           
  2268                           ;newmain1.c: 1110: TRISD = 0b10001111;
  2269  0566  308F               	movlw	143
  2270  0567  008F               	movwf	15	;volatile
  2271                           
  2272                           ;newmain1.c: 1111: TRISE = 0b11110110;
  2273  0568  30F6               	movlw	246
  2274  0569  0090               	movwf	16	;volatile
  2275                           
  2276                           ;newmain1.c: 1112: TRISF = 0b00101011;
  2277  056A  302B               	movlw	43
  2278  056B  0026               	movlb	6	; select bank6
  2279  056C  008C               	movwf	12	;volatile
  2280                           
  2281                           ;newmain1.c: 1113: TRISG = 0b11100110;
  2282  056D  30E6               	movlw	230
  2283  056E  008D               	movwf	13	;volatile
  2284                           
  2285                           ;newmain1.c: 1115: PORTA = 0b00000000;
  2286  056F  0020               	movlb	0	; select bank0
  2287  0570  018C               	clrf	12	;volatile
  2288                           
  2289                           ;newmain1.c: 1116: PORTB = 0b00000000;
  2290  0571  018D               	clrf	13	;volatile
  2291                           
  2292                           ;newmain1.c: 1117: PORTC = 0b00000000;
  2293  0572  018E               	clrf	14	;volatile
  2294                           
  2295                           ;newmain1.c: 1118: PORTD = 0b01000000;
  2296  0573  3040               	movlw	64
  2297  0574  008F               	movwf	15	;volatile
  2298                           
  2299                           ;newmain1.c: 1119: PORTE = 0b00000000;
  2300  0575  0190               	clrf	16	;volatile
  2301                           
  2302                           ;newmain1.c: 1120: PORTF = 0b00000000;
  2303  0576  0025               	movlb	5	; select bank5
  2304  0577  018C               	clrf	12	;volatile
  2305                           
  2306                           ;newmain1.c: 1121: PORTG = 0b00000000;
  2307  0578  018D               	clrf	13	;volatile
  2308                           
  2309                           ;newmain1.c: 1123: WPUB = 0b00000000;
  2310  0579  0024               	movlb	4	; select bank4
  2311  057A  018D               	clrf	13	;volatile
  2312                           
  2313                           ;newmain1.c: 1124: WPUD = 0b00000000;
  2314  057B  018F               	clrf	15	;volatile
  2315                           
  2316                           ;newmain1.c: 1125: WPUE = 0b00001000;
  2317  057C  3008               	movlw	8
  2318  057D  0090               	movwf	16	;volatile
  2319                           
  2320                           ;newmain1.c: 1127: ANSELA = 0b00000000;
  2321  057E  0023               	movlb	3	; select bank3
  2322  057F  018C               	clrf	12	;volatile
  2323                           
  2324                           ;newmain1.c: 1128: ANSELB = 0b00001100;
  2325  0580  300C               	movlw	12
  2326  0581  008D               	movwf	13	;volatile
  2327                           
  2328                           ;newmain1.c: 1129: ANSELD = 0b00001111;
  2329  0582  300F               	movlw	15
  2330  0583  008F               	movwf	15	;volatile
  2331                           
  2332                           ;newmain1.c: 1130: ANSELE = 0b00000110;
  2333  0584  3006               	movlw	6
  2334  0585  0090               	movwf	16	;volatile
  2335                           
  2336                           ;newmain1.c: 1131: ANSELF = 0b00000001;
  2337  0586  3001               	movlw	1
  2338  0587  0028               	movlb	8	; select bank8
  2339  0588  008C               	movwf	12	;volatile
  2340                           
  2341                           ;newmain1.c: 1132: ANSELG = 0b00000000;
  2342  0589  018D               	clrf	13	;volatile
  2343                           
  2344                           ;newmain1.c: 1134: power_supply_set(4);
  2345  058A  3004               	movlw	4
  2346  058B  3194  24DA  3185   	fcall	_power_supply_set
  2347                           
  2348                           ;newmain1.c: 1136: init_ADC();
  2349  058E  319F  273F  3185   	fcall	_init_ADC
  2350                           
  2351                           ;newmain1.c: 1137: init_current_sink();
  2352  0591  319F  27A6  3185   	fcall	_init_current_sink
  2353                           
  2354                           ;newmain1.c: 1138: pickit_state = pickit_idle;
  2355  0594  3006               	movlw	6
  2356  0595  0020               	movlb	0	; select bank0
  2357  0596  00C6               	movwf	??_main
  2358  0597  0846               	movf	??_main,w
  2359  0598  00E4               	movwf	_pickit_state
  2360                           
  2361                           ;newmain1.c: 1140: RA5 = 0;
  2362  0599  128C               	bcf	12,5	;volatile
  2363                           
  2364                           ;newmain1.c: 1141: buzz_one(200);
  2365  059A  30C8               	movlw	200
  2366  059B  00F2               	movwf	buzz_one@time
  2367  059C  3000               	movlw	0
  2368  059D  00F3               	movwf	buzz_one@time+1
  2369  059E  3187  27FF  3185   	fcall	_buzz_one
  2370                           
  2371                           ;newmain1.c: 1142: RA5 = 1;
  2372  05A1  0020               	movlb	0	; select bank0
  2373  05A2  168C               	bsf	12,5	;volatile
  2374                           
  2375                           ;newmain1.c: 1143: init_i2c();
  2376  05A3  3193  23A2  3185   	fcall	_init_i2c
  2377                           
  2378                           ;newmain1.c: 1144: init_i2c_lcd_5v(8, 0x38);
  2379  05A6  3038               	movlw	56
  2380  05A7  0020               	movlb	0	; select bank0
  2381  05A8  00C6               	movwf	??_main
  2382  05A9  0846               	movf	??_main,w
  2383  05AA  00F3               	movwf	init_i2c_lcd_5v@single1_double2
  2384  05AB  3008               	movlw	8
  2385  05AC  3195  2589  3185   	fcall	_init_i2c_lcd_5v
  2386                           
  2387                           ;newmain1.c: 1145: print_screen("DCBA Roll-up", "Test-Jig|Startup");
  2388  05AF  3049               	movlw	low (STR_5| (0+32768))
  2389  05B0  00F6               	movwf	print_screen@top
  2390  05B1  3092               	movlw	high (STR_5| (0+32768))
  2391  05B2  00F7               	movwf	print_screen@top+1
  2392  05B3  303B               	movlw	low (STR_6| (0+32768))
  2393  05B4  00F8               	movwf	print_screen@bottom
  2394  05B5  3090               	movlw	high (STR_6| (0+32768))
  2395  05B6  00F9               	movwf	print_screen@bottom+1
  2396  05B7  319F  27E9  3185   	fcall	_print_screen
  2397                           
  2398                           ;newmain1.c: 1146: RA4 = 1;
  2399  05BA  0020               	movlb	0	; select bank0
  2400  05BB  160C               	bsf	12,4	;volatile
  2401                           
  2402                           ;newmain1.c: 1147: GIE = 1;
  2403  05BC  178B               	bsf	11,7	;volatile
  2404                           
  2405                           ;newmain1.c: 1148: _delay((unsigned long)((100)*(16000000/4000.0)));
  2406  05BD  3003               	movlw	3
  2407  05BE  00C8               	movwf	??_main+2
  2408  05BF  3008               	movlw	8
  2409  05C0  00C7               	movwf	??_main+1
  2410  05C1  3078               	movlw	120
  2411  05C2  00C6               	movwf	??_main
  2412  05C3                     u6067:	
  2413  05C3  0BC6               	decfsz	??_main,f
  2414  05C4  2DC3               	goto	u6067
  2415  05C5  0BC7               	decfsz	??_main+1,f
  2416  05C6  2DC3               	goto	u6067
  2417  05C7  0BC8               	decfsz	??_main+2,f
  2418  05C8  2DC3               	goto	u6067
  2419                           
  2420                           ;newmain1.c: 1149: debug_fast_tx(0xAAAA);
  2421  05C9  30AA               	movlw	170
  2422  05CA  00F2               	movwf	debug_fast_tx@data
  2423  05CB  30AA               	movlw	170
  2424  05CC  00F3               	movwf	debug_fast_tx@data+1
  2425  05CD  3195  250D  3185   	fcall	_debug_fast_tx
  2426                           
  2427                           ;newmain1.c: 1150: _delay((unsigned long)((100)*(16000000/4000000.0)));
  2428  05D0  3085               	movlw	133
  2429  05D1  0020               	movlb	0	; select bank0
  2430  05D2  00C6               	movwf	??_main
  2431  05D3                     u6077:	
  2432  05D3  0BC6               	decfsz	??_main,f
  2433  05D4  2DD3               	goto	u6077
  2434                           
  2435                           ;newmain1.c: 1151: debug_fast_tx(0x5555);
  2436  05D5  3055               	movlw	85
  2437  05D6  00F2               	movwf	debug_fast_tx@data
  2438  05D7  3055               	movlw	85
  2439  05D8  00F3               	movwf	debug_fast_tx@data+1
  2440  05D9  3195  250D         	fcall	_debug_fast_tx
  2441                           
  2442                           ;newmain1.c: 1152: _delay((unsigned long)((100)*(16000000/4000000.0)));
  2443  05DB  3085               	movlw	133
  2444  05DC  3183  2BA2         	ljmp	L33
  2445                           
  2446                           	psect	text1
  2447  1549                     __ptext1:	
  2448 ;; *************** function _send_usart_packet_manage *****************
  2449 ;; Defined at:
  2450 ;;		line 433 in file "newmain1.c"
  2451 ;; Parameters:    Size  Location     Type
  2452 ;;  command_byte    1    wreg     unsigned char 
  2453 ;;  Data_carry      2    3[COMMON] unsigned int 
  2454 ;; Auto vars:     Size  Location     Type
  2455 ;;  command_byte    1    8[BANK0 ] unsigned char 
  2456 ;;  checksum_sen    2   11[BANK0 ] unsigned int 
  2457 ;;  data_low_byt    1   10[BANK0 ] unsigned char 
  2458 ;;  data_high_by    1    9[BANK0 ] unsigned char 
  2459 ;;  checksum_low    1    7[BANK0 ] unsigned char 
  2460 ;;  checksum_hig    1    6[BANK0 ] unsigned char 
  2461 ;; Return value:  Size  Location     Type
  2462 ;;		None               void
  2463 ;; Registers used:
  2464 ;;		wreg, status,2, status,0, pclath, cstack
  2465 ;; Tracked objects:
  2466 ;;		On entry : 0/0
  2467 ;;		On exit  : 0/0
  2468 ;;		Unchanged: 0/0
  2469 ;; Data sizes:     COMMON   BANK0   BANK1   BANK2   BANK3   BANK4   BANK5   BANK6   BANK7   BANK8   BANK9  BANK10  BANK1
      +1  BANK12  BANK13  BANK14  BANK15  BANK16  BANK17  BANK18
  2470 ;;      Params:         2       0       0       0       0       0       0       0       0       0       0       0       
      +0       0       0       0       0       0       0       0
  2471 ;;      Locals:         0       7       0       0       0       0       0       0       0       0       0       0       
      +0       0       0       0       0       0       0       0
  2472 ;;      Temps:          0       6       0       0       0       0       0       0       0       0       0       0       
      +0       0       0       0       0       0       0       0
  2473 ;;      Totals:         2      13       0       0       0       0       0       0       0       0       0       0       
      +0       0       0       0       0       0       0       0
  2474 ;;Total ram usage:       15 bytes
  2475 ;; Hardware stack levels used:    1
  2476 ;; Hardware stack levels required when called:    2
  2477 ;; This function calls:
  2478 ;;		_EUSART1_Write
  2479 ;; This function is called by:
  2480 ;;		_main
  2481 ;; This function uses a non-reentrant model
  2482 ;;
  2483                           
  2484                           
  2485                           ;psect for function _send_usart_packet_manage
  2486  1549                     _send_usart_packet_manage:	
  2487                           
  2488                           ;incstack = 0
  2489                           ; Regs used in _send_usart_packet_manage: [wreg+status,2+status,0+pclath+cstack]
  2490                           ;send_usart_packet_manage@command_byte_1 stored from wreg
  2491  1549  0020               	movlb	0	; select bank0
  2492  154A  00A8               	movwf	send_usart_packet_manage@command_byte_1
  2493                           
  2494                           ;newmain1.c: 435: unsigned int checksum_send_work;
  2495                           ;newmain1.c: 436: unsigned char data_high_byte_2, data_low_byte_3, checksum_high_byte_4,
      +                           checksum_low_byte_5;
  2496                           ;newmain1.c: 439: data_high_byte_2 = Data_carry >> 8;
  2497  154B  0874               	movf	send_usart_packet_manage@Data_carry+1,w
  2498  154C  00A0               	movwf	??_send_usart_packet_manage
  2499  154D  0820               	movf	??_send_usart_packet_manage,w
  2500  154E  00A9               	movwf	send_usart_packet_manage@data_high_byte_2
  2501                           
  2502                           ;newmain1.c: 440: data_low_byte_3 = Data_carry & 255;
  2503  154F  0873               	movf	send_usart_packet_manage@Data_carry,w
  2504  1550  00A0               	movwf	??_send_usart_packet_manage
  2505  1551  0820               	movf	??_send_usart_packet_manage,w
  2506  1552  00AA               	movwf	send_usart_packet_manage@data_low_byte_3
  2507                           
  2508                           ;newmain1.c: 443: checksum_send_work = 0;
  2509  1553  01AB               	clrf	send_usart_packet_manage@checksum_send_work
  2510  1554  01AC               	clrf	send_usart_packet_manage@checksum_send_work+1
  2511                           
  2512                           ;newmain1.c: 444: checksum_send_work = checksum_send_work + command_byte_1 + data_high_b
      +                          yte_2 + data_low_byte_3;
  2513  1555  082A               	movf	send_usart_packet_manage@data_low_byte_3,w
  2514  1556  00A0               	movwf	??_send_usart_packet_manage
  2515  1557  01A1               	clrf	??_send_usart_packet_manage+1
  2516  1558  0828               	movf	send_usart_packet_manage@command_byte_1,w
  2517  1559  0729               	addwf	send_usart_packet_manage@data_high_byte_2,w
  2518  155A  00A2               	movwf	??_send_usart_packet_manage+2
  2519  155B  01A3               	clrf	??_send_usart_packet_manage+3
  2520  155C  0DA3               	rlf	??_send_usart_packet_manage+3,f
  2521  155D  0820               	movf	??_send_usart_packet_manage,w
  2522  155E  0722               	addwf	??_send_usart_packet_manage+2,w
  2523  155F  00A4               	movwf	??_send_usart_packet_manage+4
  2524  1560  0821               	movf	??_send_usart_packet_manage+1,w
  2525  1561  3D23               	addwfc	??_send_usart_packet_manage+3,w
  2526  1562  00A5               	movwf	??_send_usart_packet_manage+5
  2527  1563  082B               	movf	send_usart_packet_manage@checksum_send_work,w
  2528  1564  0724               	addwf	??_send_usart_packet_manage+4,w
  2529  1565  00AB               	movwf	send_usart_packet_manage@checksum_send_work
  2530  1566  082C               	movf	send_usart_packet_manage@checksum_send_work+1,w
  2531  1567  3D25               	addwfc	??_send_usart_packet_manage+5,w
  2532  1568  00AC               	movwf	send_usart_packet_manage@checksum_send_work+1
  2533                           
  2534                           ;newmain1.c: 446: checksum_high_byte_4 = checksum_send_work >> 8;
  2535  1569  082C               	movf	send_usart_packet_manage@checksum_send_work+1,w
  2536  156A  00A0               	movwf	??_send_usart_packet_manage
  2537  156B  0820               	movf	??_send_usart_packet_manage,w
  2538  156C  00A6               	movwf	send_usart_packet_manage@checksum_high_byte_4
  2539                           
  2540                           ;newmain1.c: 447: checksum_low_byte_5 = checksum_send_work & 255;
  2541  156D  082B               	movf	send_usart_packet_manage@checksum_send_work,w
  2542  156E  00A0               	movwf	??_send_usart_packet_manage
  2543  156F  0820               	movf	??_send_usart_packet_manage,w
  2544  1570  00A7               	movwf	send_usart_packet_manage@checksum_low_byte_5
  2545                           
  2546                           ;newmain1.c: 452: EUSART1_Write(command_byte_1);
  2547  1571  0828               	movf	send_usart_packet_manage@command_byte_1,w
  2548  1572  3187  27F8  3195   	fcall	_EUSART1_Write
  2549                           
  2550                           ;newmain1.c: 453: EUSART1_Write(data_high_byte_2);
  2551  1575  0020               	movlb	0	; select bank0
  2552  1576  0829               	movf	send_usart_packet_manage@data_high_byte_2,w
  2553  1577  3187  27F8  3195   	fcall	_EUSART1_Write
  2554                           
  2555                           ;newmain1.c: 454: EUSART1_Write(data_low_byte_3);
  2556  157A  0020               	movlb	0	; select bank0
  2557  157B  082A               	movf	send_usart_packet_manage@data_low_byte_3,w
  2558  157C  3187  27F8  3195   	fcall	_EUSART1_Write
  2559                           
  2560                           ;newmain1.c: 455: EUSART1_Write(checksum_high_byte_4);
  2561  157F  0020               	movlb	0	; select bank0
  2562  1580  0826               	movf	send_usart_packet_manage@checksum_high_byte_4,w
  2563  1581  3187  27F8  3195   	fcall	_EUSART1_Write
  2564                           
  2565                           ;newmain1.c: 456: EUSART1_Write(checksum_low_byte_5);
  2566  1584  0020               	movlb	0	; select bank0
  2567  1585  0827               	movf	send_usart_packet_manage@checksum_low_byte_5,w
  2568  1586  3187  27F8         	fcall	_EUSART1_Write
  2569  1588  0008               	return
  2570  1589                     __end_of_send_usart_packet_manage:	
  2571                           
  2572                           	psect	text2
  2573  07F8                     __ptext2:	
  2574 ;; *************** function _EUSART1_Write *****************
  2575 ;; Defined at:
  2576 ;;		line 421 in file "newmain1.c"
  2577 ;; Parameters:    Size  Location     Type
  2578 ;;  txData          1    wreg     unsigned char 
  2579 ;; Auto vars:     Size  Location     Type
  2580 ;;  txData          1    2[COMMON] unsigned char 
  2581 ;; Return value:  Size  Location     Type
  2582 ;;		None               void
  2583 ;; Registers used:
  2584 ;;		wreg
  2585 ;; Tracked objects:
  2586 ;;		On entry : 0/0
  2587 ;;		On exit  : 0/0
  2588 ;;		Unchanged: 0/0
  2589 ;; Data sizes:     COMMON   BANK0   BANK1   BANK2   BANK3   BANK4   BANK5   BANK6   BANK7   BANK8   BANK9  BANK10  BANK1
      +1  BANK12  BANK13  BANK14  BANK15  BANK16  BANK17  BANK18
  2590 ;;      Params:         0       0       0       0       0       0       0       0       0       0       0       0       
      +0       0       0       0       0       0       0       0
  2591 ;;      Locals:         1       0       0       0       0       0       0       0       0       0       0       0       
      +0       0       0       0       0       0       0       0
  2592 ;;      Temps:          0       0       0       0       0       0       0       0       0       0       0       0       
      +0       0       0       0       0       0       0       0
  2593 ;;      Totals:         1       0       0       0       0       0       0       0       0       0       0       0       
      +0       0       0       0       0       0       0       0
  2594 ;;Total ram usage:        1 bytes
  2595 ;; Hardware stack levels used:    1
  2596 ;; Hardware stack levels required when called:    1
  2597 ;; This function calls:
  2598 ;;		Nothing
  2599 ;; This function is called by:
  2600 ;;		_send_usart_packet_manage
  2601 ;; This function uses a non-reentrant model
  2602 ;;
  2603                           
  2604                           
  2605                           ;psect for function _EUSART1_Write
  2606  07F8                     _EUSART1_Write:	
  2607                           
  2608                           ;incstack = 0
  2609                           ; Regs used in _EUSART1_Write: [wreg]
  2610                           ;EUSART1_Write@txData stored from wreg
  2611  07F8  00F2               	movwf	EUSART1_Write@txData
  2612  07F9                     l335:	
  2613                           ;newmain1.c: 424: while (TX2STAbits.TRMT == 0);
  2614                           
  2615  07F9  0029               	movlb	9	; select bank9
  2616  07FA  1C96               	btfss	22,1	;volatile
  2617  07FB  2FF9               	goto	l335
  2618                           
  2619                           ;newmain1.c: 425: TX2REG = txData;
  2620  07FC  0872               	movf	EUSART1_Write@txData,w
  2621  07FD  0092               	movwf	18	;volatile
  2622  07FE  0008               	return
  2623  07FF                     __end_of_EUSART1_Write:	
  2624                           
  2625                           	psect	text3
  2626  021D                     __ptext3:	
  2627 ;; *************** function _receive_data_bytes *****************
  2628 ;; Defined at:
  2629 ;;		line 497 in file "newmain1.c"
  2630 ;; Parameters:    Size  Location     Type
  2631 ;;  time_out_fir    2    7[BANK0 ] unsigned int 
  2632 ;; Auto vars:     Size  Location     Type
  2633 ;;  usart_valida    2   24[BANK0 ] unsigned int 
  2634 ;;  data_int_val    2   17[BANK0 ] unsigned int 
  2635 ;;  usart_checks    2   15[BANK0 ] unsigned int 
  2636 ;;  bit_data        2    0        unsigned int 
  2637 ;;  data_low_byt    1   23[BANK0 ] unsigned char 
  2638 ;;  data_high_by    1   22[BANK0 ] unsigned char 
  2639 ;;  command_byte    1   21[BANK0 ] unsigned char 
  2640 ;;  checksum_low    1   20[BANK0 ] unsigned char 
  2641 ;;  checksum_hig    1   19[BANK0 ] unsigned char 
  2642 ;; Return value:  Size  Location     Type
  2643 ;;                  2    7[BANK0 ] unsigned int 
  2644 ;; Registers used:
  2645 ;;		wreg, fsr0l, fsr0h, status,2, status,0, pclath, cstack
  2646 ;; Tracked objects:
  2647 ;;		On entry : 0/0
  2648 ;;		On exit  : 0/0
  2649 ;;		Unchanged: 0/0
  2650 ;; Data sizes:     COMMON   BANK0   BANK1   BANK2   BANK3   BANK4   BANK5   BANK6   BANK7   BANK8   BANK9  BANK10  BANK1
      +1  BANK12  BANK13  BANK14  BANK15  BANK16  BANK17  BANK18
  2651 ;;      Params:         0       2       0       0       0       0       0       0       0       0       0       0       
      +0       0       0       0       0       0       0       0
  2652 ;;      Locals:         0      11       0       0       0       0       0       0       0       0       0       0       
      +0       0       0       0       0       0       0       0
  2653 ;;      Temps:          0       6       0       0       0       0       0       0       0       0       0       0       
      +0       0       0       0       0       0       0       0
  2654 ;;      Totals:         0      19       0       0       0       0       0       0       0       0       0       0       
      +0       0       0       0       0       0       0       0
  2655 ;;Total ram usage:       19 bytes
  2656 ;; Hardware stack levels used:    1
  2657 ;; Hardware stack levels required when called:    5
  2658 ;; This function calls:
  2659 ;;		_manage_read_byte
  2660 ;;		_print_error
  2661 ;; This function is called by:
  2662 ;;		_main
  2663 ;; This function uses a non-reentrant model
  2664 ;;
  2665                           
  2666                           
  2667                           ;psect for function _receive_data_bytes
  2668  021D                     _receive_data_bytes:	
  2669                           
  2670                           ;newmain1.c: 499: unsigned char command_byte, data_high_byte, data_low_byte, checksum_hi
      +                          gh_byte, checksum_low_byte;
  2671                           ;newmain1.c: 500: unsigned int bit_data, usart_validation_work, usart_checksum, data_int
      +                          _value;
  2672                           ;newmain1.c: 503: usart_receive_state_main = 0;
  2673                           
  2674                           ;incstack = 0
  2675                           ; Regs used in _receive_data_bytes: [wreg-fsr0h+status,2+status,0+pclath+cstack]
  2676  021D  0020               	movlb	0	; select bank0
  2677  021E  01E7               	clrf	_usart_receive_state_main
  2678                           
  2679                           ;newmain1.c: 508: {
  2680                           ;newmain1.c: 509: switch(usart_receive_state_main)
  2681                           
  2682                           ;newmain1.c: 507: while(1)
  2683  021F  2AE2               	goto	l5500
  2684  0220                     l5404:	
  2685                           ;newmain1.c: 513: while(1 == RC2IF)
  2686                           
  2687                           ;newmain1.c: 510: {
  2688                           ;newmain1.c: 511: case 0:
  2689                           
  2690                           
  2691                           ;newmain1.c: 514: {
  2692                           ;newmain1.c: 515: command_byte = RC2REG;
  2693  0220  0029               	movlb	9	; select bank9
  2694  0221  0811               	movf	17,w	;volatile
  2695  0222  0020               	movlb	0	; select bank0
  2696  0223  00A9               	movwf	??_receive_data_bytes
  2697  0224  0829               	movf	??_receive_data_bytes,w
  2698  0225  00B5               	movwf	receive_data_bytes@command_byte
  2699  0226                     l5406:	
  2700  0226  1A94               	btfsc	20,5	;volatile
  2701  0227  2A20               	goto	l5404
  2702                           
  2703                           ;newmain1.c: 516: }
  2704                           ;newmain1.c: 518: usart_fault_state = 0;
  2705  0228  01E6               	clrf	_usart_fault_state
  2706                           
  2707                           ;newmain1.c: 520: usart_receive_state_main = 1;
  2708  0229  01E7               	clrf	_usart_receive_state_main
  2709  022A  0AE7               	incf	_usart_receive_state_main,f
  2710                           
  2711                           ;newmain1.c: 521: break;
  2712  022B  2AE2               	goto	l5500
  2713  022C                     l5412:	
  2714                           ;newmain1.c: 523: case 1:
  2715                           
  2716                           
  2717                           ;newmain1.c: 525: usart_timer = time_out_first_byte;
  2718  022C  0828               	movf	receive_data_bytes@time_out_first_byte+1,w
  2719  022D  00E0               	movwf	_usart_timer+1	;volatile
  2720  022E  0827               	movf	receive_data_bytes@time_out_first_byte,w
  2721  022F  00DF               	movwf	_usart_timer	;volatile
  2722                           
  2723                           ;newmain1.c: 527: command_byte = manage_read_byte(1);
  2724  0230  3001               	movlw	1
  2725  0231  3194  2441  3182   	fcall	_manage_read_byte
  2726  0234  0020               	movlb	0	; select bank0
  2727  0235  00A9               	movwf	??_receive_data_bytes
  2728  0236  0829               	movf	??_receive_data_bytes,w
  2729  0237  00B5               	movwf	receive_data_bytes@command_byte
  2730                           
  2731                           ;newmain1.c: 529: if(usart_fault_flag == 1)
  2732  0238  187A               	btfsc	_usart_fault_flag/(0+8),_usart_fault_flag& (0+7)	;volatile
  2733  0239  2A7A               	goto	L15
  2734                           
  2735                           ;newmain1.c: 535: else
  2736                           ;newmain1.c: 536: {
  2737                           ;newmain1.c: 537: usart_receive_state_main = 2;
  2738                           
  2739                           ;newmain1.c: 534: }
  2740                           
  2741                           ;newmain1.c: 533: usart_receive_state_main = 8;
  2742                           
  2743                           ;newmain1.c: 530: {
  2744                           ;newmain1.c: 532: usart_fault_state = 1;
  2745  023A  3002               	movlw	2
  2746  023B  2AB3               	goto	L11
  2747  023C                     l5424:	
  2748                           ;newmain1.c: 541: case 2:
  2749                           
  2750                           ;newmain1.c: 538: }
  2751                           ;newmain1.c: 539: break;
  2752                           
  2753                           
  2754                           ;newmain1.c: 542: usart_timer = 30;
  2755  023C  301E               	movlw	30
  2756  023D  00DF               	movwf	_usart_timer	;volatile
  2757  023E  3000               	movlw	0
  2758  023F  00E0               	movwf	_usart_timer+1	;volatile
  2759                           
  2760                           ;newmain1.c: 544: data_high_byte = manage_read_byte(1);
  2761  0240  3001               	movlw	1
  2762  0241  3194  2441  3182   	fcall	_manage_read_byte
  2763  0244  0020               	movlb	0	; select bank0
  2764  0245  00A9               	movwf	??_receive_data_bytes
  2765  0246  0829               	movf	??_receive_data_bytes,w
  2766  0247  00B6               	movwf	receive_data_bytes@data_high_byte
  2767                           
  2768                           ;newmain1.c: 546: if(usart_fault_flag == 1)
  2769  0248  187A               	btfsc	_usart_fault_flag/(0+8),_usart_fault_flag& (0+7)	;volatile
  2770  0249  2A7A               	goto	L15
  2771                           
  2772                           ;newmain1.c: 552: else
  2773                           ;newmain1.c: 553: {
  2774                           ;newmain1.c: 554: usart_receive_state_main = 3;
  2775                           
  2776                           ;newmain1.c: 551: }
  2777                           
  2778                           ;newmain1.c: 550: usart_receive_state_main = 8;
  2779                           
  2780                           ;newmain1.c: 547: {
  2781                           ;newmain1.c: 549: usart_fault_state = 1;
  2782  024A  3003               	movlw	3
  2783  024B  2AB3               	goto	L11
  2784  024C                     l5436:	
  2785                           ;newmain1.c: 558: case 3:
  2786                           
  2787                           ;newmain1.c: 555: }
  2788                           ;newmain1.c: 556: break;
  2789                           
  2790                           
  2791                           ;newmain1.c: 559: usart_timer = 30;
  2792  024C  301E               	movlw	30
  2793  024D  00DF               	movwf	_usart_timer	;volatile
  2794  024E  3000               	movlw	0
  2795  024F  00E0               	movwf	_usart_timer+1	;volatile
  2796                           
  2797                           ;newmain1.c: 561: data_low_byte = manage_read_byte(1);
  2798  0250  3001               	movlw	1
  2799  0251  3194  2441  3182   	fcall	_manage_read_byte
  2800  0254  0020               	movlb	0	; select bank0
  2801  0255  00A9               	movwf	??_receive_data_bytes
  2802  0256  0829               	movf	??_receive_data_bytes,w
  2803  0257  00B7               	movwf	receive_data_bytes@data_low_byte
  2804                           
  2805                           ;newmain1.c: 563: if(usart_fault_flag == 1)
  2806  0258  187A               	btfsc	_usart_fault_flag/(0+8),_usart_fault_flag& (0+7)	;volatile
  2807  0259  2A7A               	goto	L15
  2808                           
  2809                           ;newmain1.c: 569: else
  2810                           ;newmain1.c: 570: {
  2811                           ;newmain1.c: 571: usart_receive_state_main = 4;
  2812                           
  2813                           ;newmain1.c: 568: }
  2814                           
  2815                           ;newmain1.c: 567: usart_receive_state_main = 8;
  2816                           
  2817                           ;newmain1.c: 564: {
  2818                           ;newmain1.c: 566: usart_fault_state = 1;
  2819  025A  3004               	movlw	4
  2820  025B  2AB3               	goto	L11
  2821  025C                     l5448:	
  2822                           ;newmain1.c: 575: case 4:
  2823                           
  2824                           ;newmain1.c: 572: }
  2825                           ;newmain1.c: 573: break;
  2826                           
  2827                           
  2828                           ;newmain1.c: 576: usart_timer = 30;
  2829  025C  301E               	movlw	30
  2830  025D  00DF               	movwf	_usart_timer	;volatile
  2831  025E  3000               	movlw	0
  2832  025F  00E0               	movwf	_usart_timer+1	;volatile
  2833                           
  2834                           ;newmain1.c: 578: checksum_high_byte = manage_read_byte(1);
  2835  0260  3001               	movlw	1
  2836  0261  3194  2441  3182   	fcall	_manage_read_byte
  2837  0264  0020               	movlb	0	; select bank0
  2838  0265  00A9               	movwf	??_receive_data_bytes
  2839  0266  0829               	movf	??_receive_data_bytes,w
  2840  0267  00B3               	movwf	receive_data_bytes@checksum_high_byte
  2841                           
  2842                           ;newmain1.c: 580: if(usart_fault_flag == 1)
  2843  0268  187A               	btfsc	_usart_fault_flag/(0+8),_usart_fault_flag& (0+7)	;volatile
  2844  0269  2A7A               	goto	L15
  2845                           
  2846                           ;newmain1.c: 586: else
  2847                           ;newmain1.c: 587: {
  2848                           ;newmain1.c: 588: usart_receive_state_main = 5;
  2849                           
  2850                           ;newmain1.c: 585: }
  2851                           
  2852                           ;newmain1.c: 584: usart_receive_state_main = 8;
  2853                           
  2854                           ;newmain1.c: 581: {
  2855                           ;newmain1.c: 583: usart_fault_state = 1;
  2856  026A  3005               	movlw	5
  2857  026B  2AB3               	goto	L11
  2858  026C                     l5460:	
  2859                           ;newmain1.c: 592: case 5:
  2860                           
  2861                           ;newmain1.c: 589: }
  2862                           ;newmain1.c: 590: break;
  2863                           
  2864                           
  2865                           ;newmain1.c: 593: usart_timer = 30;
  2866  026C  301E               	movlw	30
  2867  026D  00DF               	movwf	_usart_timer	;volatile
  2868  026E  3000               	movlw	0
  2869  026F  00E0               	movwf	_usart_timer+1	;volatile
  2870                           
  2871                           ;newmain1.c: 595: checksum_low_byte = manage_read_byte(1);
  2872  0270  3001               	movlw	1
  2873  0271  3194  2441  3182   	fcall	_manage_read_byte
  2874  0274  0020               	movlb	0	; select bank0
  2875  0275  00A9               	movwf	??_receive_data_bytes
  2876  0276  0829               	movf	??_receive_data_bytes,w
  2877  0277  00B4               	movwf	receive_data_bytes@checksum_low_byte
  2878                           
  2879                           ;newmain1.c: 597: if(usart_fault_flag == 1)
  2880  0278  1C7A               	btfss	_usart_fault_flag/(0+8),_usart_fault_flag& (0+7)	;volatile
  2881  0279  2A7D               	goto	l5470
  2882  027A                     L15:	
  2883                           
  2884                           ;newmain1.c: 598: {
  2885                           ;newmain1.c: 600: usart_fault_state = 1;
  2886  027A  01E6               	clrf	_usart_fault_state
  2887  027B  0AE6               	incf	_usart_fault_state,f
  2888  027C  2AB2               	goto	L13
  2889  027D                     l5470:	
  2890                           ;newmain1.c: 602: }
  2891                           
  2892                           ;newmain1.c: 601: usart_receive_state_main = 8;
  2893                           
  2894                           
  2895                           ;newmain1.c: 603: else
  2896                           ;newmain1.c: 604: {
  2897                           ;newmain1.c: 605: usart_receive_state_main = 6;
  2898  027D  3006               	movlw	6
  2899  027E  2AB3               	goto	L11
  2900  027F                     l5472:	
  2901                           ;newmain1.c: 609: case 6:
  2902                           
  2903                           ;newmain1.c: 606: }
  2904                           ;newmain1.c: 607: break;
  2905                           
  2906                           
  2907                           ;newmain1.c: 612: usart_checksum = (checksum_high_byte << 8) | checksum_low_byte;
  2908  027F  0834               	movf	receive_data_bytes@checksum_low_byte,w
  2909  0280  00A9               	movwf	??_receive_data_bytes
  2910  0281  01AA               	clrf	??_receive_data_bytes+1
  2911  0282  0833               	movf	receive_data_bytes@checksum_high_byte,w
  2912  0283  00AB               	movwf	??_receive_data_bytes+2
  2913  0284  01AC               	clrf	??_receive_data_bytes+3
  2914  0285  082B               	movf	??_receive_data_bytes+2,w
  2915  0286  00AC               	movwf	??_receive_data_bytes+3
  2916  0287  01AB               	clrf	??_receive_data_bytes+2
  2917  0288  0829               	movf	??_receive_data_bytes,w
  2918  0289  042B               	iorwf	??_receive_data_bytes+2,w
  2919  028A  00AF               	movwf	receive_data_bytes@usart_checksum
  2920  028B  082A               	movf	??_receive_data_bytes+1,w
  2921  028C  042C               	iorwf	??_receive_data_bytes+3,w
  2922  028D  00B0               	movwf	receive_data_bytes@usart_checksum+1
  2923                           
  2924                           ;newmain1.c: 613: usart_validation_work = 0;
  2925  028E  01B8               	clrf	receive_data_bytes@usart_validation_work
  2926  028F  01B9               	clrf	receive_data_bytes@usart_validation_work+1
  2927                           
  2928                           ;newmain1.c: 614: usart_validation_work = usart_validation_work + command_byte + data_hi
      +                          gh_byte + data_low_byte;
  2929  0290  0837               	movf	receive_data_bytes@data_low_byte,w
  2930  0291  00A9               	movwf	??_receive_data_bytes
  2931  0292  01AA               	clrf	??_receive_data_bytes+1
  2932  0293  0835               	movf	receive_data_bytes@command_byte,w
  2933  0294  0736               	addwf	receive_data_bytes@data_high_byte,w
  2934  0295  00AB               	movwf	??_receive_data_bytes+2
  2935  0296  01AC               	clrf	??_receive_data_bytes+3
  2936  0297  0DAC               	rlf	??_receive_data_bytes+3,f
  2937  0298  0829               	movf	??_receive_data_bytes,w
  2938  0299  072B               	addwf	??_receive_data_bytes+2,w
  2939  029A  00AD               	movwf	??_receive_data_bytes+4
  2940  029B  082A               	movf	??_receive_data_bytes+1,w
  2941  029C  3D2C               	addwfc	??_receive_data_bytes+3,w
  2942  029D  00AE               	movwf	??_receive_data_bytes+5
  2943  029E  0838               	movf	receive_data_bytes@usart_validation_work,w
  2944  029F  072D               	addwf	??_receive_data_bytes+4,w
  2945  02A0  00B8               	movwf	receive_data_bytes@usart_validation_work
  2946  02A1  0839               	movf	receive_data_bytes@usart_validation_work+1,w
  2947  02A2  3D2E               	addwfc	??_receive_data_bytes+5,w
  2948  02A3  00B9               	movwf	receive_data_bytes@usart_validation_work+1
  2949                           
  2950                           ;newmain1.c: 616: if(usart_checksum == usart_validation_work)
  2951  02A4  0839               	movf	receive_data_bytes@usart_validation_work+1,w
  2952  02A5  0630               	xorwf	receive_data_bytes@usart_checksum+1,w
  2953  02A6  1D03               	skipz
  2954  02A7  2AAA               	goto	u4835
  2955  02A8  0838               	movf	receive_data_bytes@usart_validation_work,w
  2956  02A9  062F               	xorwf	receive_data_bytes@usart_checksum,w
  2957  02AA                     u4835:	
  2958  02AA  1D03               	skipz
  2959  02AB  2AAE               	goto	l5482
  2960                           
  2961                           ;newmain1.c: 617: {
  2962                           ;newmain1.c: 619: usart_receive_state_main = 7;
  2963  02AC  3007               	movlw	7
  2964  02AD  2AB3               	goto	L11
  2965  02AE                     l5482:	
  2966                           ;newmain1.c: 620: }
  2967                           
  2968                           
  2969                           ;newmain1.c: 621: else
  2970                           ;newmain1.c: 622: {
  2971                           ;newmain1.c: 624: usart_fault_state = 2;
  2972  02AE  3002               	movlw	2
  2973  02AF  00A9               	movwf	??_receive_data_bytes
  2974  02B0  0829               	movf	??_receive_data_bytes,w
  2975  02B1  00E6               	movwf	_usart_fault_state
  2976  02B2                     L13:	
  2977                           
  2978                           ;newmain1.c: 625: usart_receive_state_main = 8;
  2979  02B2  3008               	movlw	8
  2980  02B3                     L11:	
  2981  02B3  00A9               	movwf	??_receive_data_bytes
  2982  02B4  0829               	movf	??_receive_data_bytes,w
  2983  02B5  00E7               	movwf	_usart_receive_state_main
  2984                           
  2985                           ;newmain1.c: 626: }
  2986                           ;newmain1.c: 627: break;
  2987  02B6  2AE2               	goto	l5500
  2988  02B7                     l5484:	
  2989                           ;newmain1.c: 629: case 7:
  2990                           
  2991                           
  2992                           ;newmain1.c: 631: data_int_value = (data_high_byte << 8) | data_low_byte;
  2993  02B7  0837               	movf	receive_data_bytes@data_low_byte,w
  2994  02B8  00A9               	movwf	??_receive_data_bytes
  2995  02B9  01AA               	clrf	??_receive_data_bytes+1
  2996  02BA  0836               	movf	receive_data_bytes@data_high_byte,w
  2997  02BB  00AB               	movwf	??_receive_data_bytes+2
  2998  02BC  01AC               	clrf	??_receive_data_bytes+3
  2999  02BD  082B               	movf	??_receive_data_bytes+2,w
  3000  02BE  00AC               	movwf	??_receive_data_bytes+3
  3001  02BF  01AB               	clrf	??_receive_data_bytes+2
  3002  02C0  0829               	movf	??_receive_data_bytes,w
  3003  02C1  042B               	iorwf	??_receive_data_bytes+2,w
  3004  02C2  00B1               	movwf	receive_data_bytes@data_int_value
  3005  02C3  082A               	movf	??_receive_data_bytes+1,w
  3006  02C4  042C               	iorwf	??_receive_data_bytes+3,w
  3007  02C5  00B2               	movwf	receive_data_bytes@data_int_value+1
  3008                           
  3009                           ;newmain1.c: 633: return data_int_value;
  3010  02C6  0832               	movf	receive_data_bytes@data_int_value+1,w
  3011  02C7  00A8               	movwf	?_receive_data_bytes+1
  3012  02C8  0831               	movf	receive_data_bytes@data_int_value,w
  3013  02C9  00A7               	movwf	?_receive_data_bytes
  3014  02CA  0008               	return
  3015  02CB                     l5490:	
  3016                           ;newmain1.c: 638: case 8:
  3017                           
  3018                           ;newmain1.c: 636: break;
  3019                           
  3020                           
  3021                           ;newmain1.c: 639: if(usart_fault_state == 1)
  3022  02CB  0366               	decf	_usart_fault_state,w
  3023  02CC  1D03               	btfss	3,2
  3024  02CD  2AD2               	goto	l5494
  3025                           
  3026                           ;newmain1.c: 640: {
  3027                           ;newmain1.c: 641: print_error("Comms Timeout", "");
  3028  02CE  30C3               	movlw	low (STR_1| (0+32768))
  3029  02CF  00A0               	movwf	print_error@top
  3030  02D0  3091               	movlw	high (STR_1| (0+32768))
  3031  02D1  2ADA               	goto	L12
  3032  02D2                     l5494:	
  3033                           ;newmain1.c: 642: }
  3034                           
  3035                           
  3036                           ;newmain1.c: 643: else if(usart_fault_state == 2)
  3037  02D2  3002               	movlw	2
  3038  02D3  0020               	movlb	0	; select bank0
  3039  02D4  0666               	xorwf	_usart_fault_state,w
  3040  02D5  1D03               	btfss	3,2
  3041  02D6  2AE2               	goto	l5500
  3042                           
  3043                           ;newmain1.c: 644: {
  3044                           ;newmain1.c: 645: print_error("Comms_Data_Err", "");
  3045  02D7  3019               	movlw	low (STR_3| (0+32768))
  3046  02D8  00A0               	movwf	print_error@top
  3047  02D9  3091               	movlw	high (STR_3| (0+32768))
  3048  02DA                     L12:	
  3049  02DA  00A1               	movwf	print_error@top+1
  3050  02DB  309F               	movlw	low ((STR_143+4)| (0+32768))
  3051  02DC  00A2               	movwf	print_error@bottom
  3052  02DD  3093               	movlw	high ((STR_143+4)| (0+32768))
  3053  02DE  00A3               	movwf	print_error@bottom+1
  3054  02DF  3195  25D1  3182   	fcall	_print_error
  3055  02E2                     l5500:	
  3056                           ;newmain1.c: 931: }
  3057                           
  3058                           ;newmain1.c: 646: }
  3059                           ;newmain1.c: 650: break;
  3060                           
  3061  02E2  0020               	movlb	0	; select bank0
  3062  02E3  0867               	movf	_usart_receive_state_main,w
  3063                           
  3064                           ; Switch size 1, requested type "space"
  3065                           ; Number of cases is 9, Range of values is 0 to 8
  3066                           ; switch strategies available:
  3067                           ; Name         Instructions Cycles
  3068                           ; direct_byte           24     6 (fixed)
  3069                           ; simple_byte           28    15 (average)
  3070                           ; jumptable            260     6 (fixed)
  3071                           ;	Chosen strategy is direct_byte
  3072  02E4  0084               	movwf	4
  3073  02E5  3009               	movlw	9
  3074  02E6  0204               	subwf	4,w
  3075  02E7  1803               	skipnc
  3076  02E8  2AE2               	goto	l5500
  3077  02E9  3198               	movlp	high S6718
  3078  02EA  3504               	lslf	4,w
  3079  02EB  3E00               	addlw	low S6718
  3080  02EC  0082               	movwf	2
  3081  02ED  2AE2               	goto	l5500
  3082  02EE                     __end_of_receive_data_bytes:	
  3083                           
  3084                           	psect	swtext1
  3085  1800                     __pswtext1:	
  3086  1800                     S6718:	
  3087  1800  3182  2A26         	ljmp	l5406
  3088  1802  3182  2A2C         	ljmp	l5412
  3089  1804  3182  2A3C         	ljmp	l5424
  3090  1806  3182  2A4C         	ljmp	l5436
  3091  1808  3182  2A5C         	ljmp	l5448
  3092  180A  3182  2A6C         	ljmp	l5460
  3093  180C  3182  2A7F         	ljmp	l5472
  3094  180E  3182  2AB7         	ljmp	l5484
  3095  1810  3182  2ACB         	ljmp	l5490
  3096                           
  3097                           	psect	text4
  3098  15D1                     __ptext4:	
  3099 ;; *************** function _print_error *****************
  3100 ;; Defined at:
  3101 ;;		line 3032 in file "newmain1.c"
  3102 ;; Parameters:    Size  Location     Type
  3103 ;;  top             2    0[BANK0 ] PTR const unsigned char 
  3104 ;;		 -> STR_137(17), STR_123(12), STR_121(12), STR_119(11), 
  3105 ;;		 -> STR_117(11), STR_113(9), STR_109(12), STR_107(12), 
  3106 ;;		 -> STR_105(12), STR_103(12), STR_101(12), STR_99(12), 
  3107 ;;		 -> STR_97(12), STR_95(12), STR_93(12), STR_89(6), 
  3108 ;;		 -> STR_73(6), STR_71(6), STR_69(6), STR_67(6), 
  3109 ;;		 -> STR_65(6), STR_63(6), STR_61(6), STR_59(6), 
  3110 ;;		 -> STR_57(6), STR_55(6), STR_51(15), STR_49(15), 
  3111 ;;		 -> STR_47(15), STR_45(9), STR_43(9), STR_41(11), 
  3112 ;;		 -> STR_39(11), STR_37(13), STR_35(13), STR_31(11), 
  3113 ;;		 -> STR_29(11), STR_23(15), STR_19(10), STR_15(6), 
  3114 ;;		 -> STR_3(15), STR_1(14), 
  3115 ;;  bottom          2    2[BANK0 ] PTR const unsigned char 
  3116 ;;		 -> STR_138(17), STR_124(13), STR_122(14), STR_120(15), 
  3117 ;;		 -> STR_118(16), STR_114(8), STR_110(14), STR_108(14), 
  3118 ;;		 -> STR_106(14), STR_104(14), STR_102(14), STR_100(14), 
  3119 ;;		 -> STR_98(13), STR_96(14), STR_94(14), STR_90(15), 
  3120 ;;		 -> STR_74(14), STR_72(14), STR_70(12), STR_68(9), 
  3121 ;;		 -> STR_66(9), STR_64(12), STR_62(16), STR_60(14), 
  3122 ;;		 -> STR_58(14), STR_56(14), STR_52(6), STR_50(7), 
  3123 ;;		 -> STR_48(13), STR_46(8), STR_44(9), STR_42(15), 
  3124 ;;		 -> STR_40(16), STR_38(8), STR_36(9), STR_32(9), 
  3125 ;;		 -> STR_30(8), STR_24(8), STR_20(9), STR_16(12), 
  3126 ;;		 -> STR_4(1), STR_2(1), 
  3127 ;; Auto vars:     Size  Location     Type
  3128 ;;		None
  3129 ;; Return value:  Size  Location     Type
  3130 ;;		None               void
  3131 ;; Registers used:
  3132 ;;		wreg, fsr0l, fsr0h, status,2, status,0, pclath, cstack
  3133 ;; Tracked objects:
  3134 ;;		On entry : 0/0
  3135 ;;		On exit  : 0/0
  3136 ;;		Unchanged: 0/0
  3137 ;; Data sizes:     COMMON   BANK0   BANK1   BANK2   BANK3   BANK4   BANK5   BANK6   BANK7   BANK8   BANK9  BANK10  BANK1
      +1  BANK12  BANK13  BANK14  BANK15  BANK16  BANK17  BANK18
  3138 ;;      Params:         0       4       0       0       0       0       0       0       0       0       0       0       
      +0       0       0       0       0       0       0       0
  3139 ;;      Locals:         0       0       0       0       0       0       0       0       0       0       0       0       
      +0       0       0       0       0       0       0       0
  3140 ;;      Temps:          0       3       0       0       0       0       0       0       0       0       0       0       
      +0       0       0       0       0       0       0       0
  3141 ;;      Totals:         0       7       0       0       0       0       0       0       0       0       0       0       
      +0       0       0       0       0       0       0       0
  3142 ;;Total ram usage:        7 bytes
  3143 ;; Hardware stack levels used:    1
  3144 ;; Hardware stack levels required when called:    4
  3145 ;; This function calls:
  3146 ;;		_buzz_one
  3147 ;;		_clear_lcd
  3148 ;;		_debug_fast_tx
  3149 ;;		_i2c_Write_string
  3150 ;;		_i2c_first_line
  3151 ;;		_i2c_second_line
  3152 ;;		_power_supply_set
  3153 ;;		_print_screen
  3154 ;; This function is called by:
  3155 ;;		_receive_data_bytes
  3156 ;;		_main
  3157 ;;		_testjig_done
  3158 ;; This function uses a non-reentrant model
  3159 ;;
  3160                           
  3161                           
  3162                           ;psect for function _print_error
  3163  15D1                     _print_error:	
  3164                           
  3165                           ;newmain1.c: 3034: CCPR9L = 0;
  3166                           
  3167                           ;incstack = 0
  3168                           ; Regs used in _print_error: [wreg-fsr0h+status,2+status,0+pclath+cstack]
  3169  15D1  002C               	movlb	12	; select bank12
  3170  15D2  019A               	clrf	26	;volatile
  3171                           
  3172                           ;newmain1.c: 3035: power_supply_set(4);
  3173  15D3  3004               	movlw	4
  3174  15D4  3194  24DA  3195   	fcall	_power_supply_set
  3175                           
  3176                           ;newmain1.c: 3038: RE0 = 0;
  3177  15D7  0020               	movlb	0	; select bank0
  3178  15D8  1010               	bcf	16,0	;volatile
  3179                           
  3180                           ;newmain1.c: 3039: debug_fast_tx(12345);
  3181  15D9  3039               	movlw	57
  3182  15DA  00F2               	movwf	debug_fast_tx@data
  3183  15DB  3030               	movlw	48
  3184  15DC  00F3               	movwf	debug_fast_tx@data+1
  3185  15DD  3195  250D  3195   	fcall	_debug_fast_tx
  3186                           
  3187                           ;newmain1.c: 3040: buzz_one(1000);
  3188  15E0  30E8               	movlw	232
  3189  15E1  00F2               	movwf	buzz_one@time
  3190  15E2  3003               	movlw	3
  3191  15E3  00F3               	movwf	buzz_one@time+1
  3192  15E4  3187  27FF  3195   	fcall	_buzz_one
  3193  15E7                     l5318:	
  3194                           ;newmain1.c: 3041: while (1)
  3195                           
  3196                           
  3197                           ;newmain1.c: 3042: {
  3198                           ;newmain1.c: 3043: clear_lcd();
  3199  15E7  3193  23ED  3195   	fcall	_clear_lcd
  3200                           
  3201                           ;newmain1.c: 3044: i2c_first_line();
  3202  15EA  319F  27BB  3195   	fcall	_i2c_first_line
  3203                           
  3204                           ;newmain1.c: 3045: i2c_Write_string(top);
  3205  15ED  0020               	movlb	0	; select bank0
  3206  15EE  0821               	movf	print_error@top+1,w
  3207  15EF  00F4               	movwf	i2c_Write_string@data+1
  3208  15F0  0820               	movf	print_error@top,w
  3209  15F1  00F3               	movwf	i2c_Write_string@data
  3210  15F2  3194  2460  3195   	fcall	_i2c_Write_string
  3211                           
  3212                           ;newmain1.c: 3046: i2c_second_line();
  3213  15F5  319F  27D2  3195   	fcall	_i2c_second_line
  3214                           
  3215                           ;newmain1.c: 3047: i2c_Write_string(bottom);
  3216  15F8  0020               	movlb	0	; select bank0
  3217  15F9  0823               	movf	print_error@bottom+1,w
  3218  15FA  00F4               	movwf	i2c_Write_string@data+1
  3219  15FB  0822               	movf	print_error@bottom,w
  3220  15FC  00F3               	movwf	i2c_Write_string@data
  3221  15FD  3194  2460  3195   	fcall	_i2c_Write_string
  3222                           
  3223                           ;newmain1.c: 3048: _delay((unsigned long)((2000)*(16000000/4000.0)));
  3224  1600  3029               	movlw	41
  3225  1601  0020               	movlb	0	; select bank0
  3226  1602  00A6               	movwf	??_print_error+2
  3227  1603  3096               	movlw	150
  3228  1604  00A5               	movwf	??_print_error+1
  3229  1605  30A6               	movlw	166
  3230  1606  00A4               	movwf	??_print_error
  3231  1607                     u6777:	
  3232  1607  0BA4               	decfsz	??_print_error,f
  3233  1608  2E07               	goto	u6777
  3234  1609  0BA5               	decfsz	??_print_error+1,f
  3235  160A  2E07               	goto	u6777
  3236  160B  0BA6               	decfsz	??_print_error+2,f
  3237  160C  2E07               	goto	u6777
  3238                           
  3239                           ;newmain1.c: 3049: print_screen("Press START", " to restart test");
  3240  160D  3070               	movlw	low (STR_157| (0+32768))
  3241  160E  00F6               	movwf	print_screen@top
  3242  160F  3092               	movlw	high (STR_157| (0+32768))
  3243  1610  00F7               	movwf	print_screen@top+1
  3244  1611  305D               	movlw	low (STR_158| (0+32768))
  3245  1612  00F8               	movwf	print_screen@bottom
  3246  1613  3090               	movlw	high (STR_158| (0+32768))
  3247  1614  00F9               	movwf	print_screen@bottom+1
  3248  1615  319F  27E9  3195   	fcall	_print_screen
  3249                           
  3250                           ;newmain1.c: 3051: _delay((unsigned long)((1200)*(16000000/4000.0)));
  3251  1618  3019               	movlw	25
  3252  1619  0020               	movlb	0	; select bank0
  3253  161A  00A6               	movwf	??_print_error+2
  3254  161B  305A               	movlw	90
  3255  161C  00A5               	movwf	??_print_error+1
  3256  161D  30C8               	movlw	200
  3257  161E  00A4               	movwf	??_print_error
  3258  161F                     u6787:	
  3259  161F  0BA4               	decfsz	??_print_error,f
  3260  1620  2E1F               	goto	u6787
  3261  1621  0BA5               	decfsz	??_print_error+1,f
  3262  1622  2E1F               	goto	u6787
  3263  1623  0BA6               	decfsz	??_print_error+2,f
  3264  1624  2E1F               	goto	u6787
  3265  1625  3200               	nop2
  3266  1626  2DE7               	goto	l5318
  3267  1627                     __end_of_print_error:	
  3268                           
  3269                           	psect	text5
  3270  1FE9                     __ptext5:	
  3271 ;; *************** function _print_screen *****************
  3272 ;; Defined at:
  3273 ;;		line 3055 in file "newmain1.c"
  3274 ;; Parameters:    Size  Location     Type
  3275 ;;  top             2    6[COMMON] PTR const unsigned char 
  3276 ;;		 -> STR_157(12), STR_155(16), STR_153(16), STR_151(12), 
  3277 ;;		 -> STR_149(15), STR_147(13), STR_145(16), STR_143(5), 
  3278 ;;		 -> STR_141(8), STR_139(17), STR_135(10), STR_133(18), 
  3279 ;;		 -> STR_131(16), STR_129(9), STR_127(12), STR_125(10), 
  3280 ;;		 -> STR_115(16), STR_111(8), STR_91(8), STR_87(8), 
  3281 ;;		 -> STR_85(10), STR_83(9), STR_81(14), STR_79(13), 
  3282 ;;		 -> STR_77(6), STR_75(6), STR_53(8), STR_33(12), 
  3283 ;;		 -> STR_27(3), STR_25(13), STR_21(13), STR_17(10), 
  3284 ;;		 -> STR_13(15), STR_11(16), STR_9(6), STR_7(16), 
  3285 ;;		 -> STR_5(13), 
  3286 ;;  bottom          2    8[COMMON] PTR const unsigned char 
  3287 ;;		 -> STR_158(17), STR_156(14), STR_154(14), STR_152(14), 
  3288 ;;		 -> STR_150(14), STR_148(8), STR_146(9), STR_144(9), 
  3289 ;;		 -> STR_142(9), STR_140(17), STR_136(14), STR_134(14), 
  3290 ;;		 -> STR_132(14), STR_130(14), STR_128(14), STR_126(1), 
  3291 ;;		 -> STR_116(1), STR_112(10), STR_92(14), STR_88(13), 
  3292 ;;		 -> STR_86(16), STR_84(16), STR_82(16), STR_80(16), 
  3293 ;;		 -> STR_78(10), STR_76(10), STR_54(14), STR_34(9), 
  3294 ;;		 -> STR_28(1), STR_26(1), STR_22(1), STR_18(10), 
  3295 ;;		 -> STR_14(2), STR_12(22), STR_10(9), STR_8(22), 
  3296 ;;		 -> STR_6(17), 
  3297 ;; Auto vars:     Size  Location     Type
  3298 ;;		None
  3299 ;; Return value:  Size  Location     Type
  3300 ;;		None               void
  3301 ;; Registers used:
  3302 ;;		wreg, fsr0l, fsr0h, status,2, status,0, pclath, cstack
  3303 ;; Tracked objects:
  3304 ;;		On entry : 0/0
  3305 ;;		On exit  : 0/0
  3306 ;;		Unchanged: 0/0
  3307 ;; Data sizes:     COMMON   BANK0   BANK1   BANK2   BANK3   BANK4   BANK5   BANK6   BANK7   BANK8   BANK9  BANK10  BANK1
      +1  BANK12  BANK13  BANK14  BANK15  BANK16  BANK17  BANK18
  3308 ;;      Params:         4       0       0       0       0       0       0       0       0       0       0       0       
      +0       0       0       0       0       0       0       0
  3309 ;;      Locals:         0       0       0       0       0       0       0       0       0       0       0       0       
      +0       0       0       0       0       0       0       0
  3310 ;;      Temps:          0       0       0       0       0       0       0       0       0       0       0       0       
      +0       0       0       0       0       0       0       0
  3311 ;;      Totals:         4       0       0       0       0       0       0       0       0       0       0       0       
      +0       0       0       0       0       0       0       0
  3312 ;;Total ram usage:        4 bytes
  3313 ;; Hardware stack levels used:    1
  3314 ;; Hardware stack levels required when called:    3
  3315 ;; This function calls:
  3316 ;;		_clear_lcd
  3317 ;;		_i2c_Write_string
  3318 ;;		_i2c_first_line
  3319 ;;		_i2c_second_line
  3320 ;; This function is called by:
  3321 ;;		_main
  3322 ;;		_print_error
  3323 ;;		_testjig_done
  3324 ;; This function uses a non-reentrant model
  3325 ;;
  3326                           
  3327                           
  3328                           ;psect for function _print_screen
  3329  1FE9                     _print_screen:	
  3330                           
  3331                           ;newmain1.c: 3057: clear_lcd();
  3332                           
  3333                           ;incstack = 0
  3334                           ; Regs used in _print_screen: [wreg-fsr0h+status,2+status,0+pclath+cstack]
  3335  1FE9  3193  23ED  319F   	fcall	_clear_lcd
  3336                           
  3337                           ;newmain1.c: 3058: i2c_first_line();
  3338  1FEC  319F  27BB  319F   	fcall	_i2c_first_line
  3339                           
  3340                           ;newmain1.c: 3059: i2c_Write_string(top);
  3341  1FEF  0877               	movf	print_screen@top+1,w
  3342  1FF0  00F4               	movwf	i2c_Write_string@data+1
  3343  1FF1  0876               	movf	print_screen@top,w
  3344  1FF2  00F3               	movwf	i2c_Write_string@data
  3345  1FF3  3194  2460  319F   	fcall	_i2c_Write_string
  3346                           
  3347                           ;newmain1.c: 3060: i2c_second_line();
  3348  1FF6  319F  27D2  319F   	fcall	_i2c_second_line
  3349                           
  3350                           ;newmain1.c: 3061: i2c_Write_string(bottom);
  3351  1FF9  0879               	movf	print_screen@bottom+1,w
  3352  1FFA  00F4               	movwf	i2c_Write_string@data+1
  3353  1FFB  0878               	movf	print_screen@bottom,w
  3354  1FFC  00F3               	movwf	i2c_Write_string@data
  3355  1FFD  3194  2460         	fcall	_i2c_Write_string
  3356  1FFF  0008               	return
  3357  2000                     __end_of_print_screen:	
  3358                           
  3359                           	psect	text6
  3360  1FD2                     __ptext6:	
  3361 ;; *************** function _i2c_second_line *****************
  3362 ;; Defined at:
  3363 ;;		line 2681 in file "newmain1.c"
  3364 ;; Parameters:    Size  Location     Type
  3365 ;;		None
  3366 ;; Auto vars:     Size  Location     Type
  3367 ;;		None
  3368 ;; Return value:  Size  Location     Type
  3369 ;;		None               void
  3370 ;; Registers used:
  3371 ;;		wreg, status,2, status,0, pclath, cstack
  3372 ;; Tracked objects:
  3373 ;;		On entry : 0/0
  3374 ;;		On exit  : 0/0
  3375 ;;		Unchanged: 0/0
  3376 ;; Data sizes:     COMMON   BANK0   BANK1   BANK2   BANK3   BANK4   BANK5   BANK6   BANK7   BANK8   BANK9  BANK10  BANK1
      +1  BANK12  BANK13  BANK14  BANK15  BANK16  BANK17  BANK18
  3377 ;;      Params:         0       0       0       0       0       0       0       0       0       0       0       0       
      +0       0       0       0       0       0       0       0
  3378 ;;      Locals:         0       0       0       0       0       0       0       0       0       0       0       0       
      +0       0       0       0       0       0       0       0
  3379 ;;      Temps:          1       0       0       0       0       0       0       0       0       0       0       0       
      +0       0       0       0       0       0       0       0
  3380 ;;      Totals:         1       0       0       0       0       0       0       0       0       0       0       0       
      +0       0       0       0       0       0       0       0
  3381 ;;Total ram usage:        1 bytes
  3382 ;; Hardware stack levels used:    1
  3383 ;; Hardware stack levels required when called:    2
  3384 ;; This function calls:
  3385 ;;		_i2c_Start
  3386 ;;		_i2c_Stop
  3387 ;;		_i2c_Write
  3388 ;; This function is called by:
  3389 ;;		_print_error
  3390 ;;		_print_screen
  3391 ;; This function uses a non-reentrant model
  3392 ;;
  3393                           
  3394                           
  3395                           ;psect for function _i2c_second_line
  3396  1FD2                     _i2c_second_line:	
  3397                           
  3398                           ;newmain1.c: 2682: i2c_Start();
  3399                           
  3400                           ;incstack = 0
  3401                           ; Regs used in _i2c_second_line: [wreg+status,2+status,0+pclath+cstack]
  3402  1FD2  319F  272F  319F   	fcall	_i2c_Start
  3403                           
  3404                           ;newmain1.c: 2683: i2c_Write(0x7C);
  3405  1FD5  307C               	movlw	124
  3406  1FD6  319F  2760  319F   	fcall	_i2c_Write
  3407                           
  3408                           ;newmain1.c: 2684: i2c_Write(0x00);
  3409  1FD9  3000               	movlw	0
  3410  1FDA  319F  2760  319F   	fcall	_i2c_Write
  3411                           
  3412                           ;newmain1.c: 2685: i2c_Write(0xC0);
  3413  1FDD  30C0               	movlw	192
  3414  1FDE  319F  2760  319F   	fcall	_i2c_Write
  3415                           
  3416                           ;newmain1.c: 2686: _delay((unsigned long)((27)*(16000000/4000000.0)));
  3417  1FE1  3023               	movlw	35
  3418  1FE2  00F3               	movwf	??_i2c_second_line
  3419  1FE3                     u6797:	
  3420  1FE3  0BF3               	decfsz	??_i2c_second_line,f
  3421  1FE4  2FE3               	goto	u6797
  3422  1FE5  3200               	nop2	;nop
  3423                           
  3424                           ;newmain1.c: 2687: i2c_Stop();
  3425  1FE6  319F  2734         	fcall	_i2c_Stop
  3426  1FE8  0008               	return
  3427  1FE9                     __end_of_i2c_second_line:	
  3428                           
  3429                           	psect	text7
  3430  1FBB                     __ptext7:	
  3431 ;; *************** function _i2c_first_line *****************
  3432 ;; Defined at:
  3433 ;;		line 2672 in file "newmain1.c"
  3434 ;; Parameters:    Size  Location     Type
  3435 ;;		None
  3436 ;; Auto vars:     Size  Location     Type
  3437 ;;		None
  3438 ;; Return value:  Size  Location     Type
  3439 ;;		None               void
  3440 ;; Registers used:
  3441 ;;		wreg, status,2, status,0, pclath, cstack
  3442 ;; Tracked objects:
  3443 ;;		On entry : 0/0
  3444 ;;		On exit  : 0/0
  3445 ;;		Unchanged: 0/0
  3446 ;; Data sizes:     COMMON   BANK0   BANK1   BANK2   BANK3   BANK4   BANK5   BANK6   BANK7   BANK8   BANK9  BANK10  BANK1
      +1  BANK12  BANK13  BANK14  BANK15  BANK16  BANK17  BANK18
  3447 ;;      Params:         0       0       0       0       0       0       0       0       0       0       0       0       
      +0       0       0       0       0       0       0       0
  3448 ;;      Locals:         0       0       0       0       0       0       0       0       0       0       0       0       
      +0       0       0       0       0       0       0       0
  3449 ;;      Temps:          1       0       0       0       0       0       0       0       0       0       0       0       
      +0       0       0       0       0       0       0       0
  3450 ;;      Totals:         1       0       0       0       0       0       0       0       0       0       0       0       
      +0       0       0       0       0       0       0       0
  3451 ;;Total ram usage:        1 bytes
  3452 ;; Hardware stack levels used:    1
  3453 ;; Hardware stack levels required when called:    2
  3454 ;; This function calls:
  3455 ;;		_i2c_Start
  3456 ;;		_i2c_Stop
  3457 ;;		_i2c_Write
  3458 ;; This function is called by:
  3459 ;;		_print_error
  3460 ;;		_print_screen
  3461 ;; This function uses a non-reentrant model
  3462 ;;
  3463                           
  3464                           
  3465                           ;psect for function _i2c_first_line
  3466  1FBB                     _i2c_first_line:	
  3467                           
  3468                           ;newmain1.c: 2673: i2c_Start();
  3469                           
  3470                           ;incstack = 0
  3471                           ; Regs used in _i2c_first_line: [wreg+status,2+status,0+pclath+cstack]
  3472  1FBB  319F  272F  319F   	fcall	_i2c_Start
  3473                           
  3474                           ;newmain1.c: 2674: i2c_Write(0x7C);
  3475  1FBE  307C               	movlw	124
  3476  1FBF  319F  2760  319F   	fcall	_i2c_Write
  3477                           
  3478                           ;newmain1.c: 2675: i2c_Write(0x00);
  3479  1FC2  3000               	movlw	0
  3480  1FC3  319F  2760  319F   	fcall	_i2c_Write
  3481                           
  3482                           ;newmain1.c: 2676: i2c_Write(0x80);
  3483  1FC6  3080               	movlw	128
  3484  1FC7  319F  2760  319F   	fcall	_i2c_Write
  3485                           
  3486                           ;newmain1.c: 2677: _delay((unsigned long)((27)*(16000000/4000000.0)));
  3487  1FCA  3023               	movlw	35
  3488  1FCB  00F3               	movwf	??_i2c_first_line
  3489  1FCC                     u6807:	
  3490  1FCC  0BF3               	decfsz	??_i2c_first_line,f
  3491  1FCD  2FCC               	goto	u6807
  3492  1FCE  3200               	nop2	;nop
  3493                           
  3494                           ;newmain1.c: 2678: i2c_Stop();
  3495  1FCF  319F  2734         	fcall	_i2c_Stop
  3496  1FD1  0008               	return
  3497  1FD2                     __end_of_i2c_first_line:	
  3498                           
  3499                           	psect	text8
  3500  1460                     __ptext8:	
  3501 ;; *************** function _i2c_Write_string *****************
  3502 ;; Defined at:
  3503 ;;		line 2597 in file "newmain1.c"
  3504 ;; Parameters:    Size  Location     Type
  3505 ;;  data            2    3[COMMON] PTR const unsigned char 
  3506 ;;		 -> STR_158(17), STR_157(12), STR_156(14), STR_155(16), 
  3507 ;;		 -> STR_154(14), STR_153(16), STR_152(14), STR_151(12), 
  3508 ;;		 -> STR_150(14), STR_149(15), STR_148(8), STR_147(13), 
  3509 ;;		 -> STR_146(9), STR_145(16), STR_144(9), STR_143(5), 
  3510 ;;		 -> STR_142(9), STR_141(8), STR_140(17), STR_139(17), 
  3511 ;;		 -> STR_138(17), STR_137(17), STR_136(14), STR_135(10), 
  3512 ;;		 -> STR_134(14), STR_133(18), STR_132(14), STR_131(16), 
  3513 ;;		 -> STR_130(14), STR_129(9), STR_128(14), STR_127(12), 
  3514 ;;		 -> STR_126(1), STR_125(10), STR_124(13), STR_123(12), 
  3515 ;;		 -> STR_122(14), STR_121(12), STR_120(15), STR_119(11), 
  3516 ;;		 -> STR_118(16), STR_117(11), STR_116(1), STR_115(16), 
  3517 ;;		 -> STR_114(8), STR_113(9), STR_112(10), STR_111(8), 
  3518 ;;		 -> STR_110(14), STR_109(12), STR_108(14), STR_107(12), 
  3519 ;;		 -> STR_106(14), STR_105(12), STR_104(14), STR_103(12), 
  3520 ;;		 -> STR_102(14), STR_101(12), STR_100(14), STR_99(12), 
  3521 ;;		 -> STR_98(13), STR_97(12), STR_96(14), STR_95(12), 
  3522 ;;		 -> STR_94(14), STR_93(12), STR_92(14), STR_91(8), 
  3523 ;;		 -> STR_90(15), STR_89(6), STR_88(13), STR_87(8), 
  3524 ;;		 -> STR_86(16), STR_85(10), STR_84(16), STR_83(9), 
  3525 ;;		 -> STR_82(16), STR_81(14), STR_80(16), STR_79(13), 
  3526 ;;		 -> STR_78(10), STR_77(6), STR_76(10), STR_75(6), 
  3527 ;;		 -> STR_74(14), STR_73(6), STR_72(14), STR_71(6), 
  3528 ;;		 -> STR_70(12), STR_69(6), STR_68(9), STR_67(6), 
  3529 ;;		 -> STR_66(9), STR_65(6), STR_64(12), STR_63(6), 
  3530 ;;		 -> STR_62(16), STR_61(6), STR_60(14), STR_59(6), 
  3531 ;;		 -> STR_58(14), STR_57(6), STR_56(14), STR_55(6), 
  3532 ;;		 -> STR_54(14), STR_53(8), STR_52(6), STR_51(15), 
  3533 ;;		 -> STR_50(7), STR_49(15), STR_48(13), STR_47(15), 
  3534 ;;		 -> STR_46(8), STR_45(9), STR_44(9), STR_43(9), 
  3535 ;;		 -> STR_42(15), STR_41(11), STR_40(16), STR_39(11), 
  3536 ;;		 -> STR_38(8), STR_37(13), STR_36(9), STR_35(13), 
  3537 ;;		 -> STR_34(9), STR_33(12), STR_32(9), STR_31(11), 
  3538 ;;		 -> STR_30(8), STR_29(11), STR_28(1), STR_27(3), 
  3539 ;;		 -> STR_26(1), STR_25(13), STR_24(8), STR_23(15), 
  3540 ;;		 -> STR_22(1), STR_21(13), STR_20(9), STR_19(10), 
  3541 ;;		 -> STR_18(10), STR_17(10), STR_16(12), STR_15(6), 
  3542 ;;		 -> STR_14(2), STR_13(15), STR_12(22), STR_11(16), 
  3543 ;;		 -> STR_10(9), STR_9(6), STR_8(22), STR_7(16), 
  3544 ;;		 -> STR_6(17), STR_5(13), STR_4(1), STR_3(15), 
  3545 ;;		 -> STR_2(1), STR_1(14), 
  3546 ;; Auto vars:     Size  Location     Type
  3547 ;;		None
  3548 ;; Return value:  Size  Location     Type
  3549 ;;		None               void
  3550 ;; Registers used:
  3551 ;;		wreg, fsr0l, fsr0h, status,2, status,0, pclath, cstack
  3552 ;; Tracked objects:
  3553 ;;		On entry : 0/0
  3554 ;;		On exit  : 0/0
  3555 ;;		Unchanged: 0/0
  3556 ;; Data sizes:     COMMON   BANK0   BANK1   BANK2   BANK3   BANK4   BANK5   BANK6   BANK7   BANK8   BANK9  BANK10  BANK1
      +1  BANK12  BANK13  BANK14  BANK15  BANK16  BANK17  BANK18
  3557 ;;      Params:         2       0       0       0       0       0       0       0       0       0       0       0       
      +0       0       0       0       0       0       0       0
  3558 ;;      Locals:         0       0       0       0       0       0       0       0       0       0       0       0       
      +0       0       0       0       0       0       0       0
  3559 ;;      Temps:          1       0       0       0       0       0       0       0       0       0       0       0       
      +0       0       0       0       0       0       0       0
  3560 ;;      Totals:         3       0       0       0       0       0       0       0       0       0       0       0       
      +0       0       0       0       0       0       0       0
  3561 ;;Total ram usage:        3 bytes
  3562 ;; Hardware stack levels used:    1
  3563 ;; Hardware stack levels required when called:    2
  3564 ;; This function calls:
  3565 ;;		_i2c_Start
  3566 ;;		_i2c_Stop
  3567 ;;		_i2c_Write
  3568 ;; This function is called by:
  3569 ;;		_print_error
  3570 ;;		_print_screen
  3571 ;; This function uses a non-reentrant model
  3572 ;;
  3573                           
  3574                           
  3575                           ;psect for function _i2c_Write_string
  3576  1460                     _i2c_Write_string:	
  3577                           
  3578                           ;newmain1.c: 2598: i2c_Start();
  3579                           
  3580                           ;incstack = 0
  3581                           ; Regs used in _i2c_Write_string: [wreg-fsr0h+status,2+status,0+pclath+cstack]
  3582  1460  319F  272F  3194   	fcall	_i2c_Start
  3583                           
  3584                           ;newmain1.c: 2599: i2c_Write(0x7C);
  3585  1463  307C               	movlw	124
  3586  1464  319F  2760  3194   	fcall	_i2c_Write
  3587                           
  3588                           ;newmain1.c: 2600: i2c_Write(0x40);
  3589  1467  3040               	movlw	64
  3590  1468  319F  2760  3194   	fcall	_i2c_Write
  3591  146B                     l5268:	
  3592                           ;newmain1.c: 2602: while (*data != (0))
  3593                           
  3594  146B  0873               	movf	i2c_Write_string@data,w
  3595  146C  0084               	movwf	4
  3596  146D  0874               	movf	i2c_Write_string@data+1,w
  3597  146E  0085               	movwf	5
  3598  146F  0012               	moviw fsr0++
  3599  1470  1903               	btfsc	3,2
  3600  1471  2C7F               	goto	l5270
  3601                           
  3602                           ;newmain1.c: 2603: {
  3603                           ;newmain1.c: 2604: i2c_Write(*data);
  3604  1472  0873               	movf	i2c_Write_string@data,w
  3605  1473  0084               	movwf	4
  3606  1474  0874               	movf	i2c_Write_string@data+1,w
  3607  1475  0085               	movwf	5
  3608  1476  0800               	movf	0,w	;code access
  3609  1477  319F  2760  3194   	fcall	_i2c_Write
  3610                           
  3611                           ;newmain1.c: 2605: data++;
  3612  147A  3001               	movlw	1
  3613  147B  07F3               	addwf	i2c_Write_string@data,f
  3614  147C  3000               	movlw	0
  3615  147D  3DF4               	addwfc	i2c_Write_string@data+1,f
  3616  147E  2C6B               	goto	l5268
  3617  147F                     l5270:	
  3618                           
  3619                           ;newmain1.c: 2606: }
  3620                           ;newmain1.c: 2607: i2c_Stop();
  3621  147F  319F  2734         	fcall	_i2c_Stop
  3622  1481  0008               	return
  3623  1482                     __end_of_i2c_Write_string:	
  3624                           
  3625                           	psect	text9
  3626  13ED                     __ptext9:	
  3627 ;; *************** function _clear_lcd *****************
  3628 ;; Defined at:
  3629 ;;		line 2663 in file "newmain1.c"
  3630 ;; Parameters:    Size  Location     Type
  3631 ;;		None
  3632 ;; Auto vars:     Size  Location     Type
  3633 ;;		None
  3634 ;; Return value:  Size  Location     Type
  3635 ;;		None               void
  3636 ;; Registers used:
  3637 ;;		wreg, status,2, status,0, pclath, cstack
  3638 ;; Tracked objects:
  3639 ;;		On entry : 0/0
  3640 ;;		On exit  : 0/0
  3641 ;;		Unchanged: 0/0
  3642 ;; Data sizes:     COMMON   BANK0   BANK1   BANK2   BANK3   BANK4   BANK5   BANK6   BANK7   BANK8   BANK9  BANK10  BANK1
      +1  BANK12  BANK13  BANK14  BANK15  BANK16  BANK17  BANK18
  3643 ;;      Params:         0       0       0       0       0       0       0       0       0       0       0       0       
      +0       0       0       0       0       0       0       0
  3644 ;;      Locals:         0       0       0       0       0       0       0       0       0       0       0       0       
      +0       0       0       0       0       0       0       0
  3645 ;;      Temps:          2       0       0       0       0       0       0       0       0       0       0       0       
      +0       0       0       0       0       0       0       0
  3646 ;;      Totals:         2       0       0       0       0       0       0       0       0       0       0       0       
      +0       0       0       0       0       0       0       0
  3647 ;;Total ram usage:        2 bytes
  3648 ;; Hardware stack levels used:    1
  3649 ;; Hardware stack levels required when called:    2
  3650 ;; This function calls:
  3651 ;;		_i2c_Start
  3652 ;;		_i2c_Stop
  3653 ;;		_i2c_Write
  3654 ;; This function is called by:
  3655 ;;		_print_error
  3656 ;;		_print_screen
  3657 ;;		_lcd_createChar
  3658 ;; This function uses a non-reentrant model
  3659 ;;
  3660                           
  3661                           
  3662                           ;psect for function _clear_lcd
  3663  13ED                     _clear_lcd:	
  3664                           
  3665                           ;newmain1.c: 2664: i2c_Start();
  3666                           
  3667                           ;incstack = 0
  3668                           ; Regs used in _clear_lcd: [wreg+status,2+status,0+pclath+cstack]
  3669  13ED  319F  272F  3193   	fcall	_i2c_Start
  3670                           
  3671                           ;newmain1.c: 2665: i2c_Write(0x7C);
  3672  13F0  307C               	movlw	124
  3673  13F1  319F  2760  3193   	fcall	_i2c_Write
  3674                           
  3675                           ;newmain1.c: 2666: i2c_Write(0x00);
  3676  13F4  3000               	movlw	0
  3677  13F5  319F  2760  3193   	fcall	_i2c_Write
  3678                           
  3679                           ;newmain1.c: 2667: i2c_Write(0x01);
  3680  13F8  3001               	movlw	1
  3681  13F9  319F  2760  3193   	fcall	_i2c_Write
  3682                           
  3683                           ;newmain1.c: 2668: _delay((unsigned long)((2)*(16000000/4000.0)));
  3684  13FC  300B               	movlw	11
  3685  13FD  00F4               	movwf	??_clear_lcd+1
  3686  13FE  3062               	movlw	98
  3687  13FF  00F3               	movwf	??_clear_lcd
  3688  1400                     u6817:	
  3689  1400  0BF3               	decfsz	??_clear_lcd,f
  3690  1401  2C00               	goto	u6817
  3691  1402  0BF4               	decfsz	??_clear_lcd+1,f
  3692  1403  2C00               	goto	u6817
  3693  1404  0000               	nop
  3694                           
  3695                           ;newmain1.c: 2669: i2c_Stop();
  3696  1405  319F  2734         	fcall	_i2c_Stop
  3697  1407  0008               	return
  3698  1408                     __end_of_clear_lcd:	
  3699                           
  3700                           	psect	text10
  3701  14DA                     __ptext10:	
  3702 ;; *************** function _power_supply_set *****************
  3703 ;; Defined at:
  3704 ;;		line 3600 in file "newmain1.c"
  3705 ;; Parameters:    Size  Location     Type
  3706 ;;  supply          1    wreg     unsigned char 
  3707 ;; Auto vars:     Size  Location     Type
  3708 ;;  supply          1    2[COMMON] unsigned char 
  3709 ;; Return value:  Size  Location     Type
  3710 ;;		None               void
  3711 ;; Registers used:
  3712 ;;		wreg, fsr0l, fsr0h, status,2, status,0
  3713 ;; Tracked objects:
  3714 ;;		On entry : 0/0
  3715 ;;		On exit  : 0/0
  3716 ;;		Unchanged: 0/0
  3717 ;; Data sizes:     COMMON   BANK0   BANK1   BANK2   BANK3   BANK4   BANK5   BANK6   BANK7   BANK8   BANK9  BANK10  BANK1
      +1  BANK12  BANK13  BANK14  BANK15  BANK16  BANK17  BANK18
  3718 ;;      Params:         0       0       0       0       0       0       0       0       0       0       0       0       
      +0       0       0       0       0       0       0       0
  3719 ;;      Locals:         1       0       0       0       0       0       0       0       0       0       0       0       
      +0       0       0       0       0       0       0       0
  3720 ;;      Temps:          0       0       0       0       0       0       0       0       0       0       0       0       
      +0       0       0       0       0       0       0       0
  3721 ;;      Totals:         1       0       0       0       0       0       0       0       0       0       0       0       
      +0       0       0       0       0       0       0       0
  3722 ;;Total ram usage:        1 bytes
  3723 ;; Hardware stack levels used:    1
  3724 ;; Hardware stack levels required when called:    1
  3725 ;; This function calls:
  3726 ;;		Nothing
  3727 ;; This function is called by:
  3728 ;;		_main
  3729 ;;		_print_error
  3730 ;;		_testjig_done
  3731 ;;		_DUT_comms
  3732 ;; This function uses a non-reentrant model
  3733 ;;
  3734                           
  3735                           
  3736                           ;psect for function _power_supply_set
  3737  14DA                     _power_supply_set:	
  3738                           
  3739                           ;incstack = 0
  3740                           ; Regs used in _power_supply_set: [wreg-fsr0h+status,2+status,0]
  3741                           ;power_supply_set@supply stored from wreg
  3742  14DA  00F2               	movwf	power_supply_set@supply
  3743                           
  3744                           ;newmain1.c: 3602: switch (supply)
  3745  14DB  2D02               	goto	l3324
  3746  14DC                     l805:	
  3747                           ;newmain1.c: 3603: {
  3748                           ;newmain1.c: 3604: case 0:
  3749                           
  3750                           
  3751                           ;newmain1.c: 3606: LATD4 = 1;
  3752  14DC  0022               	movlb	2	; select bank2
  3753  14DD  160F               	bsf	15,4	;volatile
  3754                           
  3755                           ;newmain1.c: 3607: LATD5 = 1;
  3756  14DE  168F               	bsf	15,5	;volatile
  3757                           
  3758                           ;newmain1.c: 3612: break;
  3759  14DF  0008               	return
  3760  14E0                     l807:	
  3761                           ;newmain1.c: 3613: case 1:
  3762                           
  3763                           
  3764                           ;newmain1.c: 3614: LATA6 = 0;
  3765  14E0  0022               	movlb	2	; select bank2
  3766  14E1  130C               	bcf	12,6	;volatile
  3767                           
  3768                           ;newmain1.c: 3615: LATD4 = 1;
  3769  14E2  160F               	bsf	15,4	;volatile
  3770                           
  3771                           ;newmain1.c: 3616: LATD5 = 1;
  3772  14E3  168F               	bsf	15,5	;volatile
  3773                           
  3774                           ;newmain1.c: 3617: LATD6 = 0;
  3775  14E4  130F               	bcf	15,6	;volatile
  3776                           
  3777                           ;newmain1.c: 3618: LATD7 = 0;
  3778  14E5  138F               	bcf	15,7	;volatile
  3779                           
  3780                           ;newmain1.c: 3620: LATB5 = 0;
  3781  14E6  128D               	bcf	13,5	;volatile
  3782                           
  3783                           ;newmain1.c: 3621: break;
  3784  14E7  0008               	return
  3785  14E8                     l808:	
  3786                           ;newmain1.c: 3622: case 2:
  3787                           
  3788                           
  3789                           ;newmain1.c: 3623: LATA6 = 0;
  3790  14E8  0022               	movlb	2	; select bank2
  3791  14E9  130C               	bcf	12,6	;volatile
  3792                           
  3793                           ;newmain1.c: 3624: LATD4 = 0;
  3794  14EA  120F               	bcf	15,4	;volatile
  3795                           
  3796                           ;newmain1.c: 3625: LATD5 = 0;
  3797  14EB  128F               	bcf	15,5	;volatile
  3798                           
  3799                           ;newmain1.c: 3626: LATD6 = 0;
  3800  14EC  130F               	bcf	15,6	;volatile
  3801                           
  3802                           ;newmain1.c: 3627: LATD7 = 0;
  3803  14ED  138F               	bcf	15,7	;volatile
  3804                           
  3805                           ;newmain1.c: 3629: LATB5 = 0;
  3806  14EE  128D               	bcf	13,5	;volatile
  3807                           
  3808                           ;newmain1.c: 3630: break;
  3809  14EF  0008               	return
  3810  14F0                     l809:	
  3811                           ;newmain1.c: 3631: case 3:
  3812                           
  3813                           
  3814                           ;newmain1.c: 3632: LATA6 = 0;
  3815  14F0  0022               	movlb	2	; select bank2
  3816  14F1  130C               	bcf	12,6	;volatile
  3817                           
  3818                           ;newmain1.c: 3633: LATD4 = 0;
  3819  14F2  120F               	bcf	15,4	;volatile
  3820                           
  3821                           ;newmain1.c: 3634: LATD5 = 0;
  3822  14F3  128F               	bcf	15,5	;volatile
  3823                           
  3824                           ;newmain1.c: 3635: LATD6 = 0;
  3825  14F4  130F               	bcf	15,6	;volatile
  3826                           
  3827                           ;newmain1.c: 3636: LATD7 = 0;
  3828  14F5  138F               	bcf	15,7	;volatile
  3829                           
  3830                           ;newmain1.c: 3638: LATB5 = 0;
  3831  14F6  128D               	bcf	13,5	;volatile
  3832                           
  3833                           ;newmain1.c: 3639: break;
  3834  14F7  0008               	return
  3835  14F8                     l810:	
  3836                           ;newmain1.c: 3640: case 4:
  3837                           
  3838                           
  3839                           ;newmain1.c: 3641: LATA6 = 0;
  3840  14F8  0022               	movlb	2	; select bank2
  3841  14F9  130C               	bcf	12,6	;volatile
  3842                           
  3843                           ;newmain1.c: 3642: LATD4 = 0;
  3844  14FA  120F               	bcf	15,4	;volatile
  3845                           
  3846                           ;newmain1.c: 3643: LATD5 = 0;
  3847  14FB  128F               	bcf	15,5	;volatile
  3848                           
  3849                           ;newmain1.c: 3644: LATD6 = 0;
  3850  14FC  130F               	bcf	15,6	;volatile
  3851                           
  3852                           ;newmain1.c: 3645: LATD7 = 0;
  3853  14FD  138F               	bcf	15,7	;volatile
  3854                           
  3855                           ;newmain1.c: 3646: LATB4 = 0;
  3856  14FE  120D               	bcf	13,4	;volatile
  3857                           
  3858                           ;newmain1.c: 3647: LATB6 = 0;
  3859  14FF  130D               	bcf	13,6	;volatile
  3860                           
  3861                           ;newmain1.c: 3648: LATB5 = 0;
  3862  1500  128D               	bcf	13,5	;volatile
  3863                           
  3864                           ;newmain1.c: 3650: }
  3865                           
  3866                           ;newmain1.c: 3649: break;
  3867  1501  0008               	return
  3868  1502                     l3324:	
  3869  1502  0872               	movf	power_supply_set@supply,w
  3870                           
  3871                           ; Switch size 1, requested type "space"
  3872                           ; Number of cases is 5, Range of values is 0 to 4
  3873                           ; switch strategies available:
  3874                           ; Name         Instructions Cycles
  3875                           ; direct_byte           16     6 (fixed)
  3876                           ; simple_byte           16     9 (average)
  3877                           ; jumptable            260     6 (fixed)
  3878                           ;	Chosen strategy is direct_byte
  3879  1503  0084               	movwf	4
  3880  1504  3005               	movlw	5
  3881  1505  0204               	subwf	4,w
  3882  1506  1803               	skipnc
  3883  1507  0008               	return
  3884  1508  3198               	movlp	high S6720
  3885  1509  3504               	lslf	4,w
  3886  150A  3E20               	addlw	low S6720
  3887  150B  0082               	movwf	2
  3888  150C  0008               	return
  3889  150D                     __end_of_power_supply_set:	
  3890                           
  3891                           	psect	swtext2
  3892  1820                     __pswtext2:	
  3893  1820                     S6720:	
  3894  1820  3194  2CDC         	ljmp	l805
  3895  1822  3194  2CE0         	ljmp	l807
  3896  1824  3194  2CE8         	ljmp	l808
  3897  1826  3194  2CF0         	ljmp	l809
  3898  1828  3194  2CF8         	ljmp	l810
  3899                           
  3900                           	psect	text11
  3901  150D                     __ptext11:	
  3902 ;; *************** function _debug_fast_tx *****************
  3903 ;; Defined at:
  3904 ;;		line 3718 in file "newmain1.c"
  3905 ;; Parameters:    Size  Location     Type
  3906 ;;  data            2    2[COMMON] unsigned int 
  3907 ;; Auto vars:     Size  Location     Type
  3908 ;;  i               1    6[COMMON] unsigned char 
  3909 ;; Return value:  Size  Location     Type
  3910 ;;		None               void
  3911 ;; Registers used:
  3912 ;;		wreg, status,2, status,0
  3913 ;; Tracked objects:
  3914 ;;		On entry : 0/0
  3915 ;;		On exit  : 0/0
  3916 ;;		Unchanged: 0/0
  3917 ;; Data sizes:     COMMON   BANK0   BANK1   BANK2   BANK3   BANK4   BANK5   BANK6   BANK7   BANK8   BANK9  BANK10  BANK1
      +1  BANK12  BANK13  BANK14  BANK15  BANK16  BANK17  BANK18
  3918 ;;      Params:         2       0       0       0       0       0       0       0       0       0       0       0       
      +0       0       0       0       0       0       0       0
  3919 ;;      Locals:         1       0       0       0       0       0       0       0       0       0       0       0       
      +0       0       0       0       0       0       0       0
  3920 ;;      Temps:          2       0       0       0       0       0       0       0       0       0       0       0       
      +0       0       0       0       0       0       0       0
  3921 ;;      Totals:         5       0       0       0       0       0       0       0       0       0       0       0       
      +0       0       0       0       0       0       0       0
  3922 ;;Total ram usage:        5 bytes
  3923 ;; Hardware stack levels used:    1
  3924 ;; Hardware stack levels required when called:    1
  3925 ;; This function calls:
  3926 ;;		Nothing
  3927 ;; This function is called by:
  3928 ;;		_main
  3929 ;;		_print_error
  3930 ;;		_testjig_done
  3931 ;; This function uses a non-reentrant model
  3932 ;;
  3933                           
  3934                           
  3935                           ;psect for function _debug_fast_tx
  3936  150D                     _debug_fast_tx:	
  3937                           
  3938                           ;newmain1.c: 3719: GIE = 0;
  3939                           
  3940                           ;incstack = 0
  3941                           ; Regs used in _debug_fast_tx: [wreg+status,2+status,0]
  3942  150D  138B               	bcf	11,7	;volatile
  3943                           
  3944                           ;newmain1.c: 3720: LATD2 = 0;
  3945  150E  0022               	movlb	2	; select bank2
  3946  150F  110F               	bcf	15,2	;volatile
  3947                           
  3948                           ;newmain1.c: 3726: __nop();
  3949  1510  0000               	nop
  3950                           
  3951                           ;newmain1.c: 3727: __nop();
  3952  1511  0000               	nop
  3953                           
  3954                           ;newmain1.c: 3728: __nop();
  3955  1512  0000               	nop
  3956                           
  3957                           ;newmain1.c: 3729: __nop();
  3958  1513  0000               	nop
  3959                           
  3960                           ;newmain1.c: 3730: __nop();
  3961  1514  0000               	nop
  3962                           
  3963                           ;newmain1.c: 3731: __nop();
  3964  1515  0000               	nop
  3965                           
  3966                           ;newmain1.c: 3732: __nop();
  3967  1516  0000               	nop
  3968                           
  3969                           ;newmain1.c: 3733: __nop();
  3970  1517  0000               	nop
  3971                           
  3972                           ;newmain1.c: 3734: __nop();
  3973  1518  0000               	nop
  3974                           
  3975                           ;newmain1.c: 3735: unsigned char i;
  3976                           ;newmain1.c: 3736: for (i = 0; i < 16; i++) {
  3977  1519  01F6               	clrf	debug_fast_tx@i
  3978  151A  3010               	movlw	16
  3979  151B  0276               	subwf	debug_fast_tx@i,w
  3980  151C  1803               	btfsc	3,0
  3981  151D  2D37               	goto	l834
  3982  151E                     l833:	
  3983                           
  3984                           ;newmain1.c: 3737: LATD2 = data & 0x01;
  3985  151E  1C72               	btfss	debug_fast_tx@data,0
  3986  151F  2D23               	goto	u2460
  3987  1520  0022               	movlb	2	; select bank2
  3988  1521  150F               	bsf	15,2	;volatile
  3989  1522  2D25               	goto	l3344
  3990  1523                     u2460:	
  3991  1523  0022               	movlb	2	; select bank2
  3992  1524  110F               	bcf	15,2	;volatile
  3993  1525                     l3344:	
  3994                           
  3995                           ;newmain1.c: 3738: data = data >> 1;
  3996  1525  0873               	movf	debug_fast_tx@data+1,w
  3997  1526  00F5               	movwf	??_debug_fast_tx+1
  3998  1527  0872               	movf	debug_fast_tx@data,w
  3999  1528  00F4               	movwf	??_debug_fast_tx
  4000  1529  36F5               	lsrf	??_debug_fast_tx+1,f
  4001  152A  0CF4               	rrf	??_debug_fast_tx,f
  4002  152B  0874               	movf	??_debug_fast_tx,w
  4003  152C  00F2               	movwf	debug_fast_tx@data
  4004  152D  0875               	movf	??_debug_fast_tx+1,w
  4005  152E  00F3               	movwf	debug_fast_tx@data+1
  4006  152F  3001               	movlw	1
  4007  1530  00F4               	movwf	??_debug_fast_tx
  4008  1531  0874               	movf	??_debug_fast_tx,w
  4009  1532  07F6               	addwf	debug_fast_tx@i,f
  4010  1533  3010               	movlw	16
  4011  1534  0276               	subwf	debug_fast_tx@i,w
  4012  1535  1C03               	skipc
  4013  1536  2D1E               	goto	l833
  4014  1537                     l834:	
  4015                           
  4016                           ;newmain1.c: 3739: }
  4017                           ;newmain1.c: 3740: __nop();
  4018  1537  0000               	nop
  4019                           
  4020                           ;newmain1.c: 3741: __nop();
  4021  1538  0000               	nop
  4022                           
  4023                           ;newmain1.c: 3742: __nop();
  4024  1539  0000               	nop
  4025                           
  4026                           ;newmain1.c: 3743: __nop();
  4027  153A  0000               	nop
  4028                           
  4029                           ;newmain1.c: 3744: __nop();
  4030  153B  0000               	nop
  4031                           
  4032                           ;newmain1.c: 3745: __nop();
  4033  153C  0000               	nop
  4034                           
  4035                           ;newmain1.c: 3746: LATD2 = 1;
  4036  153D  0022               	movlb	2	; select bank2
  4037  153E  150F               	bsf	15,2	;volatile
  4038                           
  4039                           ;newmain1.c: 3747: __nop();
  4040  153F  0000               	nop
  4041                           
  4042                           ;newmain1.c: 3748: __nop();
  4043  1540  0000               	nop
  4044                           
  4045                           ;newmain1.c: 3749: __nop();
  4046  1541  0000               	nop
  4047                           
  4048                           ;newmain1.c: 3750: __nop();
  4049  1542  0000               	nop
  4050                           
  4051                           ;newmain1.c: 3751: __nop();
  4052  1543  0000               	nop
  4053                           
  4054                           ;newmain1.c: 3752: __nop();
  4055  1544  0000               	nop
  4056                           
  4057                           ;newmain1.c: 3753: __nop();
  4058  1545  0000               	nop
  4059                           
  4060                           ;newmain1.c: 3754: __nop();
  4061  1546  0000               	nop
  4062                           
  4063                           ;newmain1.c: 3755: GIE = 1;
  4064  1547  178B               	bsf	11,7	;volatile
  4065  1548  0008               	return
  4066  1549                     __end_of_debug_fast_tx:	
  4067                           
  4068                           	psect	text12
  4069  07FF                     __ptext12:	
  4070 ;; *************** function _buzz_one *****************
  4071 ;; Defined at:
  4072 ;;		line 2565 in file "newmain1.c"
  4073 ;; Parameters:    Size  Location     Type
  4074 ;;  time            2    2[COMMON] unsigned int 
  4075 ;; Auto vars:     Size  Location     Type
  4076 ;;		None
  4077 ;; Return value:  Size  Location     Type
  4078 ;;		None               void
  4079 ;; Registers used:
  4080 ;;		None
  4081 ;; Tracked objects:
  4082 ;;		On entry : 0/0
  4083 ;;		On exit  : 0/0
  4084 ;;		Unchanged: 0/0
  4085 ;; Data sizes:     COMMON   BANK0   BANK1   BANK2   BANK3   BANK4   BANK5   BANK6   BANK7   BANK8   BANK9  BANK10  BANK1
      +1  BANK12  BANK13  BANK14  BANK15  BANK16  BANK17  BANK18
  4086 ;;      Params:         2       0       0       0       0       0       0       0       0       0       0       0       
      +0       0       0       0       0       0       0       0
  4087 ;;      Locals:         0       0       0       0       0       0       0       0       0       0       0       0       
      +0       0       0       0       0       0       0       0
  4088 ;;      Temps:          0       0       0       0       0       0       0       0       0       0       0       0       
      +0       0       0       0       0       0       0       0
  4089 ;;      Totals:         2       0       0       0       0       0       0       0       0       0       0       0       
      +0       0       0       0       0       0       0       0
  4090 ;;Total ram usage:        2 bytes
  4091 ;; Hardware stack levels used:    1
  4092 ;; Hardware stack levels required when called:    1
  4093 ;; This function calls:
  4094 ;;		Nothing
  4095 ;; This function is called by:
  4096 ;;		_main
  4097 ;;		_print_error
  4098 ;;		_testjig_done
  4099 ;; This function uses a non-reentrant model
  4100 ;;
  4101                           
  4102                           
  4103                           ;psect for function _buzz_one
  4104  07FF                     _buzz_one:	
  4105                           
  4106                           ;incstack = 0
  4107                           ; Regs used in _buzz_one: []
  4108  07FF  0008               	return
  4109  0800                     __end_of_buzz_one:	
  4110                           
  4111                           	psect	text13
  4112  1441                     __ptext13:	
  4113 ;; *************** function _manage_read_byte *****************
  4114 ;; Defined at:
  4115 ;;		line 460 in file "newmain1.c"
  4116 ;; Parameters:    Size  Location     Type
  4117 ;;  timeout_enab    1    wreg     unsigned char 
  4118 ;; Auto vars:     Size  Location     Type
  4119 ;;  timeout_enab    1    2[COMMON] unsigned char 
  4120 ;; Return value:  Size  Location     Type
  4121 ;;                  1    wreg      unsigned char 
  4122 ;; Registers used:
  4123 ;;		wreg, status,2, status,0
  4124 ;; Tracked objects:
  4125 ;;		On entry : 0/0
  4126 ;;		On exit  : 0/0
  4127 ;;		Unchanged: 0/0
  4128 ;; Data sizes:     COMMON   BANK0   BANK1   BANK2   BANK3   BANK4   BANK5   BANK6   BANK7   BANK8   BANK9  BANK10  BANK1
      +1  BANK12  BANK13  BANK14  BANK15  BANK16  BANK17  BANK18
  4129 ;;      Params:         0       0       0       0       0       0       0       0       0       0       0       0       
      +0       0       0       0       0       0       0       0
  4130 ;;      Locals:         1       0       0       0       0       0       0       0       0       0       0       0       
      +0       0       0       0       0       0       0       0
  4131 ;;      Temps:          0       0       0       0       0       0       0       0       0       0       0       0       
      +0       0       0       0       0       0       0       0
  4132 ;;      Totals:         1       0       0       0       0       0       0       0       0       0       0       0       
      +0       0       0       0       0       0       0       0
  4133 ;;Total ram usage:        1 bytes
  4134 ;; Hardware stack levels used:    1
  4135 ;; Hardware stack levels required when called:    1
  4136 ;; This function calls:
  4137 ;;		Nothing
  4138 ;; This function is called by:
  4139 ;;		_receive_data_bytes
  4140 ;; This function uses a non-reentrant model
  4141 ;;
  4142                           
  4143                           
  4144                           ;psect for function _manage_read_byte
  4145  1441                     _manage_read_byte:	
  4146                           
  4147                           ;incstack = 0
  4148                           ; Regs used in _manage_read_byte: [wreg+status,2+status,0]
  4149                           ;manage_read_byte@timeout_enable stored from wreg
  4150  1441  00F2               	movwf	manage_read_byte@timeout_enable
  4151                           
  4152                           ;newmain1.c: 462: usart_fault_flag = 0;
  4153  1442  107A               	bcf	_usart_fault_flag/(0+8),_usart_fault_flag& (0+7)	;volatile
  4154  1443                     l344:	
  4155                           ;newmain1.c: 464: while(!RC2IF)
  4156                           
  4157  1443  0020               	movlb	0	; select bank0
  4158  1444  1A94               	btfsc	20,5	;volatile
  4159  1445  2C56               	goto	l349
  4160                           
  4161                           ;newmain1.c: 465: {
  4162                           ;newmain1.c: 466: if(timeout_enable == 0)
  4163  1446  0872               	movf	manage_read_byte@timeout_enable,w
  4164  1447  1D03               	btfss	3,2
  4165  1448  2C4E               	goto	l3418
  4166                           
  4167                           ;newmain1.c: 467: {
  4168                           ;newmain1.c: 468: usart_timer = 30;
  4169  1449  301E               	movlw	30
  4170  144A  0020               	movlb	0	; select bank0
  4171  144B  00DF               	movwf	_usart_timer	;volatile
  4172  144C  3000               	movlw	0
  4173  144D  00E0               	movwf	_usart_timer+1	;volatile
  4174  144E                     l3418:	
  4175                           
  4176                           ;newmain1.c: 469: }
  4177                           ;newmain1.c: 471: if(usart_timer == 0)
  4178  144E  0020               	movlb	0	; select bank0
  4179  144F  085F               	movf	_usart_timer,w	;volatile
  4180  1450  0460               	iorwf	_usart_timer+1,w	;volatile
  4181  1451  1D03               	btfss	3,2
  4182  1452  2C43               	goto	l344
  4183                           
  4184                           ;newmain1.c: 472: {
  4185                           ;newmain1.c: 473: usart_fault_flag = 1;
  4186  1453  147A               	bsf	_usart_fault_flag/(0+8),_usart_fault_flag& (0+7)	;volatile
  4187                           
  4188                           ;newmain1.c: 474: return 0;
  4189  1454  3000               	movlw	0
  4190  1455  0008               	return
  4191  1456                     l349:	
  4192                           
  4193                           ;newmain1.c: 475: }
  4194                           ;newmain1.c: 482: }
  4195                           ;newmain1.c: 484: if(1 == RC2STAbits.OERR)
  4196  1456  0029               	movlb	9	; select bank9
  4197  1457  1C95               	btfss	21,1	;volatile
  4198  1458  2C5E               	goto	l3432
  4199                           
  4200                           ;newmain1.c: 485: {
  4201                           ;newmain1.c: 488: RC2STAbits.SPEN = 0;
  4202  1459  1395               	bcf	21,7	;volatile
  4203                           
  4204                           ;newmain1.c: 489: RC2STAbits.SPEN = 1;
  4205  145A  1795               	bsf	21,7	;volatile
  4206                           
  4207                           ;newmain1.c: 490: usart_fault_flag = 1;
  4208  145B  147A               	bsf	_usart_fault_flag/(0+8),_usart_fault_flag& (0+7)	;volatile
  4209                           
  4210                           ;newmain1.c: 491: return 0;
  4211  145C  3000               	movlw	0
  4212  145D  0008               	return
  4213  145E                     l3432:	
  4214                           
  4215                           ;newmain1.c: 492: }
  4216                           ;newmain1.c: 494: return RC2REG;
  4217  145E  0811               	movf	17,w	;volatile
  4218  145F  0008               	return
  4219  1460                     __end_of_manage_read_byte:	
  4220                           
  4221                           	psect	text14
  4222  0773                     __ptext14:	
  4223 ;; *************** function _lcd_print_int *****************
  4224 ;; Defined at:
  4225 ;;		line 3261 in file "newmain1.c"
  4226 ;; Parameters:    Size  Location     Type
  4227 ;;  number          2    6[BANK0 ] unsigned int 
  4228 ;;  pos             2    8[BANK0 ] unsigned int 
  4229 ;;  decimal         1   10[BANK0 ] unsigned char 
  4230 ;;  ten_thou_dig    1   11[BANK0 ] unsigned char 
  4231 ;; Auto vars:     Size  Location     Type
  4232 ;;		None
  4233 ;; Return value:  Size  Location     Type
  4234 ;;		None               void
  4235 ;; Registers used:
  4236 ;;		wreg, status,2, status,0, pclath, cstack
  4237 ;; Tracked objects:
  4238 ;;		On entry : 0/0
  4239 ;;		On exit  : 0/0
  4240 ;;		Unchanged: 0/0
  4241 ;; Data sizes:     COMMON   BANK0   BANK1   BANK2   BANK3   BANK4   BANK5   BANK6   BANK7   BANK8   BANK9  BANK10  BANK1
      +1  BANK12  BANK13  BANK14  BANK15  BANK16  BANK17  BANK18
  4242 ;;      Params:         0       6       0       0       0       0       0       0       0       0       0       0       
      +0       0       0       0       0       0       0       0
  4243 ;;      Locals:         0       0       0       0       0       0       0       0       0       0       0       0       
      +0       0       0       0       0       0       0       0
  4244 ;;      Temps:          0       1       0       0       0       0       0       0       0       0       0       0       
      +0       0       0       0       0       0       0       0
  4245 ;;      Totals:         0       7       0       0       0       0       0       0       0       0       0       0       
      +0       0       0       0       0       0       0       0
  4246 ;;Total ram usage:        7 bytes
  4247 ;; Hardware stack levels used:    1
  4248 ;; Hardware stack levels required when called:    3
  4249 ;; This function calls:
  4250 ;;		_i2c_write_char
  4251 ;;		_lcd_set_cursor
  4252 ;;		_ten_thou_conv
  4253 ;; This function is called by:
  4254 ;;		_main
  4255 ;;		_DUT_comms
  4256 ;;		_uart_receive_four
  4257 ;; This function uses a non-reentrant model
  4258 ;;
  4259                           
  4260                           
  4261                           ;psect for function _lcd_print_int
  4262  0773                     _lcd_print_int:	
  4263                           
  4264                           ;newmain1.c: 3263: lcd_set_cursor(2, pos + 1 - ten_thou_digit);
  4265                           
  4266                           ;incstack = 0
  4267                           ; Regs used in _lcd_print_int: [wreg+status,2+status,0+pclath+cstack]
  4268  0773  0020               	movlb	0	; select bank0
  4269  0774  032B               	decf	lcd_print_int@ten_thou_digit,w
  4270  0775  3AFF               	xorlw	255
  4271  0776  0728               	addwf	lcd_print_int@pos,w
  4272  0777  3E01               	addlw	1
  4273  0778  00AC               	movwf	??_lcd_print_int
  4274  0779  082C               	movf	??_lcd_print_int,w
  4275  077A  00F3               	movwf	lcd_set_cursor@col
  4276  077B  3002               	movlw	2
  4277  077C  3194  2482  3187   	fcall	_lcd_set_cursor
  4278                           
  4279                           ;newmain1.c: 3264: ten_thou_conv(number);
  4280  077F  0020               	movlb	0	; select bank0
  4281  0780  0827               	movf	lcd_print_int@number+1,w
  4282  0781  00F9               	movwf	ten_thou_conv@n+1
  4283  0782  0826               	movf	lcd_print_int@number,w
  4284  0783  00F8               	movwf	ten_thou_conv@n
  4285  0784  3181  2103  3187   	fcall	_ten_thou_conv
  4286                           
  4287                           ;newmain1.c: 3265: if (ten_thou_digit)
  4288  0787  0020               	movlb	0	; select bank0
  4289  0788  082B               	movf	lcd_print_int@ten_thou_digit,w
  4290  0789  1903               	btfsc	3,2
  4291  078A  2F97               	goto	l5572
  4292                           
  4293                           ;newmain1.c: 3266: {
  4294                           ;newmain1.c: 3267: if (ten_thou != 0 || decimal & 0x10)
  4295  078B  087B               	movf	_ten_thou,w
  4296  078C  1D03               	btfss	3,2
  4297  078D  2F90               	goto	l5568
  4298  078E  1E2A               	btfss	lcd_print_int@decimal,4
  4299  078F  2F93               	goto	l5570
  4300  0790                     l5568:	
  4301                           
  4302                           ;newmain1.c: 3268: i2c_write_char(ten_thou + 48);
  4303  0790  087B               	movf	_ten_thou,w
  4304  0791  3E30               	addlw	48
  4305  0792  2F94               	goto	L17
  4306  0793                     l5570:	
  4307                           
  4308                           ;newmain1.c: 3269: else i2c_write_char(' ');
  4309  0793  3020               	movlw	32
  4310  0794                     L17:	
  4311  0794  319F  277E  3187   	fcall	_i2c_write_char
  4312  0797                     l5572:	
  4313                           
  4314                           ;newmain1.c: 3270: }
  4315                           ;newmain1.c: 3271: if (decimal & 0x10)i2c_write_char('.');
  4316  0797  0020               	movlb	0	; select bank0
  4317  0798  1E2A               	btfss	lcd_print_int@decimal,4
  4318  0799  2F9E               	goto	l5576
  4319  079A  302E               	movlw	46
  4320  079B  319F  277E  3187   	fcall	_i2c_write_char
  4321  079E                     l5576:	
  4322                           
  4323                           ;newmain1.c: 3272: if (thou != 0 || ten_thou != 0 || decimal & 0x18)
  4324  079E  0020               	movlb	0	; select bank0
  4325  079F  086B               	movf	_thou,w
  4326  07A0  1D03               	btfss	3,2
  4327  07A1  2FA9               	goto	l5582
  4328  07A2  087B               	movf	_ten_thou,w
  4329  07A3  1D03               	btfss	3,2
  4330  07A4  2FA9               	goto	l5582
  4331  07A5  082A               	movf	lcd_print_int@decimal,w
  4332  07A6  3918               	andlw	24
  4333  07A7  1903               	btfsc	3,2
  4334  07A8  2FAC               	goto	l5584
  4335  07A9                     l5582:	
  4336                           
  4337                           ;newmain1.c: 3273: i2c_write_char(thou + 48);
  4338  07A9  086B               	movf	_thou,w
  4339  07AA  3E30               	addlw	48
  4340  07AB  2FAD               	goto	L18
  4341  07AC                     l5584:	
  4342                           
  4343                           ;newmain1.c: 3274: else i2c_write_char(' ');
  4344  07AC  3020               	movlw	32
  4345  07AD                     L18:	
  4346  07AD  319F  277E  3187   	fcall	_i2c_write_char
  4347                           
  4348                           ;newmain1.c: 3275: if (decimal & 0x08)i2c_write_char('.');
  4349  07B0  0020               	movlb	0	; select bank0
  4350  07B1  1DAA               	btfss	lcd_print_int@decimal,3
  4351  07B2  2FB7               	goto	l5590
  4352  07B3  302E               	movlw	46
  4353  07B4  319F  277E  3187   	fcall	_i2c_write_char
  4354  07B7                     l5590:	
  4355                           
  4356                           ;newmain1.c: 3276: if (hund != 0 || thou != 0 || ten_thou != 0 || decimal & 0x1C)
  4357  07B7  0020               	movlb	0	; select bank0
  4358  07B8  0869               	movf	_hund,w
  4359  07B9  1D03               	btfss	3,2
  4360  07BA  2FC5               	goto	l5598
  4361  07BB  086B               	movf	_thou,w
  4362  07BC  1D03               	btfss	3,2
  4363  07BD  2FC5               	goto	l5598
  4364  07BE  087B               	movf	_ten_thou,w
  4365  07BF  1D03               	btfss	3,2
  4366  07C0  2FC5               	goto	l5598
  4367  07C1  082A               	movf	lcd_print_int@decimal,w
  4368  07C2  391C               	andlw	28
  4369  07C3  1903               	btfsc	3,2
  4370  07C4  2FC8               	goto	l5600
  4371  07C5                     l5598:	
  4372                           
  4373                           ;newmain1.c: 3277: i2c_write_char(hund + 48);
  4374  07C5  0869               	movf	_hund,w
  4375  07C6  3E30               	addlw	48
  4376  07C7  2FC9               	goto	L19
  4377  07C8                     l5600:	
  4378                           
  4379                           ;newmain1.c: 3278: else i2c_write_char(' ');
  4380  07C8  3020               	movlw	32
  4381  07C9                     L19:	
  4382  07C9  319F  277E  3187   	fcall	_i2c_write_char
  4383                           
  4384                           ;newmain1.c: 3279: if (decimal & 0x04)i2c_write_char('.');
  4385  07CC  0020               	movlb	0	; select bank0
  4386  07CD  1D2A               	btfss	lcd_print_int@decimal,2
  4387  07CE  2FD3               	goto	l5606
  4388  07CF  302E               	movlw	46
  4389  07D0  319F  277E  3187   	fcall	_i2c_write_char
  4390  07D3                     l5606:	
  4391                           
  4392                           ;newmain1.c: 3280: if (ten != 0 || hund != 0 || thou != 0 || ten_thou != 0 || decimal & 
      +                          0x1E)
  4393  07D3  0020               	movlb	0	; select bank0
  4394  07D4  086A               	movf	_ten,w
  4395  07D5  1D03               	btfss	3,2
  4396  07D6  2FE4               	goto	l5616
  4397  07D7  0869               	movf	_hund,w
  4398  07D8  1D03               	btfss	3,2
  4399  07D9  2FE4               	goto	l5616
  4400  07DA  086B               	movf	_thou,w
  4401  07DB  1D03               	btfss	3,2
  4402  07DC  2FE4               	goto	l5616
  4403  07DD  087B               	movf	_ten_thou,w
  4404  07DE  1D03               	btfss	3,2
  4405  07DF  2FE4               	goto	l5616
  4406  07E0  082A               	movf	lcd_print_int@decimal,w
  4407  07E1  391E               	andlw	30
  4408  07E2  1903               	btfsc	3,2
  4409  07E3  2FE7               	goto	l5618
  4410  07E4                     l5616:	
  4411                           
  4412                           ;newmain1.c: 3281: i2c_write_char(ten + 48);
  4413  07E4  086A               	movf	_ten,w
  4414  07E5  3E30               	addlw	48
  4415  07E6  2FE8               	goto	L20
  4416  07E7                     l5618:	
  4417                           
  4418                           ;newmain1.c: 3282: else i2c_write_char(' ');
  4419  07E7  3020               	movlw	32
  4420  07E8                     L20:	
  4421  07E8  319F  277E  3187   	fcall	_i2c_write_char
  4422                           
  4423                           ;newmain1.c: 3283: if (decimal & 0x02)i2c_write_char('.');
  4424  07EB  0020               	movlb	0	; select bank0
  4425  07EC  1CAA               	btfss	lcd_print_int@decimal,1
  4426  07ED  2FF2               	goto	l696
  4427  07EE  302E               	movlw	46
  4428  07EF  319F  277E  3187   	fcall	_i2c_write_char
  4429  07F2                     l696:	
  4430                           
  4431                           ;newmain1.c: 3284: i2c_write_char(unit + 48);
  4432  07F2  0020               	movlb	0	; select bank0
  4433  07F3  086C               	movf	_unit,w
  4434  07F4  3E30               	addlw	48
  4435  07F5  319F  277E         	fcall	_i2c_write_char
  4436  07F7  0008               	return
  4437  07F8                     __end_of_lcd_print_int:	
  4438                           
  4439                           	psect	text15
  4440  0103                     __ptext15:	
  4441 ;; *************** function _ten_thou_conv *****************
  4442 ;; Defined at:
  4443 ;;		line 2945 in file "newmain1.c"
  4444 ;; Parameters:    Size  Location     Type
  4445 ;;  n               2    8[COMMON] int 
  4446 ;; Auto vars:     Size  Location     Type
  4447 ;;		None
  4448 ;; Return value:  Size  Location     Type
  4449 ;;		None               void
  4450 ;; Registers used:
  4451 ;;		wreg, status,2, status,0, pclath, cstack
  4452 ;; Tracked objects:
  4453 ;;		On entry : 0/0
  4454 ;;		On exit  : 0/0
  4455 ;;		Unchanged: 0/0
  4456 ;; Data sizes:     COMMON   BANK0   BANK1   BANK2   BANK3   BANK4   BANK5   BANK6   BANK7   BANK8   BANK9  BANK10  BANK1
      +1  BANK12  BANK13  BANK14  BANK15  BANK16  BANK17  BANK18
  4457 ;;      Params:         2       0       0       0       0       0       0       0       0       0       0       0       
      +0       0       0       0       0       0       0       0
  4458 ;;      Locals:         0       0       0       0       0       0       0       0       0       0       0       0       
      +0       0       0       0       0       0       0       0
  4459 ;;      Temps:          0       6       0       0       0       0       0       0       0       0       0       0       
      +0       0       0       0       0       0       0       0
  4460 ;;      Totals:         2       6       0       0       0       0       0       0       0       0       0       0       
      +0       0       0       0       0       0       0       0
  4461 ;;Total ram usage:        8 bytes
  4462 ;; Hardware stack levels used:    1
  4463 ;; Hardware stack levels required when called:    2
  4464 ;; This function calls:
  4465 ;;		___bmul
  4466 ;;		___wmul
  4467 ;; This function is called by:
  4468 ;;		_lcd_print_int
  4469 ;; This function uses a non-reentrant model
  4470 ;;
  4471                           
  4472                           
  4473                           ;psect for function _ten_thou_conv
  4474  0103                     _ten_thou_conv:	
  4475                           
  4476                           ;newmain1.c: 2947: unit = n & 0x1F;
  4477                           
  4478                           ;incstack = 0
  4479                           ; Regs used in _ten_thou_conv: [wreg+status,2+status,0+pclath+cstack]
  4480  0103  0878               	movf	ten_thou_conv@n,w
  4481  0104  391F               	andlw	31
  4482  0105  0020               	movlb	0	; select bank0
  4483  0106  00A0               	movwf	??_ten_thou_conv
  4484  0107  0820               	movf	??_ten_thou_conv,w
  4485  0108  00EC               	movwf	_unit
  4486                           
  4487                           ;newmain1.c: 2948: ten = (n >> 5) & 0xF;
  4488  0109  0879               	movf	ten_thou_conv@n+1,w
  4489  010A  00A1               	movwf	??_ten_thou_conv+1
  4490  010B  0878               	movf	ten_thou_conv@n,w
  4491  010C  00A0               	movwf	??_ten_thou_conv
  4492  010D  3005               	movlw	5
  4493  010E  00A2               	movwf	??_ten_thou_conv+2
  4494  010F                     u2745:	
  4495  010F  0D21               	rlf	??_ten_thou_conv+1,w
  4496  0110  0CA1               	rrf	??_ten_thou_conv+1,f
  4497  0111  0CA0               	rrf	??_ten_thou_conv,f
  4498  0112  0BA2               	decfsz	??_ten_thou_conv+2,f
  4499  0113  290F               	goto	u2745
  4500  0114  0820               	movf	??_ten_thou_conv,w
  4501  0115  390F               	andlw	15
  4502  0116  00A3               	movwf	??_ten_thou_conv+3
  4503  0117  0823               	movf	??_ten_thou_conv+3,w
  4504  0118  00EA               	movwf	_ten
  4505                           
  4506                           ;newmain1.c: 2949: hund = (n >> 9) & 0xF;
  4507  0119  0879               	movf	ten_thou_conv@n+1,w
  4508  011A  00A1               	movwf	??_ten_thou_conv+1
  4509  011B  0878               	movf	ten_thou_conv@n,w
  4510  011C  00A0               	movwf	??_ten_thou_conv
  4511  011D  3009               	movlw	9
  4512  011E  00A2               	movwf	??_ten_thou_conv+2
  4513  011F                     u2755:	
  4514  011F  0D21               	rlf	??_ten_thou_conv+1,w
  4515  0120  0CA1               	rrf	??_ten_thou_conv+1,f
  4516  0121  0CA0               	rrf	??_ten_thou_conv,f
  4517  0122  0BA2               	decfsz	??_ten_thou_conv+2,f
  4518  0123  291F               	goto	u2755
  4519  0124  0820               	movf	??_ten_thou_conv,w
  4520  0125  390F               	andlw	15
  4521  0126  00A3               	movwf	??_ten_thou_conv+3
  4522  0127  0823               	movf	??_ten_thou_conv+3,w
  4523  0128  00E9               	movwf	_hund
  4524                           
  4525                           ;newmain1.c: 2950: thou = (n >> 13) & 0x7;
  4526  0129  0879               	movf	ten_thou_conv@n+1,w
  4527  012A  00A1               	movwf	??_ten_thou_conv+1
  4528  012B  0878               	movf	ten_thou_conv@n,w
  4529  012C  00A0               	movwf	??_ten_thou_conv
  4530  012D  300D               	movlw	13
  4531  012E  00A2               	movwf	??_ten_thou_conv+2
  4532  012F                     u2765:	
  4533  012F  0D21               	rlf	??_ten_thou_conv+1,w
  4534  0130  0CA1               	rrf	??_ten_thou_conv+1,f
  4535  0131  0CA0               	rrf	??_ten_thou_conv,f
  4536  0132  0BA2               	decfsz	??_ten_thou_conv+2,f
  4537  0133  292F               	goto	u2765
  4538  0134  0820               	movf	??_ten_thou_conv,w
  4539  0135  3907               	andlw	7
  4540  0136  00A3               	movwf	??_ten_thou_conv+3
  4541  0137  0823               	movf	??_ten_thou_conv+3,w
  4542  0138  00EB               	movwf	_thou
  4543                           
  4544                           ;newmain1.c: 2952: unit = 2 * (thou + hund + ten) + unit;
  4545  0139  086B               	movf	_thou,w
  4546  013A  0769               	addwf	_hund,w
  4547  013B  076A               	addwf	_ten,w
  4548  013C  0709               	addwf	9,w
  4549  013D  076C               	addwf	_unit,w
  4550  013E  00A0               	movwf	??_ten_thou_conv
  4551  013F  0820               	movf	??_ten_thou_conv,w
  4552  0140  00EC               	movwf	_unit
  4553                           
  4554                           ;newmain1.c: 2953: ten_thou = (unit * 0x67) >> 10;
  4555  0141  086C               	movf	_unit,w
  4556  0142  00A0               	movwf	??_ten_thou_conv
  4557  0143  01A1               	clrf	??_ten_thou_conv+1
  4558  0144  0820               	movf	??_ten_thou_conv,w
  4559  0145  00F2               	movwf	___wmul@multiplier
  4560  0146  0821               	movf	??_ten_thou_conv+1,w
  4561  0147  00F3               	movwf	___wmul@multiplier+1
  4562  0148  3067               	movlw	103
  4563  0149  00F4               	movwf	___wmul@multiplicand
  4564  014A  3000               	movlw	0
  4565  014B  00F5               	movwf	___wmul@multiplicand+1
  4566  014C  3193  23D2  3181   	fcall	___wmul
  4567  014F  0872               	movf	?___wmul,w
  4568  0150  0020               	movlb	0	; select bank0
  4569  0151  00A2               	movwf	??_ten_thou_conv+2
  4570  0152  0873               	movf	?___wmul+1,w
  4571  0153  00A3               	movwf	??_ten_thou_conv+3
  4572  0154  300A               	movlw	10
  4573  0155  00A4               	movwf	??_ten_thou_conv+4
  4574  0156                     u2775:	
  4575  0156  0D23               	rlf	??_ten_thou_conv+3,w
  4576  0157  0CA3               	rrf	??_ten_thou_conv+3,f
  4577  0158  0CA2               	rrf	??_ten_thou_conv+2,f
  4578  0159  0BA4               	decfsz	??_ten_thou_conv+4,f
  4579  015A  2956               	goto	u2775
  4580  015B  0822               	movf	??_ten_thou_conv+2,w
  4581  015C  00A5               	movwf	??_ten_thou_conv+5
  4582  015D  0825               	movf	??_ten_thou_conv+5,w
  4583  015E  00FB               	movwf	_ten_thou
  4584                           
  4585                           ;newmain1.c: 2954: unit = unit - 10 * ten_thou;
  4586  015F  300A               	movlw	10
  4587  0160  00A0               	movwf	??_ten_thou_conv
  4588  0161  0820               	movf	??_ten_thou_conv,w
  4589  0162  00F2               	movwf	___bmul@multiplicand
  4590  0163  087B               	movf	_ten_thou,w
  4591  0164  319F  276D  3181   	fcall	___bmul
  4592  0167  3AFF               	xorlw	255
  4593  0168  3E01               	addlw	1
  4594  0169  0020               	movlb	0	; select bank0
  4595  016A  076C               	addwf	_unit,w
  4596  016B  00A1               	movwf	??_ten_thou_conv+1
  4597  016C  0821               	movf	??_ten_thou_conv+1,w
  4598  016D  00EC               	movwf	_unit
  4599                           
  4600                           ;newmain1.c: 2956: ten = 9 * thou + hund + 3 * ten + ten_thou;
  4601  016E  3003               	movlw	3
  4602  016F  00A0               	movwf	??_ten_thou_conv
  4603  0170  0820               	movf	??_ten_thou_conv,w
  4604  0171  00F2               	movwf	___bmul@multiplicand
  4605  0172  086A               	movf	_ten,w
  4606  0173  319F  276D  3181   	fcall	___bmul
  4607  0176  0020               	movlb	0	; select bank0
  4608  0177  00A1               	movwf	??_ten_thou_conv+1
  4609  0178  3009               	movlw	9
  4610  0179  00A2               	movwf	??_ten_thou_conv+2
  4611  017A  0822               	movf	??_ten_thou_conv+2,w
  4612  017B  00F2               	movwf	___bmul@multiplicand
  4613  017C  086B               	movf	_thou,w
  4614  017D  319F  276D  3181   	fcall	___bmul
  4615  0180  0020               	movlb	0	; select bank0
  4616  0181  0721               	addwf	??_ten_thou_conv+1,w
  4617  0182  0769               	addwf	_hund,w
  4618  0183  077B               	addwf	_ten_thou,w
  4619  0184  00A3               	movwf	??_ten_thou_conv+3
  4620  0185  0823               	movf	??_ten_thou_conv+3,w
  4621  0186  00EA               	movwf	_ten
  4622                           
  4623                           ;newmain1.c: 2957: ten_thou = (ten * 0x67) >> 10;
  4624  0187  086A               	movf	_ten,w
  4625  0188  00A0               	movwf	??_ten_thou_conv
  4626  0189  01A1               	clrf	??_ten_thou_conv+1
  4627  018A  0820               	movf	??_ten_thou_conv,w
  4628  018B  00F2               	movwf	___wmul@multiplier
  4629  018C  0821               	movf	??_ten_thou_conv+1,w
  4630  018D  00F3               	movwf	___wmul@multiplier+1
  4631  018E  3067               	movlw	103
  4632  018F  00F4               	movwf	___wmul@multiplicand
  4633  0190  3000               	movlw	0
  4634  0191  00F5               	movwf	___wmul@multiplicand+1
  4635  0192  3193  23D2  3181   	fcall	___wmul
  4636  0195  0872               	movf	?___wmul,w
  4637  0196  0020               	movlb	0	; select bank0
  4638  0197  00A2               	movwf	??_ten_thou_conv+2
  4639  0198  0873               	movf	?___wmul+1,w
  4640  0199  00A3               	movwf	??_ten_thou_conv+3
  4641  019A  300A               	movlw	10
  4642  019B  00A4               	movwf	??_ten_thou_conv+4
  4643  019C                     u2785:	
  4644  019C  0D23               	rlf	??_ten_thou_conv+3,w
  4645  019D  0CA3               	rrf	??_ten_thou_conv+3,f
  4646  019E  0CA2               	rrf	??_ten_thou_conv+2,f
  4647  019F  0BA4               	decfsz	??_ten_thou_conv+4,f
  4648  01A0  299C               	goto	u2785
  4649  01A1  0822               	movf	??_ten_thou_conv+2,w
  4650  01A2  00A5               	movwf	??_ten_thou_conv+5
  4651  01A3  0825               	movf	??_ten_thou_conv+5,w
  4652  01A4  00FB               	movwf	_ten_thou
  4653                           
  4654                           ;newmain1.c: 2958: ten = ten - 10 * ten_thou;
  4655  01A5  300A               	movlw	10
  4656  01A6  00A0               	movwf	??_ten_thou_conv
  4657  01A7  0820               	movf	??_ten_thou_conv,w
  4658  01A8  00F2               	movwf	___bmul@multiplicand
  4659  01A9  087B               	movf	_ten_thou,w
  4660  01AA  319F  276D  3181   	fcall	___bmul
  4661  01AD  3AFF               	xorlw	255
  4662  01AE  3E01               	addlw	1
  4663  01AF  0020               	movlb	0	; select bank0
  4664  01B0  076A               	addwf	_ten,w
  4665  01B1  00A1               	movwf	??_ten_thou_conv+1
  4666  01B2  0821               	movf	??_ten_thou_conv+1,w
  4667  01B3  00EA               	movwf	_ten
  4668                           
  4669                           ;newmain1.c: 2960: hund = thou + 5 * hund + ten_thou;
  4670  01B4  3005               	movlw	5
  4671  01B5  00A0               	movwf	??_ten_thou_conv
  4672  01B6  0820               	movf	??_ten_thou_conv,w
  4673  01B7  00F2               	movwf	___bmul@multiplicand
  4674  01B8  0869               	movf	_hund,w
  4675  01B9  319F  276D  3181   	fcall	___bmul
  4676  01BC  0020               	movlb	0	; select bank0
  4677  01BD  076B               	addwf	_thou,w
  4678  01BE  077B               	addwf	_ten_thou,w
  4679  01BF  00A1               	movwf	??_ten_thou_conv+1
  4680  01C0  0821               	movf	??_ten_thou_conv+1,w
  4681  01C1  00E9               	movwf	_hund
  4682                           
  4683                           ;newmain1.c: 2961: ten_thou = (hund * 0x67) >> 10;
  4684  01C2  0869               	movf	_hund,w
  4685  01C3  00A0               	movwf	??_ten_thou_conv
  4686  01C4  01A1               	clrf	??_ten_thou_conv+1
  4687  01C5  0820               	movf	??_ten_thou_conv,w
  4688  01C6  00F2               	movwf	___wmul@multiplier
  4689  01C7  0821               	movf	??_ten_thou_conv+1,w
  4690  01C8  00F3               	movwf	___wmul@multiplier+1
  4691  01C9  3067               	movlw	103
  4692  01CA  00F4               	movwf	___wmul@multiplicand
  4693  01CB  3000               	movlw	0
  4694  01CC  00F5               	movwf	___wmul@multiplicand+1
  4695  01CD  3193  23D2  3181   	fcall	___wmul
  4696  01D0  0872               	movf	?___wmul,w
  4697  01D1  0020               	movlb	0	; select bank0
  4698  01D2  00A2               	movwf	??_ten_thou_conv+2
  4699  01D3  0873               	movf	?___wmul+1,w
  4700  01D4  00A3               	movwf	??_ten_thou_conv+3
  4701  01D5  300A               	movlw	10
  4702  01D6  00A4               	movwf	??_ten_thou_conv+4
  4703  01D7                     u2795:	
  4704  01D7  0D23               	rlf	??_ten_thou_conv+3,w
  4705  01D8  0CA3               	rrf	??_ten_thou_conv+3,f
  4706  01D9  0CA2               	rrf	??_ten_thou_conv+2,f
  4707  01DA  0BA4               	decfsz	??_ten_thou_conv+4,f
  4708  01DB  29D7               	goto	u2795
  4709  01DC  0822               	movf	??_ten_thou_conv+2,w
  4710  01DD  00A5               	movwf	??_ten_thou_conv+5
  4711  01DE  0825               	movf	??_ten_thou_conv+5,w
  4712  01DF  00FB               	movwf	_ten_thou
  4713                           
  4714                           ;newmain1.c: 2962: hund = hund - 10 * ten_thou;
  4715  01E0  300A               	movlw	10
  4716  01E1  00A0               	movwf	??_ten_thou_conv
  4717  01E2  0820               	movf	??_ten_thou_conv,w
  4718  01E3  00F2               	movwf	___bmul@multiplicand
  4719  01E4  087B               	movf	_ten_thou,w
  4720  01E5  319F  276D  3181   	fcall	___bmul
  4721  01E8  3AFF               	xorlw	255
  4722  01E9  3E01               	addlw	1
  4723  01EA  0020               	movlb	0	; select bank0
  4724  01EB  0769               	addwf	_hund,w
  4725  01EC  00A1               	movwf	??_ten_thou_conv+1
  4726  01ED  0821               	movf	??_ten_thou_conv+1,w
  4727  01EE  00E9               	movwf	_hund
  4728                           
  4729                           ;newmain1.c: 2964: thou = 8 * thou + ten_thou;
  4730  01EF  086B               	movf	_thou,w
  4731  01F0  00A0               	movwf	??_ten_thou_conv
  4732  01F1  3002               	movlw	2
  4733  01F2                     u2805:	
  4734  01F2  35A0               	lslf	??_ten_thou_conv,f
  4735  01F3  3EFF               	addlw	-1
  4736  01F4  1D03               	skipz
  4737  01F5  29F2               	goto	u2805
  4738  01F6  3520               	lslf	??_ten_thou_conv,w
  4739  01F7  077B               	addwf	_ten_thou,w
  4740  01F8  00A1               	movwf	??_ten_thou_conv+1
  4741  01F9  0821               	movf	??_ten_thou_conv+1,w
  4742  01FA  00EB               	movwf	_thou
  4743                           
  4744                           ;newmain1.c: 2965: ten_thou = (thou * 0x1A) >> 8;
  4745  01FB  086B               	movf	_thou,w
  4746  01FC  00A0               	movwf	??_ten_thou_conv
  4747  01FD  01A1               	clrf	??_ten_thou_conv+1
  4748  01FE  0820               	movf	??_ten_thou_conv,w
  4749  01FF  00F2               	movwf	___wmul@multiplier
  4750  0200  0821               	movf	??_ten_thou_conv+1,w
  4751  0201  00F3               	movwf	___wmul@multiplier+1
  4752  0202  301A               	movlw	26
  4753  0203  00F4               	movwf	___wmul@multiplicand
  4754  0204  3000               	movlw	0
  4755  0205  00F5               	movwf	___wmul@multiplicand+1
  4756  0206  3193  23D2  3181   	fcall	___wmul
  4757  0209  0873               	movf	?___wmul+1,w
  4758  020A  0020               	movlb	0	; select bank0
  4759  020B  00A2               	movwf	??_ten_thou_conv+2
  4760  020C  0822               	movf	??_ten_thou_conv+2,w
  4761  020D  00FB               	movwf	_ten_thou
  4762                           
  4763                           ;newmain1.c: 2966: thou = thou - 10 * ten_thou;
  4764  020E  300A               	movlw	10
  4765  020F  00A0               	movwf	??_ten_thou_conv
  4766  0210  0820               	movf	??_ten_thou_conv,w
  4767  0211  00F2               	movwf	___bmul@multiplicand
  4768  0212  087B               	movf	_ten_thou,w
  4769  0213  319F  276D         	fcall	___bmul
  4770  0215  3AFF               	xorlw	255
  4771  0216  3E01               	addlw	1
  4772  0217  0020               	movlb	0	; select bank0
  4773  0218  076B               	addwf	_thou,w
  4774  0219  00A1               	movwf	??_ten_thou_conv+1
  4775  021A  0821               	movf	??_ten_thou_conv+1,w
  4776  021B  00EB               	movwf	_thou
  4777  021C  0008               	return
  4778  021D                     __end_of_ten_thou_conv:	
  4779                           
  4780                           	psect	text16
  4781  13D2                     __ptext16:	
  4782 ;; *************** function ___wmul *****************
  4783 ;; Defined at:
  4784 ;;		line 15 in file "C:\Program Files (x86)\Microchip\xc8\v1.35\sources\common\Umul16.c"
  4785 ;; Parameters:    Size  Location     Type
  4786 ;;  multiplier      2    2[COMMON] unsigned int 
  4787 ;;  multiplicand    2    4[COMMON] unsigned int 
  4788 ;; Auto vars:     Size  Location     Type
  4789 ;;  product         2    6[COMMON] unsigned int 
  4790 ;; Return value:  Size  Location     Type
  4791 ;;                  2    2[COMMON] unsigned int 
  4792 ;; Registers used:
  4793 ;;		wreg, status,2, status,0
  4794 ;; Tracked objects:
  4795 ;;		On entry : 0/0
  4796 ;;		On exit  : 0/0
  4797 ;;		Unchanged: 0/0
  4798 ;; Data sizes:     COMMON   BANK0   BANK1   BANK2   BANK3   BANK4   BANK5   BANK6   BANK7   BANK8   BANK9  BANK10  BANK1
      +1  BANK12  BANK13  BANK14  BANK15  BANK16  BANK17  BANK18
  4799 ;;      Params:         4       0       0       0       0       0       0       0       0       0       0       0       
      +0       0       0       0       0       0       0       0
  4800 ;;      Locals:         2       0       0       0       0       0       0       0       0       0       0       0       
      +0       0       0       0       0       0       0       0
  4801 ;;      Temps:          0       0       0       0       0       0       0       0       0       0       0       0       
      +0       0       0       0       0       0       0       0
  4802 ;;      Totals:         6       0       0       0       0       0       0       0       0       0       0       0       
      +0       0       0       0       0       0       0       0
  4803 ;;Total ram usage:        6 bytes
  4804 ;; Hardware stack levels used:    1
  4805 ;; Hardware stack levels required when called:    1
  4806 ;; This function calls:
  4807 ;;		Nothing
  4808 ;; This function is called by:
  4809 ;;		_ten_thou_conv
  4810 ;;		_hund_conv
  4811 ;;		_DUT_comms
  4812 ;;		_DUT_voltage_check
  4813 ;;		_ADC_to_voltage
  4814 ;;		_ADC_to_mv
  4815 ;;		_ADC_to_mv_DUT
  4816 ;; This function uses a non-reentrant model
  4817 ;;
  4818                           
  4819                           
  4820                           ;psect for function ___wmul
  4821  13D2                     ___wmul:	
  4822                           
  4823                           ;incstack = 0
  4824                           ; Regs used in ___wmul: [wreg+status,2+status,0]
  4825  13D2  01F6               	clrf	___wmul@product
  4826  13D3  01F7               	clrf	___wmul@product+1
  4827  13D4                     l3350:	
  4828  13D4  1C72               	btfss	___wmul@multiplier,0
  4829  13D5  2BDA               	goto	l866
  4830  13D6  0874               	movf	___wmul@multiplicand,w
  4831  13D7  07F6               	addwf	___wmul@product,f
  4832  13D8  0875               	movf	___wmul@multiplicand+1,w
  4833  13D9  3DF7               	addwfc	___wmul@product+1,f
  4834  13DA                     l866:	
  4835  13DA  3001               	movlw	1
  4836  13DB                     u2505:	
  4837  13DB  35F4               	lslf	___wmul@multiplicand,f
  4838  13DC  0DF5               	rlf	___wmul@multiplicand+1,f
  4839  13DD  0B89               	decfsz	9,f
  4840  13DE  2BDB               	goto	u2505
  4841  13DF  3001               	movlw	1
  4842  13E0                     u2515:	
  4843  13E0  36F3               	lsrf	___wmul@multiplier+1,f
  4844  13E1  0CF2               	rrf	___wmul@multiplier,f
  4845  13E2  0B89               	decfsz	9,f
  4846  13E3  2BE0               	goto	u2515
  4847  13E4  0872               	movf	___wmul@multiplier,w
  4848  13E5  0473               	iorwf	___wmul@multiplier+1,w
  4849  13E6  1D03               	btfss	3,2
  4850  13E7  2BD4               	goto	l3350
  4851  13E8  0877               	movf	___wmul@product+1,w
  4852  13E9  00F3               	movwf	?___wmul+1
  4853  13EA  0876               	movf	___wmul@product,w
  4854  13EB  00F2               	movwf	?___wmul
  4855  13EC  0008               	return
  4856  13ED                     __end_of___wmul:	
  4857                           
  4858                           	psect	text17
  4859  1F6D                     __ptext17:	
  4860 ;; *************** function ___bmul *****************
  4861 ;; Defined at:
  4862 ;;		line 4 in file "C:\Program Files (x86)\Microchip\xc8\v1.35\sources\common\Umul8.c"
  4863 ;; Parameters:    Size  Location     Type
  4864 ;;  multiplier      1    wreg     unsigned char 
  4865 ;;  multiplicand    1    2[COMMON] unsigned char 
  4866 ;; Auto vars:     Size  Location     Type
  4867 ;;  multiplier      1    5[COMMON] unsigned char 
  4868 ;;  product         1    4[COMMON] unsigned char 
  4869 ;; Return value:  Size  Location     Type
  4870 ;;                  1    wreg      unsigned char 
  4871 ;; Registers used:
  4872 ;;		wreg, status,2, status,0
  4873 ;; Tracked objects:
  4874 ;;		On entry : 0/0
  4875 ;;		On exit  : 0/0
  4876 ;;		Unchanged: 0/0
  4877 ;; Data sizes:     COMMON   BANK0   BANK1   BANK2   BANK3   BANK4   BANK5   BANK6   BANK7   BANK8   BANK9  BANK10  BANK1
      +1  BANK12  BANK13  BANK14  BANK15  BANK16  BANK17  BANK18
  4878 ;;      Params:         1       0       0       0       0       0       0       0       0       0       0       0       
      +0       0       0       0       0       0       0       0
  4879 ;;      Locals:         2       0       0       0       0       0       0       0       0       0       0       0       
      +0       0       0       0       0       0       0       0
  4880 ;;      Temps:          1       0       0       0       0       0       0       0       0       0       0       0       
      +0       0       0       0       0       0       0       0
  4881 ;;      Totals:         4       0       0       0       0       0       0       0       0       0       0       0       
      +0       0       0       0       0       0       0       0
  4882 ;;Total ram usage:        4 bytes
  4883 ;; Hardware stack levels used:    1
  4884 ;; Hardware stack levels required when called:    1
  4885 ;; This function calls:
  4886 ;;		Nothing
  4887 ;; This function is called by:
  4888 ;;		_ten_thou_conv
  4889 ;;		_hund_conv
  4890 ;; This function uses a non-reentrant model
  4891 ;;
  4892                           
  4893                           
  4894                           ;psect for function ___bmul
  4895  1F6D                     ___bmul:	
  4896                           
  4897                           ;incstack = 0
  4898                           ; Regs used in ___bmul: [wreg+status,2+status,0]
  4899                           ;___bmul@multiplier stored from wreg
  4900  1F6D  00F5               	movwf	___bmul@multiplier
  4901  1F6E  01F4               	clrf	___bmul@product
  4902  1F6F                     l3364:	
  4903  1F6F  1C75               	btfss	___bmul@multiplier,0
  4904  1F70  2F75               	goto	l3368
  4905  1F71  0872               	movf	___bmul@multiplicand,w
  4906  1F72  00F3               	movwf	??___bmul
  4907  1F73  0873               	movf	??___bmul,w
  4908  1F74  07F4               	addwf	___bmul@product,f
  4909  1F75                     l3368:	
  4910  1F75  1003               	clrc
  4911  1F76  0DF2               	rlf	___bmul@multiplicand,f
  4912  1F77  1003               	clrc
  4913  1F78  0CF5               	rrf	___bmul@multiplier,f
  4914  1F79  0875               	movf	___bmul@multiplier,w
  4915  1F7A  1D03               	btfss	3,2
  4916  1F7B  2F6F               	goto	l3364
  4917  1F7C  0874               	movf	___bmul@product,w
  4918  1F7D  0008               	return
  4919  1F7E                     __end_of___bmul:	
  4920                           
  4921                           	psect	text18
  4922  1482                     __ptext18:	
  4923 ;; *************** function _lcd_set_cursor *****************
  4924 ;; Defined at:
  4925 ;;		line 2690 in file "newmain1.c"
  4926 ;; Parameters:    Size  Location     Type
  4927 ;;  row             1    wreg     unsigned char 
  4928 ;;  col             1    3[COMMON] unsigned char 
  4929 ;; Auto vars:     Size  Location     Type
  4930 ;;  row             1    5[COMMON] unsigned char 
  4931 ;;  LCD_position    1    6[COMMON] unsigned char 
  4932 ;; Return value:  Size  Location     Type
  4933 ;;		None               void
  4934 ;; Registers used:
  4935 ;;		wreg, status,2, status,0, pclath, cstack
  4936 ;; Tracked objects:
  4937 ;;		On entry : 0/0
  4938 ;;		On exit  : 0/0
  4939 ;;		Unchanged: 0/0
  4940 ;; Data sizes:     COMMON   BANK0   BANK1   BANK2   BANK3   BANK4   BANK5   BANK6   BANK7   BANK8   BANK9  BANK10  BANK1
      +1  BANK12  BANK13  BANK14  BANK15  BANK16  BANK17  BANK18
  4941 ;;      Params:         1       0       0       0       0       0       0       0       0       0       0       0       
      +0       0       0       0       0       0       0       0
  4942 ;;      Locals:         2       0       0       0       0       0       0       0       0       0       0       0       
      +0       0       0       0       0       0       0       0
  4943 ;;      Temps:          1       0       0       0       0       0       0       0       0       0       0       0       
      +0       0       0       0       0       0       0       0
  4944 ;;      Totals:         4       0       0       0       0       0       0       0       0       0       0       0       
      +0       0       0       0       0       0       0       0
  4945 ;;Total ram usage:        4 bytes
  4946 ;; Hardware stack levels used:    1
  4947 ;; Hardware stack levels required when called:    2
  4948 ;; This function calls:
  4949 ;;		_i2c_Start
  4950 ;;		_i2c_Stop
  4951 ;;		_i2c_Write
  4952 ;; This function is called by:
  4953 ;;		_lcd_print_int
  4954 ;; This function uses a non-reentrant model
  4955 ;;
  4956                           
  4957                           
  4958                           ;psect for function _lcd_set_cursor
  4959  1482                     _lcd_set_cursor:	
  4960                           
  4961                           ;incstack = 0
  4962                           ; Regs used in _lcd_set_cursor: [wreg+status,2+status,0+pclath+cstack]
  4963                           ;lcd_set_cursor@row stored from wreg
  4964  1482  00F5               	movwf	lcd_set_cursor@row
  4965                           
  4966                           ;newmain1.c: 2692: unsigned char LCD_position = 1;
  4967  1483  01F6               	clrf	lcd_set_cursor@LCD_position
  4968  1484  0AF6               	incf	lcd_set_cursor@LCD_position,f
  4969                           
  4970                           ;newmain1.c: 2693: col--;
  4971  1485  3001               	movlw	1
  4972  1486  02F3               	subwf	lcd_set_cursor@col,f
  4973                           
  4974                           ;newmain1.c: 2694: i2c_Start();
  4975  1487  319F  272F  3194   	fcall	_i2c_Start
  4976                           
  4977                           ;newmain1.c: 2695: i2c_Write(0x7C);
  4978  148A  307C               	movlw	124
  4979  148B  319F  2760  3194   	fcall	_i2c_Write
  4980                           
  4981                           ;newmain1.c: 2696: i2c_Write(0x00);
  4982  148E  3000               	movlw	0
  4983  148F  319F  2760  3194   	fcall	_i2c_Write
  4984                           
  4985                           ;newmain1.c: 2697: LCD_position = col & 0b11001111;
  4986  1492  0873               	movf	lcd_set_cursor@col,w
  4987  1493  39CF               	andlw	207
  4988  1494  00F4               	movwf	??_lcd_set_cursor
  4989  1495  0874               	movf	??_lcd_set_cursor,w
  4990  1496  00F6               	movwf	lcd_set_cursor@LCD_position
  4991                           
  4992                           ;newmain1.c: 2698: if (row == 1)
  4993  1497  0375               	decf	lcd_set_cursor@row,w
  4994  1498  1D03               	btfss	3,2
  4995  1499  2C9C               	goto	l5360
  4996                           
  4997                           ;newmain1.c: 2699: LCD_position |= 0b10000000;
  4998  149A  17F6               	bsf	lcd_set_cursor@LCD_position,7
  4999  149B  2CA0               	goto	l5362
  5000  149C                     l5360:	
  5001                           
  5002                           ;newmain1.c: 2700: else
  5003                           ;newmain1.c: 2701: LCD_position |= 0b11000000;
  5004  149C  30C0               	movlw	192
  5005  149D  00F4               	movwf	??_lcd_set_cursor
  5006  149E  0874               	movf	??_lcd_set_cursor,w
  5007  149F  04F6               	iorwf	lcd_set_cursor@LCD_position,f
  5008  14A0                     l5362:	
  5009                           
  5010                           ;newmain1.c: 2702: i2c_Write(LCD_position);
  5011  14A0  0876               	movf	lcd_set_cursor@LCD_position,w
  5012  14A1  319F  2760  3194   	fcall	_i2c_Write
  5013                           
  5014                           ;newmain1.c: 2703: i2c_Stop();
  5015  14A4  319F  2734         	fcall	_i2c_Stop
  5016  14A6  0008               	return
  5017  14A7                     __end_of_lcd_set_cursor:	
  5018                           
  5019                           	psect	text19
  5020  1F7E                     __ptext19:	
  5021 ;; *************** function _i2c_write_char *****************
  5022 ;; Defined at:
  5023 ;;		line 2610 in file "newmain1.c"
  5024 ;; Parameters:    Size  Location     Type
  5025 ;;  char_data       1    wreg     unsigned char 
  5026 ;; Auto vars:     Size  Location     Type
  5027 ;;  char_data       1    3[COMMON] unsigned char 
  5028 ;; Return value:  Size  Location     Type
  5029 ;;		None               void
  5030 ;; Registers used:
  5031 ;;		wreg, status,2, status,0, pclath, cstack
  5032 ;; Tracked objects:
  5033 ;;		On entry : 0/0
  5034 ;;		On exit  : 0/0
  5035 ;;		Unchanged: 0/0
  5036 ;; Data sizes:     COMMON   BANK0   BANK1   BANK2   BANK3   BANK4   BANK5   BANK6   BANK7   BANK8   BANK9  BANK10  BANK1
      +1  BANK12  BANK13  BANK14  BANK15  BANK16  BANK17  BANK18
  5037 ;;      Params:         0       0       0       0       0       0       0       0       0       0       0       0       
      +0       0       0       0       0       0       0       0
  5038 ;;      Locals:         1       0       0       0       0       0       0       0       0       0       0       0       
      +0       0       0       0       0       0       0       0
  5039 ;;      Temps:          0       0       0       0       0       0       0       0       0       0       0       0       
      +0       0       0       0       0       0       0       0
  5040 ;;      Totals:         1       0       0       0       0       0       0       0       0       0       0       0       
      +0       0       0       0       0       0       0       0
  5041 ;;Total ram usage:        1 bytes
  5042 ;; Hardware stack levels used:    1
  5043 ;; Hardware stack levels required when called:    2
  5044 ;; This function calls:
  5045 ;;		_i2c_Start
  5046 ;;		_i2c_Stop
  5047 ;;		_i2c_Write
  5048 ;; This function is called by:
  5049 ;;		_lcd_print_int
  5050 ;;		_lcd_print_bar
  5051 ;;		_lcd_createChar
  5052 ;; This function uses a non-reentrant model
  5053 ;;
  5054                           
  5055                           
  5056                           ;psect for function _i2c_write_char
  5057  1F7E                     _i2c_write_char:	
  5058                           
  5059                           ;incstack = 0
  5060                           ; Regs used in _i2c_write_char: [wreg+status,2+status,0+pclath+cstack]
  5061                           ;i2c_write_char@char_data stored from wreg
  5062  1F7E  00F3               	movwf	i2c_write_char@char_data
  5063                           
  5064                           ;newmain1.c: 2611: i2c_Start();
  5065  1F7F  319F  272F  319F   	fcall	_i2c_Start
  5066                           
  5067                           ;newmain1.c: 2612: i2c_Write(0x7C);
  5068  1F82  307C               	movlw	124
  5069  1F83  319F  2760  319F   	fcall	_i2c_Write
  5070                           
  5071                           ;newmain1.c: 2613: i2c_Write(0x40);
  5072  1F86  3040               	movlw	64
  5073  1F87  319F  2760  319F   	fcall	_i2c_Write
  5074                           
  5075                           ;newmain1.c: 2614: i2c_Write(char_data);
  5076  1F8A  0873               	movf	i2c_write_char@char_data,w
  5077  1F8B  319F  2760  319F   	fcall	_i2c_Write
  5078                           
  5079                           ;newmain1.c: 2615: i2c_Stop();
  5080  1F8E  319F  2734         	fcall	_i2c_Stop
  5081  1F90  0008               	return
  5082  1F91                     __end_of_i2c_write_char:	
  5083                           
  5084                           	psect	text20
  5085  1F55                     __ptext20:	
  5086 ;; *************** function _init_uart2 *****************
  5087 ;; Defined at:
  5088 ;;		line 3314 in file "newmain1.c"
  5089 ;; Parameters:    Size  Location     Type
  5090 ;;		None
  5091 ;; Auto vars:     Size  Location     Type
  5092 ;;		None
  5093 ;; Return value:  Size  Location     Type
  5094 ;;		None               void
  5095 ;; Registers used:
  5096 ;;		wreg, status,2
  5097 ;; Tracked objects:
  5098 ;;		On entry : 0/0
  5099 ;;		On exit  : 0/0
  5100 ;;		Unchanged: 0/0
  5101 ;; Data sizes:     COMMON   BANK0   BANK1   BANK2   BANK3   BANK4   BANK5   BANK6   BANK7   BANK8   BANK9  BANK10  BANK1
      +1  BANK12  BANK13  BANK14  BANK15  BANK16  BANK17  BANK18
  5102 ;;      Params:         0       0       0       0       0       0       0       0       0       0       0       0       
      +0       0       0       0       0       0       0       0
  5103 ;;      Locals:         0       0       0       0       0       0       0       0       0       0       0       0       
      +0       0       0       0       0       0       0       0
  5104 ;;      Temps:          0       0       0       0       0       0       0       0       0       0       0       0       
      +0       0       0       0       0       0       0       0
  5105 ;;      Totals:         0       0       0       0       0       0       0       0       0       0       0       0       
      +0       0       0       0       0       0       0       0
  5106 ;;Total ram usage:        0 bytes
  5107 ;; Hardware stack levels used:    1
  5108 ;; Hardware stack levels required when called:    1
  5109 ;; This function calls:
  5110 ;;		Nothing
  5111 ;; This function is called by:
  5112 ;;		_main
  5113 ;; This function uses a non-reentrant model
  5114 ;;
  5115                           
  5116                           
  5117                           ;psect for function _init_uart2
  5118  1F55                     _init_uart2:	
  5119                           
  5120                           ;newmain1.c: 3316: TX2STA = 0b00100000;
  5121                           
  5122                           ;incstack = 0
  5123                           ; Regs used in _init_uart2: [wreg+status,2]
  5124  1F55  3020               	movlw	32
  5125  1F56  0029               	movlb	9	; select bank9
  5126  1F57  0096               	movwf	22	;volatile
  5127                           
  5128                           ;newmain1.c: 3317: RC2STA = 0b10010000;
  5129  1F58  3090               	movlw	144
  5130  1F59  0095               	movwf	21	;volatile
  5131                           
  5132                           ;newmain1.c: 3318: BAUD2CON = 0b00001000;
  5133  1F5A  3008               	movlw	8
  5134  1F5B  0097               	movwf	23	;volatile
  5135                           
  5136                           ;newmain1.c: 3319: SP2BRGH = 0x00;
  5137  1F5C  0194               	clrf	20	;volatile
  5138                           
  5139                           ;newmain1.c: 3320: SP2BRGL = 103;
  5140  1F5D  3067               	movlw	103
  5141  1F5E  0093               	movwf	19	;volatile
  5142  1F5F  0008               	return
  5143  1F60                     __end_of_init_uart2:	
  5144                           
  5145                           	psect	text21
  5146  1F4A                     __ptext21:	
  5147 ;; *************** function _init_uart1 *****************
  5148 ;; Defined at:
  5149 ;;		line 3304 in file "newmain1.c"
  5150 ;; Parameters:    Size  Location     Type
  5151 ;;		None
  5152 ;; Auto vars:     Size  Location     Type
  5153 ;;		None
  5154 ;; Return value:  Size  Location     Type
  5155 ;;		None               void
  5156 ;; Registers used:
  5157 ;;		wreg, status,2
  5158 ;; Tracked objects:
  5159 ;;		On entry : 0/0
  5160 ;;		On exit  : 0/0
  5161 ;;		Unchanged: 0/0
  5162 ;; Data sizes:     COMMON   BANK0   BANK1   BANK2   BANK3   BANK4   BANK5   BANK6   BANK7   BANK8   BANK9  BANK10  BANK1
      +1  BANK12  BANK13  BANK14  BANK15  BANK16  BANK17  BANK18
  5163 ;;      Params:         0       0       0       0       0       0       0       0       0       0       0       0       
      +0       0       0       0       0       0       0       0
  5164 ;;      Locals:         0       0       0       0       0       0       0       0       0       0       0       0       
      +0       0       0       0       0       0       0       0
  5165 ;;      Temps:          0       0       0       0       0       0       0       0       0       0       0       0       
      +0       0       0       0       0       0       0       0
  5166 ;;      Totals:         0       0       0       0       0       0       0       0       0       0       0       0       
      +0       0       0       0       0       0       0       0
  5167 ;;Total ram usage:        0 bytes
  5168 ;; Hardware stack levels used:    1
  5169 ;; Hardware stack levels required when called:    1
  5170 ;; This function calls:
  5171 ;;		Nothing
  5172 ;; This function is called by:
  5173 ;;		_main
  5174 ;; This function uses a non-reentrant model
  5175 ;;
  5176                           
  5177                           
  5178                           ;psect for function _init_uart1
  5179  1F4A                     _init_uart1:	
  5180                           
  5181                           ;newmain1.c: 3306: TX1STA = 0b00100000;
  5182                           
  5183                           ;incstack = 0
  5184                           ; Regs used in _init_uart1: [wreg+status,2]
  5185  1F4A  3020               	movlw	32
  5186  1F4B  0023               	movlb	3	; select bank3
  5187  1F4C  009E               	movwf	30	;volatile
  5188                           
  5189                           ;newmain1.c: 3307: RC1STA = 0b10010000;
  5190  1F4D  3090               	movlw	144
  5191  1F4E  009D               	movwf	29	;volatile
  5192                           
  5193                           ;newmain1.c: 3308: BAUD1CON = 0b00001000;
  5194  1F4F  3008               	movlw	8
  5195  1F50  009F               	movwf	31	;volatile
  5196                           
  5197                           ;newmain1.c: 3309: SP1BRGH = 0x00;
  5198  1F51  019C               	clrf	28	;volatile
  5199                           
  5200                           ;newmain1.c: 3310: SP1BRGL = 103;
  5201  1F52  3067               	movlw	103
  5202  1F53  009B               	movwf	27	;volatile
  5203  1F54  0008               	return
  5204  1F55                     __end_of_init_uart1:	
  5205                           
  5206                           	psect	text22
  5207  1589                     __ptext22:	
  5208 ;; *************** function _init_i2c_lcd_5v *****************
  5209 ;; Defined at:
  5210 ;;		line 2619 in file "newmain1.c"
  5211 ;; Parameters:    Size  Location     Type
  5212 ;;  contrast        1    wreg     unsigned char 
  5213 ;;  single1_doub    1    3[COMMON] unsigned char 
  5214 ;; Auto vars:     Size  Location     Type
  5215 ;;  contrast        1    6[COMMON] unsigned char 
  5216 ;; Return value:  Size  Location     Type
  5217 ;;		None               void
  5218 ;; Registers used:
  5219 ;;		wreg, status,2, status,0, pclath, cstack
  5220 ;; Tracked objects:
  5221 ;;		On entry : 0/0
  5222 ;;		On exit  : 0/0
  5223 ;;		Unchanged: 0/0
  5224 ;; Data sizes:     COMMON   BANK0   BANK1   BANK2   BANK3   BANK4   BANK5   BANK6   BANK7   BANK8   BANK9  BANK10  BANK1
      +1  BANK12  BANK13  BANK14  BANK15  BANK16  BANK17  BANK18
  5225 ;;      Params:         1       0       0       0       0       0       0       0       0       0       0       0       
      +0       0       0       0       0       0       0       0
  5226 ;;      Locals:         1       0       0       0       0       0       0       0       0       0       0       0       
      +0       0       0       0       0       0       0       0
  5227 ;;      Temps:          2       0       0       0       0       0       0       0       0       0       0       0       
      +0       0       0       0       0       0       0       0
  5228 ;;      Totals:         4       0       0       0       0       0       0       0       0       0       0       0       
      +0       0       0       0       0       0       0       0
  5229 ;;Total ram usage:        4 bytes
  5230 ;; Hardware stack levels used:    1
  5231 ;; Hardware stack levels required when called:    2
  5232 ;; This function calls:
  5233 ;;		_i2c_Start
  5234 ;;		_i2c_Stop
  5235 ;;		_i2c_Write
  5236 ;; This function is called by:
  5237 ;;		_main
  5238 ;; This function uses a non-reentrant model
  5239 ;;
  5240                           
  5241                           
  5242                           ;psect for function _init_i2c_lcd_5v
  5243  1589                     _init_i2c_lcd_5v:	
  5244                           
  5245                           ;incstack = 0
  5246                           ; Regs used in _init_i2c_lcd_5v: [wreg+status,2+status,0+pclath+cstack]
  5247                           ;init_i2c_lcd_5v@contrast stored from wreg
  5248  1589  00F6               	movwf	init_i2c_lcd_5v@contrast
  5249                           
  5250                           ;newmain1.c: 2621: i2c_Start();
  5251  158A  319F  272F  3195   	fcall	_i2c_Start
  5252                           
  5253                           ;newmain1.c: 2622: i2c_Write(0x7C);
  5254  158D  307C               	movlw	124
  5255  158E  319F  2760  3195   	fcall	_i2c_Write
  5256                           
  5257                           ;newmain1.c: 2623: i2c_Write(0x00);
  5258  1591  3000               	movlw	0
  5259  1592  319F  2760  3195   	fcall	_i2c_Write
  5260                           
  5261                           ;newmain1.c: 2624: i2c_Write(0x39);
  5262  1595  3039               	movlw	57
  5263  1596  319F  2760  3195   	fcall	_i2c_Write
  5264                           
  5265                           ;newmain1.c: 2625: i2c_Write(0x1C);
  5266  1599  301C               	movlw	28
  5267  159A  319F  2760  3195   	fcall	_i2c_Write
  5268                           
  5269                           ;newmain1.c: 2626: i2c_Write(0x70 | contrast);
  5270  159D  0876               	movf	init_i2c_lcd_5v@contrast,w
  5271  159E  3870               	iorlw	112
  5272  159F  319F  2760  3195   	fcall	_i2c_Write
  5273                           
  5274                           ;newmain1.c: 2627: i2c_Write(0x50);
  5275  15A2  3050               	movlw	80
  5276  15A3  319F  2760  3195   	fcall	_i2c_Write
  5277                           
  5278                           ;newmain1.c: 2628: i2c_Write(0x6C);
  5279  15A6  306C               	movlw	108
  5280  15A7  319F  2760  3195   	fcall	_i2c_Write
  5281                           
  5282                           ;newmain1.c: 2629: if (single1_double2 == 1)
  5283  15AA  0373               	decf	init_i2c_lcd_5v@single1_double2,w
  5284  15AB  1D03               	btfss	3,2
  5285  15AC  2DB1               	goto	l5526
  5286                           
  5287                           ;newmain1.c: 2630: i2c_Write(0x38);
  5288  15AD  3038               	movlw	56
  5289  15AE  319F  2760  3195   	fcall	_i2c_Write
  5290  15B1                     l5526:	
  5291                           
  5292                           ;newmain1.c: 2631: if (single1_double2 == 2)
  5293  15B1  3002               	movlw	2
  5294  15B2  0673               	xorwf	init_i2c_lcd_5v@single1_double2,w
  5295  15B3  1D03               	btfss	3,2
  5296  15B4  2DB9               	goto	l600
  5297                           
  5298                           ;newmain1.c: 2632: i2c_Write(0x34);
  5299  15B5  3034               	movlw	52
  5300  15B6  319F  2760  3195   	fcall	_i2c_Write
  5301  15B9                     l600:	
  5302                           
  5303                           ;newmain1.c: 2633: i2c_Write(0x0C);
  5304  15B9  300C               	movlw	12
  5305  15BA  319F  2760  3195   	fcall	_i2c_Write
  5306                           
  5307                           ;newmain1.c: 2634: i2c_Write(0x06);
  5308  15BD  3006               	movlw	6
  5309  15BE  319F  2760  3195   	fcall	_i2c_Write
  5310                           
  5311                           ;newmain1.c: 2635: i2c_Write(0x01);
  5312  15C1  3001               	movlw	1
  5313  15C2  319F  2760  3195   	fcall	_i2c_Write
  5314                           
  5315                           ;newmain1.c: 2636: _delay((unsigned long)((2)*(16000000/4000.0)));
  5316  15C5  300B               	movlw	11
  5317  15C6  00F5               	movwf	??_init_i2c_lcd_5v+1
  5318  15C7  3062               	movlw	98
  5319  15C8  00F4               	movwf	??_init_i2c_lcd_5v
  5320  15C9                     u6827:	
  5321  15C9  0BF4               	decfsz	??_init_i2c_lcd_5v,f
  5322  15CA  2DC9               	goto	u6827
  5323  15CB  0BF5               	decfsz	??_init_i2c_lcd_5v+1,f
  5324  15CC  2DC9               	goto	u6827
  5325  15CD  0000               	nop
  5326                           
  5327                           ;newmain1.c: 2637: i2c_Stop();
  5328  15CE  319F  2734         	fcall	_i2c_Stop
  5329  15D0  0008               	return
  5330  15D1                     __end_of_init_i2c_lcd_5v:	
  5331                           
  5332                           	psect	text23
  5333  13A2                     __ptext23:	
  5334 ;; *************** function _init_i2c *****************
  5335 ;; Defined at:
  5336 ;;		line 3512 in file "newmain1.c"
  5337 ;; Parameters:    Size  Location     Type
  5338 ;;		None
  5339 ;; Auto vars:     Size  Location     Type
  5340 ;;		None
  5341 ;; Return value:  Size  Location     Type
  5342 ;;		None               void
  5343 ;; Registers used:
  5344 ;;		wreg
  5345 ;; Tracked objects:
  5346 ;;		On entry : 0/0
  5347 ;;		On exit  : 0/0
  5348 ;;		Unchanged: 0/0
  5349 ;; Data sizes:     COMMON   BANK0   BANK1   BANK2   BANK3   BANK4   BANK5   BANK6   BANK7   BANK8   BANK9  BANK10  BANK1
      +1  BANK12  BANK13  BANK14  BANK15  BANK16  BANK17  BANK18
  5350 ;;      Params:         0       0       0       0       0       0       0       0       0       0       0       0       
      +0       0       0       0       0       0       0       0
  5351 ;;      Locals:         0       0       0       0       0       0       0       0       0       0       0       0       
      +0       0       0       0       0       0       0       0
  5352 ;;      Temps:          3       0       0       0       0       0       0       0       0       0       0       0       
      +0       0       0       0       0       0       0       0
  5353 ;;      Totals:         3       0       0       0       0       0       0       0       0       0       0       0       
      +0       0       0       0       0       0       0       0
  5354 ;;Total ram usage:        3 bytes
  5355 ;; Hardware stack levels used:    1
  5356 ;; Hardware stack levels required when called:    1
  5357 ;; This function calls:
  5358 ;;		Nothing
  5359 ;; This function is called by:
  5360 ;;		_main
  5361 ;; This function uses a non-reentrant model
  5362 ;;
  5363                           
  5364                           
  5365                           ;psect for function _init_i2c
  5366  13A2                     _init_i2c:	
  5367                           
  5368                           ;newmain1.c: 3513: RA5 = 1;
  5369                           
  5370                           ;incstack = 0
  5371                           ; Regs used in _init_i2c: [wreg]
  5372  13A2  0020               	movlb	0	; select bank0
  5373  13A3  168C               	bsf	12,5	;volatile
  5374                           
  5375                           ;newmain1.c: 3514: _delay((unsigned long)((200)*(16000000/4000.0)));
  5376  13A4  3005               	movlw	5
  5377  13A5  00F4               	movwf	??_init_i2c+2
  5378  13A6  300F               	movlw	15
  5379  13A7  00F3               	movwf	??_init_i2c+1
  5380  13A8  30F4               	movlw	244
  5381  13A9  00F2               	movwf	??_init_i2c
  5382  13AA                     u6837:	
  5383  13AA  0BF2               	decfsz	??_init_i2c,f
  5384  13AB  2BAA               	goto	u6837
  5385  13AC  0BF3               	decfsz	??_init_i2c+1,f
  5386  13AD  2BAA               	goto	u6837
  5387  13AE  0BF4               	decfsz	??_init_i2c+2,f
  5388  13AF  2BAA               	goto	u6837
  5389                           
  5390                           ;newmain1.c: 3515: TRISC3 = 1;
  5391  13B0  0021               	movlb	1	; select bank1
  5392  13B1  158E               	bsf	14,3	;volatile
  5393                           
  5394                           ;newmain1.c: 3516: TRISC4 = 1;
  5395  13B2  160E               	bsf	14,4	;volatile
  5396                           
  5397                           ;newmain1.c: 3517: SSP1STAT |= 0x80;
  5398  13B3  0024               	movlb	4	; select bank4
  5399  13B4  1794               	bsf	20,7	;volatile
  5400                           
  5401                           ;newmain1.c: 3518: SSP1CON1 = 0x28;
  5402  13B5  3028               	movlw	40
  5403  13B6  0095               	movwf	21	;volatile
  5404                           
  5405                           ;newmain1.c: 3519: SSP1ADD = 0x14;
  5406  13B7  3014               	movlw	20
  5407  13B8  0092               	movwf	18	;volatile
  5408  13B9  0008               	return
  5409  13BA                     __end_of_init_i2c:	
  5410                           
  5411                           	psect	text24
  5412  1FA6                     __ptext24:	
  5413 ;; *************** function _init_current_sink *****************
  5414 ;; Defined at:
  5415 ;;		line 3587 in file "newmain1.c"
  5416 ;; Parameters:    Size  Location     Type
  5417 ;;		None
  5418 ;; Auto vars:     Size  Location     Type
  5419 ;;		None
  5420 ;; Return value:  Size  Location     Type
  5421 ;;		None               void
  5422 ;; Registers used:
  5423 ;;		wreg, status,2
  5424 ;; Tracked objects:
  5425 ;;		On entry : 0/0
  5426 ;;		On exit  : 0/0
  5427 ;;		Unchanged: 0/0
  5428 ;; Data sizes:     COMMON   BANK0   BANK1   BANK2   BANK3   BANK4   BANK5   BANK6   BANK7   BANK8   BANK9  BANK10  BANK1
      +1  BANK12  BANK13  BANK14  BANK15  BANK16  BANK17  BANK18
  5429 ;;      Params:         0       0       0       0       0       0       0       0       0       0       0       0       
      +0       0       0       0       0       0       0       0
  5430 ;;      Locals:         0       0       0       0       0       0       0       0       0       0       0       0       
      +0       0       0       0       0       0       0       0
  5431 ;;      Temps:          0       0       0       0       0       0       0       0       0       0       0       0       
      +0       0       0       0       0       0       0       0
  5432 ;;      Totals:         0       0       0       0       0       0       0       0       0       0       0       0       
      +0       0       0       0       0       0       0       0
  5433 ;;Total ram usage:        0 bytes
  5434 ;; Hardware stack levels used:    1
  5435 ;; Hardware stack levels required when called:    1
  5436 ;; This function calls:
  5437 ;;		Nothing
  5438 ;; This function is called by:
  5439 ;;		_main
  5440 ;; This function uses a non-reentrant model
  5441 ;;
  5442                           
  5443                           
  5444                           ;psect for function _init_current_sink
  5445  1FA6                     _init_current_sink:	
  5446                           
  5447                           ;newmain1.c: 3589: T2CON = 0b00000110;
  5448                           
  5449                           ;incstack = 0
  5450                           ; Regs used in _init_current_sink: [wreg+status,2]
  5451  1FA6  3006               	movlw	6
  5452  1FA7  0020               	movlb	0	; select bank0
  5453  1FA8  009C               	movwf	28	;volatile
  5454                           
  5455                           ;newmain1.c: 3590: PR2 = 0xFA;
  5456  1FA9  30FA               	movlw	250
  5457  1FAA  009B               	movwf	27	;volatile
  5458                           
  5459                           ;newmain1.c: 3591: PIE1bits.TMR2IE = 1;
  5460  1FAB  0021               	movlb	1	; select bank1
  5461  1FAC  1491               	bsf	17,1	;volatile
  5462                           
  5463                           ;newmain1.c: 3593: T8CON = 0b00000100;
  5464  1FAD  3004               	movlw	4
  5465  1FAE  002B               	movlb	11	; select bank11
  5466  1FAF  0097               	movwf	23	;volatile
  5467                           
  5468                           ;newmain1.c: 3594: PR8 = 0xFF;
  5469  1FB0  30FF               	movlw	255
  5470  1FB1  0096               	movwf	22	;volatile
  5471                           
  5472                           ;newmain1.c: 3595: CCP9CON = 0b00001100;
  5473  1FB2  300C               	movlw	12
  5474  1FB3  002C               	movlb	12	; select bank12
  5475  1FB4  009C               	movwf	28	;volatile
  5476                           
  5477                           ;newmain1.c: 3596: CCPTMRS2 = 0b00000001;
  5478  1FB5  3001               	movlw	1
  5479  1FB6  0025               	movlb	5	; select bank5
  5480  1FB7  009F               	movwf	31	;volatile
  5481                           
  5482                           ;newmain1.c: 3597: CCPR9L = 0x00;
  5483  1FB8  002C               	movlb	12	; select bank12
  5484  1FB9  019A               	clrf	26	;volatile
  5485  1FBA  0008               	return
  5486  1FBB                     __end_of_init_current_sink:	
  5487                           
  5488                           	psect	text25
  5489  1F3F                     __ptext25:	
  5490 ;; *************** function _init_ADC *****************
  5491 ;; Defined at:
  5492 ;;		line 3522 in file "newmain1.c"
  5493 ;; Parameters:    Size  Location     Type
  5494 ;;		None
  5495 ;; Auto vars:     Size  Location     Type
  5496 ;;		None
  5497 ;; Return value:  Size  Location     Type
  5498 ;;		None               void
  5499 ;; Registers used:
  5500 ;;		wreg, status,2
  5501 ;; Tracked objects:
  5502 ;;		On entry : 0/0
  5503 ;;		On exit  : 0/0
  5504 ;;		Unchanged: 0/0
  5505 ;; Data sizes:     COMMON   BANK0   BANK1   BANK2   BANK3   BANK4   BANK5   BANK6   BANK7   BANK8   BANK9  BANK10  BANK1
      +1  BANK12  BANK13  BANK14  BANK15  BANK16  BANK17  BANK18
  5506 ;;      Params:         0       0       0       0       0       0       0       0       0       0       0       0       
      +0       0       0       0       0       0       0       0
  5507 ;;      Locals:         0       0       0       0       0       0       0       0       0       0       0       0       
      +0       0       0       0       0       0       0       0
  5508 ;;      Temps:          0       0       0       0       0       0       0       0       0       0       0       0       
      +0       0       0       0       0       0       0       0
  5509 ;;      Totals:         0       0       0       0       0       0       0       0       0       0       0       0       
      +0       0       0       0       0       0       0       0
  5510 ;;Total ram usage:        0 bytes
  5511 ;; Hardware stack levels used:    1
  5512 ;; Hardware stack levels required when called:    1
  5513 ;; This function calls:
  5514 ;;		Nothing
  5515 ;; This function is called by:
  5516 ;;		_main
  5517 ;; This function uses a non-reentrant model
  5518 ;;
  5519                           
  5520                           
  5521                           ;psect for function _init_ADC
  5522  1F3F                     _init_ADC:	
  5523                           
  5524                           ;newmain1.c: 3523: FVRCON = 0b10000011;
  5525                           
  5526                           ;incstack = 0
  5527                           ; Regs used in _init_ADC: [wreg+status,2]
  5528  1F3F  3083               	movlw	131
  5529  1F40  0022               	movlb	2	; select bank2
  5530  1F41  0097               	movwf	23	;volatile
  5531                           
  5532                           ;newmain1.c: 3524: ADCON0 = 0b00000001;
  5533  1F42  3001               	movlw	1
  5534  1F43  0021               	movlb	1	; select bank1
  5535  1F44  009D               	movwf	29	;volatile
  5536                           
  5537                           ;newmain1.c: 3525: ADCON1 = 0b10100011;
  5538  1F45  30A3               	movlw	163
  5539  1F46  009E               	movwf	30	;volatile
  5540                           
  5541                           ;newmain1.c: 3526: ADRESH = 0b00000000;
  5542  1F47  019C               	clrf	28	;volatile
  5543                           
  5544                           ;newmain1.c: 3527: ADRESL = 0b00000000;
  5545  1F48  019B               	clrf	27	;volatile
  5546  1F49  0008               	return
  5547  1F4A                     __end_of_init_ADC:	
  5548                           
  5549                           	psect	text26
  5550  14A7                     __ptext26:	
  5551 ;; *************** function _get_current *****************
  5552 ;; Defined at:
  5553 ;;		line 3653 in file "newmain1.c"
  5554 ;; Parameters:    Size  Location     Type
  5555 ;;		None
  5556 ;; Auto vars:     Size  Location     Type
  5557 ;;  temp            2   36[BANK0 ] unsigned int 
  5558 ;; Return value:  Size  Location     Type
  5559 ;;                  2   34[BANK0 ] unsigned int 
  5560 ;; Registers used:
  5561 ;;		wreg, status,2, status,0, pclath, cstack
  5562 ;; Tracked objects:
  5563 ;;		On entry : 0/0
  5564 ;;		On exit  : 0/0
  5565 ;;		Unchanged: 0/0
  5566 ;; Data sizes:     COMMON   BANK0   BANK1   BANK2   BANK3   BANK4   BANK5   BANK6   BANK7   BANK8   BANK9  BANK10  BANK1
      +1  BANK12  BANK13  BANK14  BANK15  BANK16  BANK17  BANK18
  5567 ;;      Params:         0       2       0       0       0       0       0       0       0       0       0       0       
      +0       0       0       0       0       0       0       0
  5568 ;;      Locals:         0       2       0       0       0       0       0       0       0       0       0       0       
      +0       0       0       0       0       0       0       0
  5569 ;;      Temps:          0       0       0       0       0       0       0       0       0       0       0       0       
      +0       0       0       0       0       0       0       0
  5570 ;;      Totals:         0       4       0       0       0       0       0       0       0       0       0       0       
      +0       0       0       0       0       0       0       0
  5571 ;;Total ram usage:        4 bytes
  5572 ;; Hardware stack levels used:    1
  5573 ;; Hardware stack levels required when called:    3
  5574 ;; This function calls:
  5575 ;;		_ADC_get_val
  5576 ;;		___ftmul
  5577 ;;		___fttol
  5578 ;;		___lwtoft
  5579 ;; This function is called by:
  5580 ;;		_main
  5581 ;; This function uses a non-reentrant model
  5582 ;;
  5583                           
  5584                           
  5585                           ;psect for function _get_current
  5586  14A7                     _get_current:	
  5587                           
  5588                           ;newmain1.c: 3655: unsigned int temp;
  5589                           ;newmain1.c: 3656: temp = ADC_get_val(0b01010001);
  5590                           
  5591                           ;incstack = 0
  5592                           ; Regs used in _get_current: [wreg+status,2+status,0+pclath+cstack]
  5593  14A7  3051               	movlw	81
  5594  14A8  3194  2408  3194   	fcall	_ADC_get_val
  5595  14AB  0873               	movf	?_ADC_get_val+1,w
  5596  14AC  0020               	movlb	0	; select bank0
  5597  14AD  00C5               	movwf	get_current@temp+1
  5598  14AE  0872               	movf	?_ADC_get_val,w
  5599  14AF  00C4               	movwf	get_current@temp
  5600                           
  5601                           ;newmain1.c: 3658: temp = temp * 1.28;
  5602  14B0  0845               	movf	get_current@temp+1,w
  5603  14B1  00A1               	movwf	___lwtoft@c+1
  5604  14B2  0844               	movf	get_current@temp,w
  5605  14B3  00A0               	movwf	___lwtoft@c
  5606  14B4  319F  2791  3194   	fcall	___lwtoft
  5607  14B7  0020               	movlb	0	; select bank0
  5608  14B8  0820               	movf	?___lwtoft,w
  5609  14B9  00A7               	movwf	___ftmul@f2
  5610  14BA  0821               	movf	?___lwtoft+1,w
  5611  14BB  00A8               	movwf	___ftmul@f2+1
  5612  14BC  0822               	movf	?___lwtoft+2,w
  5613  14BD  00A9               	movwf	___ftmul@f2+2
  5614  14BE  30D7               	movlw	215
  5615  14BF  00A4               	movwf	___ftmul@f1
  5616  14C0  30A3               	movlw	163
  5617  14C1  00A5               	movwf	___ftmul@f1+1
  5618  14C2  303F               	movlw	63
  5619  14C3  00A6               	movwf	___ftmul@f1+2
  5620  14C4  3182  22EE  3194   	fcall	___ftmul
  5621  14C7  0020               	movlb	0	; select bank0
  5622  14C8  0824               	movf	?___ftmul,w
  5623  14C9  00B4               	movwf	___fttol@f1
  5624  14CA  0825               	movf	?___ftmul+1,w
  5625  14CB  00B5               	movwf	___fttol@f1+1
  5626  14CC  0826               	movf	?___ftmul+2,w
  5627  14CD  00B6               	movwf	___fttol@f1+2
  5628  14CE  3185  25DE         	fcall	___fttol
  5629  14D0  0020               	movlb	0	; select bank0
  5630  14D1  0835               	movf	?___fttol+1,w
  5631  14D2  00C5               	movwf	get_current@temp+1
  5632  14D3  0834               	movf	?___fttol,w
  5633  14D4  00C4               	movwf	get_current@temp
  5634                           
  5635                           ;newmain1.c: 3664: return temp;
  5636  14D5  0845               	movf	get_current@temp+1,w
  5637  14D6  00C3               	movwf	?_get_current+1
  5638  14D7  0844               	movf	get_current@temp,w
  5639  14D8  00C2               	movwf	?_get_current
  5640  14D9  0008               	return
  5641  14DA                     __end_of_get_current:	
  5642                           
  5643                           	psect	text27
  5644  1F91                     __ptext27:	
  5645 ;; *************** function ___lwtoft *****************
  5646 ;; Defined at:
  5647 ;;		line 28 in file "C:\Program Files (x86)\Microchip\xc8\v1.35\sources\common\lwtoft.c"
  5648 ;; Parameters:    Size  Location     Type
  5649 ;;  c               2    0[BANK0 ] unsigned int 
  5650 ;; Auto vars:     Size  Location     Type
  5651 ;;		None
  5652 ;; Return value:  Size  Location     Type
  5653 ;;                  3    0[BANK0 ] float 
  5654 ;; Registers used:
  5655 ;;		wreg, status,2, status,0, pclath, cstack
  5656 ;; Tracked objects:
  5657 ;;		On entry : 0/0
  5658 ;;		On exit  : 0/0
  5659 ;;		Unchanged: 0/0
  5660 ;; Data sizes:     COMMON   BANK0   BANK1   BANK2   BANK3   BANK4   BANK5   BANK6   BANK7   BANK8   BANK9  BANK10  BANK1
      +1  BANK12  BANK13  BANK14  BANK15  BANK16  BANK17  BANK18
  5661 ;;      Params:         0       3       0       0       0       0       0       0       0       0       0       0       
      +0       0       0       0       0       0       0       0
  5662 ;;      Locals:         0       0       0       0       0       0       0       0       0       0       0       0       
      +0       0       0       0       0       0       0       0
  5663 ;;      Temps:          0       1       0       0       0       0       0       0       0       0       0       0       
      +0       0       0       0       0       0       0       0
  5664 ;;      Totals:         0       4       0       0       0       0       0       0       0       0       0       0       
      +0       0       0       0       0       0       0       0
  5665 ;;Total ram usage:        4 bytes
  5666 ;; Hardware stack levels used:    1
  5667 ;; Hardware stack levels required when called:    2
  5668 ;; This function calls:
  5669 ;;		___ftpack
  5670 ;; This function is called by:
  5671 ;;		_get_current
  5672 ;;		_ADC_to_voltage
  5673 ;; This function uses a non-reentrant model
  5674 ;;
  5675                           
  5676                           
  5677                           ;psect for function ___lwtoft
  5678  1F91                     ___lwtoft:	
  5679                           
  5680                           ;incstack = 0
  5681                           ; Regs used in ___lwtoft: [wreg+status,2+status,0+pclath+cstack]
  5682  1F91  0020               	movlb	0	; select bank0
  5683  1F92  0820               	movf	___lwtoft@c,w
  5684  1F93  00F2               	movwf	___ftpack@arg
  5685  1F94  0821               	movf	___lwtoft@c+1,w
  5686  1F95  00F3               	movwf	___ftpack@arg+1
  5687  1F96  01F4               	clrf	___ftpack@arg+2
  5688  1F97  308E               	movlw	142
  5689  1F98  00A3               	movwf	??___lwtoft
  5690  1F99  0823               	movf	??___lwtoft,w
  5691  1F9A  00F5               	movwf	___ftpack@exp
  5692  1F9B  01F6               	clrf	___ftpack@sign
  5693  1F9C  3196  2627         	fcall	___ftpack
  5694  1F9E  0872               	movf	?___ftpack,w
  5695  1F9F  0020               	movlb	0	; select bank0
  5696  1FA0  00A0               	movwf	?___lwtoft
  5697  1FA1  0873               	movf	?___ftpack+1,w
  5698  1FA2  00A1               	movwf	?___lwtoft+1
  5699  1FA3  0874               	movf	?___ftpack+2,w
  5700  1FA4  00A2               	movwf	?___lwtoft+2
  5701  1FA5  0008               	return
  5702  1FA6                     __end_of___lwtoft:	
  5703                           
  5704                           	psect	text28
  5705  05DE                     __ptext28:	
  5706 ;; *************** function ___fttol *****************
  5707 ;; Defined at:
  5708 ;;		line 44 in file "C:\Program Files (x86)\Microchip\xc8\v1.35\sources\common\fttol.c"
  5709 ;; Parameters:    Size  Location     Type
  5710 ;;  f1              3   20[BANK0 ] float 
  5711 ;; Auto vars:     Size  Location     Type
  5712 ;;  lval            4   29[BANK0 ] unsigned long 
  5713 ;;  exp1            1   33[BANK0 ] unsigned char 
  5714 ;;  sign1           1   28[BANK0 ] unsigned char 
  5715 ;; Return value:  Size  Location     Type
  5716 ;;                  4   20[BANK0 ] long 
  5717 ;; Registers used:
  5718 ;;		wreg, status,2, status,0
  5719 ;; Tracked objects:
  5720 ;;		On entry : 0/0
  5721 ;;		On exit  : 0/0
  5722 ;;		Unchanged: 0/0
  5723 ;; Data sizes:     COMMON   BANK0   BANK1   BANK2   BANK3   BANK4   BANK5   BANK6   BANK7   BANK8   BANK9  BANK10  BANK1
      +1  BANK12  BANK13  BANK14  BANK15  BANK16  BANK17  BANK18
  5724 ;;      Params:         0       4       0       0       0       0       0       0       0       0       0       0       
      +0       0       0       0       0       0       0       0
  5725 ;;      Locals:         0       6       0       0       0       0       0       0       0       0       0       0       
      +0       0       0       0       0       0       0       0
  5726 ;;      Temps:          0       4       0       0       0       0       0       0       0       0       0       0       
      +0       0       0       0       0       0       0       0
  5727 ;;      Totals:         0      14       0       0       0       0       0       0       0       0       0       0       
      +0       0       0       0       0       0       0       0
  5728 ;;Total ram usage:       14 bytes
  5729 ;; Hardware stack levels used:    1
  5730 ;; Hardware stack levels required when called:    1
  5731 ;; This function calls:
  5732 ;;		Nothing
  5733 ;; This function is called by:
  5734 ;;		_get_current
  5735 ;; This function uses a non-reentrant model
  5736 ;;
  5737                           
  5738                           
  5739                           ;psect for function ___fttol
  5740  05DE                     ___fttol:	
  5741                           
  5742                           ;incstack = 0
  5743                           ; Regs used in ___fttol: [wreg+status,2+status,0]
  5744  05DE  0020               	movlb	0	; select bank0
  5745  05DF  0834               	movf	___fttol@f1,w
  5746  05E0  00B8               	movwf	??___fttol
  5747  05E1  0835               	movf	___fttol@f1+1,w
  5748  05E2  00B9               	movwf	??___fttol+1
  5749  05E3  0836               	movf	___fttol@f1+2,w
  5750  05E4  00BA               	movwf	??___fttol+2
  5751  05E5  1003               	clrc
  5752  05E6  0D39               	rlf	??___fttol+1,w
  5753  05E7  0D3A               	rlf	??___fttol+2,w
  5754  05E8  00BB               	movwf	??___fttol+3
  5755  05E9  083B               	movf	??___fttol+3,w
  5756  05EA  00C1               	movwf	___fttol@exp1
  5757  05EB  0841               	movf	___fttol@exp1,w
  5758  05EC  1D03               	btfss	3,2
  5759  05ED  2DF7               	goto	l3612
  5760  05EE  3000               	movlw	0
  5761  05EF  00B7               	movwf	?___fttol+3
  5762  05F0  3000               	movlw	0
  5763  05F1  00B6               	movwf	?___fttol+2
  5764  05F2  3000               	movlw	0
  5765  05F3  00B5               	movwf	?___fttol+1
  5766  05F4  3000               	movlw	0
  5767  05F5  00B4               	movwf	?___fttol
  5768  05F6  0008               	return
  5769  05F7                     l3612:	
  5770  05F7  0834               	movf	___fttol@f1,w
  5771  05F8  00B8               	movwf	??___fttol
  5772  05F9  0835               	movf	___fttol@f1+1,w
  5773  05FA  00B9               	movwf	??___fttol+1
  5774  05FB  0836               	movf	___fttol@f1+2,w
  5775  05FC  00BA               	movwf	??___fttol+2
  5776  05FD  3017               	movlw	23
  5777  05FE                     u2955:	
  5778  05FE  36BA               	lsrf	??___fttol+2,f
  5779  05FF  0CB9               	rrf	??___fttol+1,f
  5780  0600  0CB8               	rrf	??___fttol,f
  5781  0601  0B89               	decfsz	9,f
  5782  0602  2DFE               	goto	u2955
  5783  0603  0838               	movf	??___fttol,w
  5784  0604  00BB               	movwf	??___fttol+3
  5785  0605  083B               	movf	??___fttol+3,w
  5786  0606  00BC               	movwf	___fttol@sign1
  5787  0607  17B5               	bsf	___fttol@f1+1,7
  5788  0608  30FF               	movlw	255
  5789  0609  05B4               	andwf	___fttol@f1,f
  5790  060A  30FF               	movlw	255
  5791  060B  05B5               	andwf	___fttol@f1+1,f
  5792  060C  3000               	movlw	0
  5793  060D  05B6               	andwf	___fttol@f1+2,f
  5794  060E  0834               	movf	___fttol@f1,w
  5795  060F  00BD               	movwf	___fttol@lval
  5796  0610  0835               	movf	___fttol@f1+1,w
  5797  0611  00BE               	movwf	___fttol@lval+1
  5798  0612  0836               	movf	___fttol@f1+2,w
  5799  0613  00BF               	movwf	___fttol@lval+2
  5800  0614  01C0               	clrf	___fttol@lval+3
  5801  0615  308E               	movlw	142
  5802  0616  02C1               	subwf	___fttol@exp1,f
  5803  0617  1FC1               	btfss	___fttol@exp1,7
  5804  0618  2E35               	goto	l3632
  5805  0619  0841               	movf	___fttol@exp1,w
  5806  061A  3A80               	xorlw	128
  5807  061B  3E8F               	addlw	143
  5808  061C  1803               	skipnc
  5809  061D  2E27               	goto	l3630
  5810  061E  3000               	movlw	0
  5811  061F  00B7               	movwf	?___fttol+3
  5812  0620  3000               	movlw	0
  5813  0621  00B6               	movwf	?___fttol+2
  5814  0622  3000               	movlw	0
  5815  0623  00B5               	movwf	?___fttol+1
  5816  0624  3000               	movlw	0
  5817  0625  00B4               	movwf	?___fttol
  5818  0626  0008               	return
  5819  0627                     l3630:	
  5820  0627  3001               	movlw	1
  5821  0628                     u2985:	
  5822  0628  36C0               	lsrf	___fttol@lval+3,f
  5823  0629  0CBF               	rrf	___fttol@lval+2,f
  5824  062A  0CBE               	rrf	___fttol@lval+1,f
  5825  062B  0CBD               	rrf	___fttol@lval,f
  5826  062C  0B89               	decfsz	9,f
  5827  062D  2E28               	goto	u2985
  5828  062E  3001               	movlw	1
  5829  062F  00B8               	movwf	??___fttol
  5830  0630  0838               	movf	??___fttol,w
  5831  0631  07C1               	addwf	___fttol@exp1,f
  5832  0632  1903               	btfsc	3,2
  5833  0633  2E4E               	goto	l3640
  5834  0634  2E27               	goto	l3630
  5835  0635                     l3632:	
  5836  0635  3018               	movlw	24
  5837  0636  0241               	subwf	___fttol@exp1,w
  5838  0637  1C03               	skipc
  5839  0638  2E4B               	goto	l1118
  5840  0639  3000               	movlw	0
  5841  063A  00B7               	movwf	?___fttol+3
  5842  063B  3000               	movlw	0
  5843  063C  00B6               	movwf	?___fttol+2
  5844  063D  3000               	movlw	0
  5845  063E  00B5               	movwf	?___fttol+1
  5846  063F  3000               	movlw	0
  5847  0640  00B4               	movwf	?___fttol
  5848  0641  0008               	return
  5849  0642                     l3638:	
  5850  0642  3001               	movlw	1
  5851  0643                     u3015:	
  5852  0643  35BD               	lslf	___fttol@lval,f
  5853  0644  0DBE               	rlf	___fttol@lval+1,f
  5854  0645  0DBF               	rlf	___fttol@lval+2,f
  5855  0646  0DC0               	rlf	___fttol@lval+3,f
  5856  0647  0B89               	decfsz	9,f
  5857  0648  2E43               	goto	u3015
  5858  0649  3001               	movlw	1
  5859  064A  02C1               	subwf	___fttol@exp1,f
  5860  064B                     l1118:	
  5861  064B  0841               	movf	___fttol@exp1,w
  5862  064C  1D03               	btfss	3,2
  5863  064D  2E42               	goto	l3638
  5864  064E                     l3640:	
  5865  064E  083C               	movf	___fttol@sign1,w
  5866  064F  1903               	btfsc	3,2
  5867  0650  2E5C               	goto	l3644
  5868  0651  09BD               	comf	___fttol@lval,f
  5869  0652  09BE               	comf	___fttol@lval+1,f
  5870  0653  09BF               	comf	___fttol@lval+2,f
  5871  0654  09C0               	comf	___fttol@lval+3,f
  5872  0655  0ABD               	incf	___fttol@lval,f
  5873  0656  1903               	skipnz
  5874  0657  0ABE               	incf	___fttol@lval+1,f
  5875  0658  1903               	skipnz
  5876  0659  0ABF               	incf	___fttol@lval+2,f
  5877  065A  1903               	skipnz
  5878  065B  0AC0               	incf	___fttol@lval+3,f
  5879  065C                     l3644:	
  5880  065C  0840               	movf	___fttol@lval+3,w
  5881  065D  00B7               	movwf	?___fttol+3
  5882  065E  083F               	movf	___fttol@lval+2,w
  5883  065F  00B6               	movwf	?___fttol+2
  5884  0660  083E               	movf	___fttol@lval+1,w
  5885  0661  00B5               	movwf	?___fttol+1
  5886  0662  083D               	movf	___fttol@lval,w
  5887  0663  00B4               	movwf	?___fttol
  5888  0664  0008               	return
  5889  0665                     __end_of___fttol:	
  5890                           
  5891                           	psect	text29
  5892  02EE                     __ptext29:	
  5893 ;; *************** function ___ftmul *****************
  5894 ;; Defined at:
  5895 ;;		line 62 in file "C:\Program Files (x86)\Microchip\xc8\v1.35\sources\common\ftmul.c"
  5896 ;; Parameters:    Size  Location     Type
  5897 ;;  f1              3    4[BANK0 ] float 
  5898 ;;  f2              3    7[BANK0 ] float 
  5899 ;; Auto vars:     Size  Location     Type
  5900 ;;  f3_as_produc    3   15[BANK0 ] unsigned um
  5901 ;;  sign            1   19[BANK0 ] unsigned char 
  5902 ;;  cntr            1   18[BANK0 ] unsigned char 
  5903 ;;  exp             1   14[BANK0 ] unsigned char 
  5904 ;; Return value:  Size  Location     Type
  5905 ;;                  3    4[BANK0 ] float 
  5906 ;; Registers used:
  5907 ;;		wreg, status,2, status,0, pclath, cstack
  5908 ;; Tracked objects:
  5909 ;;		On entry : 0/0
  5910 ;;		On exit  : 0/0
  5911 ;;		Unchanged: 0/0
  5912 ;; Data sizes:     COMMON   BANK0   BANK1   BANK2   BANK3   BANK4   BANK5   BANK6   BANK7   BANK8   BANK9  BANK10  BANK1
      +1  BANK12  BANK13  BANK14  BANK15  BANK16  BANK17  BANK18
  5913 ;;      Params:         0       6       0       0       0       0       0       0       0       0       0       0       
      +0       0       0       0       0       0       0       0
  5914 ;;      Locals:         0       6       0       0       0       0       0       0       0       0       0       0       
      +0       0       0       0       0       0       0       0
  5915 ;;      Temps:          0       4       0       0       0       0       0       0       0       0       0       0       
      +0       0       0       0       0       0       0       0
  5916 ;;      Totals:         0      16       0       0       0       0       0       0       0       0       0       0       
      +0       0       0       0       0       0       0       0
  5917 ;;Total ram usage:       16 bytes
  5918 ;; Hardware stack levels used:    1
  5919 ;; Hardware stack levels required when called:    2
  5920 ;; This function calls:
  5921 ;;		___ftpack
  5922 ;; This function is called by:
  5923 ;;		_get_current
  5924 ;;		_ADC_to_voltage
  5925 ;; This function uses a non-reentrant model
  5926 ;;
  5927                           
  5928                           
  5929                           ;psect for function ___ftmul
  5930  02EE                     ___ftmul:	
  5931                           
  5932                           ;incstack = 0
  5933                           ; Regs used in ___ftmul: [wreg+status,2+status,0+pclath+cstack]
  5934  02EE  0020               	movlb	0	; select bank0
  5935  02EF  0824               	movf	___ftmul@f1,w
  5936  02F0  00AA               	movwf	??___ftmul
  5937  02F1  0825               	movf	___ftmul@f1+1,w
  5938  02F2  00AB               	movwf	??___ftmul+1
  5939  02F3  0826               	movf	___ftmul@f1+2,w
  5940  02F4  00AC               	movwf	??___ftmul+2
  5941  02F5  1003               	clrc
  5942  02F6  0D2B               	rlf	??___ftmul+1,w
  5943  02F7  0D2C               	rlf	??___ftmul+2,w
  5944  02F8  00AD               	movwf	??___ftmul+3
  5945  02F9  082D               	movf	??___ftmul+3,w
  5946  02FA  00AE               	movwf	___ftmul@exp
  5947  02FB  082E               	movf	___ftmul@exp,w
  5948  02FC  1D03               	btfss	3,2
  5949  02FD  2B05               	goto	l3562
  5950  02FE  3000               	movlw	0
  5951  02FF  00A4               	movwf	?___ftmul
  5952  0300  3000               	movlw	0
  5953  0301  00A5               	movwf	?___ftmul+1
  5954  0302  3000               	movlw	0
  5955  0303  00A6               	movwf	?___ftmul+2
  5956  0304  0008               	return
  5957  0305                     l3562:	
  5958  0305  0827               	movf	___ftmul@f2,w
  5959  0306  00AA               	movwf	??___ftmul
  5960  0307  0828               	movf	___ftmul@f2+1,w
  5961  0308  00AB               	movwf	??___ftmul+1
  5962  0309  0829               	movf	___ftmul@f2+2,w
  5963  030A  00AC               	movwf	??___ftmul+2
  5964  030B  1003               	clrc
  5965  030C  0D2B               	rlf	??___ftmul+1,w
  5966  030D  0D2C               	rlf	??___ftmul+2,w
  5967  030E  00AD               	movwf	??___ftmul+3
  5968  030F  082D               	movf	??___ftmul+3,w
  5969  0310  00B3               	movwf	___ftmul@sign
  5970  0311  0833               	movf	___ftmul@sign,w
  5971  0312  1D03               	btfss	3,2
  5972  0313  2B1B               	goto	l3568
  5973  0314  3000               	movlw	0
  5974  0315  00A4               	movwf	?___ftmul
  5975  0316  3000               	movlw	0
  5976  0317  00A5               	movwf	?___ftmul+1
  5977  0318  3000               	movlw	0
  5978  0319  00A6               	movwf	?___ftmul+2
  5979  031A  0008               	return
  5980  031B                     l3568:	
  5981  031B  0833               	movf	___ftmul@sign,w
  5982  031C  3E7B               	addlw	123
  5983  031D  00AA               	movwf	??___ftmul
  5984  031E  082A               	movf	??___ftmul,w
  5985  031F  07AE               	addwf	___ftmul@exp,f
  5986  0320  0824               	movf	___ftmul@f1,w
  5987  0321  00AA               	movwf	??___ftmul
  5988  0322  0825               	movf	___ftmul@f1+1,w
  5989  0323  00AB               	movwf	??___ftmul+1
  5990  0324  0826               	movf	___ftmul@f1+2,w
  5991  0325  00AC               	movwf	??___ftmul+2
  5992  0326  3010               	movlw	16
  5993  0327                     u2845:	
  5994  0327  36AC               	lsrf	??___ftmul+2,f
  5995  0328  0CAB               	rrf	??___ftmul+1,f
  5996  0329  0CAA               	rrf	??___ftmul,f
  5997  032A  0B89               	decfsz	9,f
  5998  032B  2B27               	goto	u2845
  5999  032C  082A               	movf	??___ftmul,w
  6000  032D  00AD               	movwf	??___ftmul+3
  6001  032E  082D               	movf	??___ftmul+3,w
  6002  032F  00B3               	movwf	___ftmul@sign
  6003  0330  0827               	movf	___ftmul@f2,w
  6004  0331  00AA               	movwf	??___ftmul
  6005  0332  0828               	movf	___ftmul@f2+1,w
  6006  0333  00AB               	movwf	??___ftmul+1
  6007  0334  0829               	movf	___ftmul@f2+2,w
  6008  0335  00AC               	movwf	??___ftmul+2
  6009  0336  3010               	movlw	16
  6010  0337                     u2855:	
  6011  0337  36AC               	lsrf	??___ftmul+2,f
  6012  0338  0CAB               	rrf	??___ftmul+1,f
  6013  0339  0CAA               	rrf	??___ftmul,f
  6014  033A  0B89               	decfsz	9,f
  6015  033B  2B37               	goto	u2855
  6016  033C  082A               	movf	??___ftmul,w
  6017  033D  00AD               	movwf	??___ftmul+3
  6018  033E  082D               	movf	??___ftmul+3,w
  6019  033F  06B3               	xorwf	___ftmul@sign,f
  6020  0340  3080               	movlw	128
  6021  0341  00AA               	movwf	??___ftmul
  6022  0342  082A               	movf	??___ftmul,w
  6023  0343  05B3               	andwf	___ftmul@sign,f
  6024  0344  17A5               	bsf	___ftmul@f1+1,7
  6025  0345  17A8               	bsf	___ftmul@f2+1,7
  6026  0346  30FF               	movlw	255
  6027  0347  05A7               	andwf	___ftmul@f2,f
  6028  0348  30FF               	movlw	255
  6029  0349  05A8               	andwf	___ftmul@f2+1,f
  6030  034A  3000               	movlw	0
  6031  034B  05A9               	andwf	___ftmul@f2+2,f
  6032  034C  3000               	movlw	0
  6033  034D  00AF               	movwf	___ftmul@f3_as_product
  6034  034E  3000               	movlw	0
  6035  034F  00B0               	movwf	___ftmul@f3_as_product+1
  6036  0350  3000               	movlw	0
  6037  0351  00B1               	movwf	___ftmul@f3_as_product+2
  6038  0352  3007               	movlw	7
  6039  0353  00AA               	movwf	??___ftmul
  6040  0354  082A               	movf	??___ftmul,w
  6041  0355  00B2               	movwf	___ftmul@cntr
  6042  0356                     l3580:	
  6043  0356  1C24               	btfss	___ftmul@f1,0
  6044  0357  2B5E               	goto	l3584
  6045  0358  0827               	movf	___ftmul@f2,w
  6046  0359  07AF               	addwf	___ftmul@f3_as_product,f
  6047  035A  0828               	movf	___ftmul@f2+1,w
  6048  035B  3DB0               	addwfc	___ftmul@f3_as_product+1,f
  6049  035C  0829               	movf	___ftmul@f2+2,w
  6050  035D  3DB1               	addwfc	___ftmul@f3_as_product+2,f
  6051  035E                     l3584:	
  6052  035E  3001               	movlw	1
  6053  035F                     u2875:	
  6054  035F  36A6               	lsrf	___ftmul@f1+2,f
  6055  0360  0CA5               	rrf	___ftmul@f1+1,f
  6056  0361  0CA4               	rrf	___ftmul@f1,f
  6057  0362  0B89               	decfsz	9,f
  6058  0363  2B5F               	goto	u2875
  6059  0364  3001               	movlw	1
  6060  0365                     u2885:	
  6061  0365  35A7               	lslf	___ftmul@f2,f
  6062  0366  0DA8               	rlf	___ftmul@f2+1,f
  6063  0367  0DA9               	rlf	___ftmul@f2+2,f
  6064  0368  0B89               	decfsz	9,f
  6065  0369  2B65               	goto	u2885
  6066  036A  3001               	movlw	1
  6067  036B  02B2               	subwf	___ftmul@cntr,f
  6068  036C  1D03               	btfss	3,2
  6069  036D  2B56               	goto	l3580
  6070  036E  3009               	movlw	9
  6071  036F  00AA               	movwf	??___ftmul
  6072  0370  082A               	movf	??___ftmul,w
  6073  0371  00B2               	movwf	___ftmul@cntr
  6074  0372                     l3592:	
  6075  0372  1C24               	btfss	___ftmul@f1,0
  6076  0373  2B7A               	goto	l3596
  6077  0374  0827               	movf	___ftmul@f2,w
  6078  0375  07AF               	addwf	___ftmul@f3_as_product,f
  6079  0376  0828               	movf	___ftmul@f2+1,w
  6080  0377  3DB0               	addwfc	___ftmul@f3_as_product+1,f
  6081  0378  0829               	movf	___ftmul@f2+2,w
  6082  0379  3DB1               	addwfc	___ftmul@f3_as_product+2,f
  6083  037A                     l3596:	
  6084  037A  3001               	movlw	1
  6085  037B                     u2915:	
  6086  037B  36A6               	lsrf	___ftmul@f1+2,f
  6087  037C  0CA5               	rrf	___ftmul@f1+1,f
  6088  037D  0CA4               	rrf	___ftmul@f1,f
  6089  037E  0B89               	decfsz	9,f
  6090  037F  2B7B               	goto	u2915
  6091  0380  3001               	movlw	1
  6092  0381                     u2925:	
  6093  0381  36B1               	lsrf	___ftmul@f3_as_product+2,f
  6094  0382  0CB0               	rrf	___ftmul@f3_as_product+1,f
  6095  0383  0CAF               	rrf	___ftmul@f3_as_product,f
  6096  0384  0B89               	decfsz	9,f
  6097  0385  2B81               	goto	u2925
  6098  0386  3001               	movlw	1
  6099  0387  02B2               	subwf	___ftmul@cntr,f
  6100  0388  1D03               	btfss	3,2
  6101  0389  2B72               	goto	l3592
  6102  038A  082F               	movf	___ftmul@f3_as_product,w
  6103  038B  00F2               	movwf	___ftpack@arg
  6104  038C  0830               	movf	___ftmul@f3_as_product+1,w
  6105  038D  00F3               	movwf	___ftpack@arg+1
  6106  038E  0831               	movf	___ftmul@f3_as_product+2,w
  6107  038F  00F4               	movwf	___ftpack@arg+2
  6108  0390  082E               	movf	___ftmul@exp,w
  6109  0391  00AA               	movwf	??___ftmul
  6110  0392  082A               	movf	??___ftmul,w
  6111  0393  00F5               	movwf	___ftpack@exp
  6112  0394  0833               	movf	___ftmul@sign,w
  6113  0395  00AB               	movwf	??___ftmul+1
  6114  0396  082B               	movf	??___ftmul+1,w
  6115  0397  00F6               	movwf	___ftpack@sign
  6116  0398  3196  2627         	fcall	___ftpack
  6117  039A  0872               	movf	?___ftpack,w
  6118  039B  0020               	movlb	0	; select bank0
  6119  039C  00A4               	movwf	?___ftmul
  6120  039D  0873               	movf	?___ftpack+1,w
  6121  039E  00A5               	movwf	?___ftmul+1
  6122  039F  0874               	movf	?___ftpack+2,w
  6123  03A0  00A6               	movwf	?___ftmul+2
  6124  03A1  0008               	return
  6125  03A2                     __end_of___ftmul:	
  6126                           
  6127                           	psect	text30
  6128  1627                     __ptext30:	
  6129 ;; *************** function ___ftpack *****************
  6130 ;; Defined at:
  6131 ;;		line 62 in file "C:\Program Files (x86)\Microchip\xc8\v1.35\sources\common\float.c"
  6132 ;; Parameters:    Size  Location     Type
  6133 ;;  arg             3    2[COMMON] unsigned um
  6134 ;;  exp             1    5[COMMON] unsigned char 
  6135 ;;  sign            1    6[COMMON] unsigned char 
  6136 ;; Auto vars:     Size  Location     Type
  6137 ;;		None
  6138 ;; Return value:  Size  Location     Type
  6139 ;;                  3    2[COMMON] float 
  6140 ;; Registers used:
  6141 ;;		wreg, status,2, status,0
  6142 ;; Tracked objects:
  6143 ;;		On entry : 0/0
  6144 ;;		On exit  : 0/0
  6145 ;;		Unchanged: 0/0
  6146 ;; Data sizes:     COMMON   BANK0   BANK1   BANK2   BANK3   BANK4   BANK5   BANK6   BANK7   BANK8   BANK9  BANK10  BANK1
      +1  BANK12  BANK13  BANK14  BANK15  BANK16  BANK17  BANK18
  6147 ;;      Params:         5       0       0       0       0       0       0       0       0       0       0       0       
      +0       0       0       0       0       0       0       0
  6148 ;;      Locals:         0       0       0       0       0       0       0       0       0       0       0       0       
      +0       0       0       0       0       0       0       0
  6149 ;;      Temps:          3       0       0       0       0       0       0       0       0       0       0       0       
      +0       0       0       0       0       0       0       0
  6150 ;;      Totals:         8       0       0       0       0       0       0       0       0       0       0       0       
      +0       0       0       0       0       0       0       0
  6151 ;;Total ram usage:        8 bytes
  6152 ;; Hardware stack levels used:    1
  6153 ;; Hardware stack levels required when called:    1
  6154 ;; This function calls:
  6155 ;;		Nothing
  6156 ;; This function is called by:
  6157 ;;		___ftmul
  6158 ;;		___lwtoft
  6159 ;; This function uses a non-reentrant model
  6160 ;;
  6161                           
  6162                           
  6163                           ;psect for function ___ftpack
  6164  1627                     ___ftpack:	
  6165                           
  6166                           ;incstack = 0
  6167                           ; Regs used in ___ftpack: [wreg+status,2+status,0]
  6168  1627  0875               	movf	___ftpack@exp,w
  6169  1628  1903               	btfsc	3,2
  6170  1629  2E2F               	goto	l3380
  6171  162A  0874               	movf	___ftpack@arg+2,w
  6172  162B  0473               	iorwf	___ftpack@arg+1,w
  6173  162C  0472               	iorwf	___ftpack@arg,w
  6174  162D  1D03               	skipz
  6175  162E  2E40               	goto	l3386
  6176  162F                     l3380:	
  6177  162F  3000               	movlw	0
  6178  1630  00F2               	movwf	?___ftpack
  6179  1631  3000               	movlw	0
  6180  1632  00F3               	movwf	?___ftpack+1
  6181  1633  3000               	movlw	0
  6182  1634  00F4               	movwf	?___ftpack+2
  6183  1635  0008               	return
  6184  1636                     l3384:	
  6185  1636  3001               	movlw	1
  6186  1637  00F7               	movwf	??___ftpack
  6187  1638  0877               	movf	??___ftpack,w
  6188  1639  07F5               	addwf	___ftpack@exp,f
  6189  163A  3001               	movlw	1
  6190  163B                     u2575:	
  6191  163B  36F4               	lsrf	___ftpack@arg+2,f
  6192  163C  0CF3               	rrf	___ftpack@arg+1,f
  6193  163D  0CF2               	rrf	___ftpack@arg,f
  6194  163E  0B89               	decfsz	9,f
  6195  163F  2E3B               	goto	u2575
  6196  1640                     l3386:	
  6197  1640  30FE               	movlw	254
  6198  1641  0574               	andwf	___ftpack@arg+2,w
  6199  1642  1903               	btfsc	3,2
  6200  1643  2E59               	goto	l1027
  6201  1644  2E36               	goto	l3384
  6202  1645                     l3388:	
  6203  1645  3001               	movlw	1
  6204  1646  00F7               	movwf	??___ftpack
  6205  1647  0877               	movf	??___ftpack,w
  6206  1648  07F5               	addwf	___ftpack@exp,f
  6207  1649  3001               	movlw	1
  6208  164A  07F2               	addwf	___ftpack@arg,f
  6209  164B  3000               	movlw	0
  6210  164C  1803               	skipnc
  6211  164D  3001               	movlw	1
  6212  164E  07F3               	addwf	___ftpack@arg+1,f
  6213  164F  3000               	movlw	0
  6214  1650  1803               	skipnc
  6215  1651  3001               	movlw	1
  6216  1652  07F4               	addwf	___ftpack@arg+2,f
  6217  1653  3001               	movlw	1
  6218  1654                     u2595:	
  6219  1654  36F4               	lsrf	___ftpack@arg+2,f
  6220  1655  0CF3               	rrf	___ftpack@arg+1,f
  6221  1656  0CF2               	rrf	___ftpack@arg,f
  6222  1657  0B89               	decfsz	9,f
  6223  1658  2E54               	goto	u2595
  6224  1659                     l1027:	
  6225  1659  30FF               	movlw	255
  6226  165A  0574               	andwf	___ftpack@arg+2,w
  6227  165B  1903               	btfsc	3,2
  6228  165C  2E66               	goto	l3396
  6229  165D  2E45               	goto	l3388
  6230  165E                     l3394:	
  6231  165E  3001               	movlw	1
  6232  165F  02F5               	subwf	___ftpack@exp,f
  6233  1660  3001               	movlw	1
  6234  1661                     u2615:	
  6235  1661  35F2               	lslf	___ftpack@arg,f
  6236  1662  0DF3               	rlf	___ftpack@arg+1,f
  6237  1663  0DF4               	rlf	___ftpack@arg+2,f
  6238  1664  0B89               	decfsz	9,f
  6239  1665  2E61               	goto	u2615
  6240  1666                     l3396:	
  6241  1666  1BF3               	btfsc	___ftpack@arg+1,7
  6242  1667  2E6C               	goto	l1034
  6243  1668  3002               	movlw	2
  6244  1669  0275               	subwf	___ftpack@exp,w
  6245  166A  1803               	skipnc
  6246  166B  2E5E               	goto	l3394
  6247  166C                     l1034:	
  6248  166C  1875               	btfsc	___ftpack@exp,0
  6249  166D  2E74               	goto	l1035
  6250  166E  30FF               	movlw	255
  6251  166F  05F2               	andwf	___ftpack@arg,f
  6252  1670  307F               	movlw	127
  6253  1671  05F3               	andwf	___ftpack@arg+1,f
  6254  1672  30FF               	movlw	255
  6255  1673  05F4               	andwf	___ftpack@arg+2,f
  6256  1674                     l1035:	
  6257  1674  1003               	clrc
  6258  1675  0CF5               	rrf	___ftpack@exp,f
  6259  1676  0875               	movf	___ftpack@exp,w
  6260  1677  00F7               	movwf	??___ftpack
  6261  1678  01F8               	clrf	??___ftpack+1
  6262  1679  01F9               	clrf	??___ftpack+2
  6263  167A  3010               	movlw	16
  6264  167B                     u2655:	
  6265  167B  35F7               	lslf	??___ftpack,f
  6266  167C  0DF8               	rlf	??___ftpack+1,f
  6267  167D  0DF9               	rlf	??___ftpack+2,f
  6268  167E  0B89               	decfsz	9,f
  6269  167F  2E7B               	goto	u2655
  6270  1680  0877               	movf	??___ftpack,w
  6271  1681  04F2               	iorwf	___ftpack@arg,f
  6272  1682  0878               	movf	??___ftpack+1,w
  6273  1683  04F3               	iorwf	___ftpack@arg+1,f
  6274  1684  0879               	movf	??___ftpack+2,w
  6275  1685  04F4               	iorwf	___ftpack@arg+2,f
  6276  1686  0876               	movf	___ftpack@sign,w
  6277  1687  1903               	btfsc	3,2
  6278  1688  0008               	return
  6279  1689  17F4               	bsf	___ftpack@arg+2,7
  6280  168A  0008               	return
  6281  168B                     __end_of___ftpack:	
  6282                           
  6283                           	psect	text31
  6284  1408                     __ptext31:	
  6285 ;; *************** function _ADC_get_val *****************
  6286 ;; Defined at:
  6287 ;;		line 3548 in file "newmain1.c"
  6288 ;; Parameters:    Size  Location     Type
  6289 ;;  channel         1    wreg     unsigned char 
  6290 ;; Auto vars:     Size  Location     Type
  6291 ;;  channel         1    8[COMMON] unsigned char 
  6292 ;;  return_val      2    6[COMMON] unsigned int 
  6293 ;; Return value:  Size  Location     Type
  6294 ;;                  2    2[COMMON] unsigned int 
  6295 ;; Registers used:
  6296 ;;		wreg
  6297 ;; Tracked objects:
  6298 ;;		On entry : 0/0
  6299 ;;		On exit  : 0/0
  6300 ;;		Unchanged: 0/0
  6301 ;; Data sizes:     COMMON   BANK0   BANK1   BANK2   BANK3   BANK4   BANK5   BANK6   BANK7   BANK8   BANK9  BANK10  BANK1
      +1  BANK12  BANK13  BANK14  BANK15  BANK16  BANK17  BANK18
  6302 ;;      Params:         2       0       0       0       0       0       0       0       0       0       0       0       
      +0       0       0       0       0       0       0       0
  6303 ;;      Locals:         3       0       0       0       0       0       0       0       0       0       0       0       
      +0       0       0       0       0       0       0       0
  6304 ;;      Temps:          2       0       0       0       0       0       0       0       0       0       0       0       
      +0       0       0       0       0       0       0       0
  6305 ;;      Totals:         7       0       0       0       0       0       0       0       0       0       0       0       
      +0       0       0       0       0       0       0       0
  6306 ;;Total ram usage:        7 bytes
  6307 ;; Hardware stack levels used:    1
  6308 ;; Hardware stack levels required when called:    1
  6309 ;; This function calls:
  6310 ;;		Nothing
  6311 ;; This function is called by:
  6312 ;;		_main
  6313 ;;		_get_current
  6314 ;; This function uses a non-reentrant model
  6315 ;;
  6316                           
  6317                           
  6318                           ;psect for function _ADC_get_val
  6319  1408                     _ADC_get_val:	
  6320                           
  6321                           ;incstack = 0
  6322                           ; Regs used in _ADC_get_val: [wreg]
  6323                           ;ADC_get_val@channel stored from wreg
  6324  1408  00F8               	movwf	ADC_get_val@channel
  6325                           
  6326                           ;newmain1.c: 3550: unsigned int return_val;
  6327                           ;newmain1.c: 3551: GIE = 0;
  6328  1409  138B               	bcf	11,7	;volatile
  6329                           
  6330                           ;newmain1.c: 3552: ADCON0 = channel;
  6331  140A  0878               	movf	ADC_get_val@channel,w
  6332  140B  0021               	movlb	1	; select bank1
  6333  140C  009D               	movwf	29	;volatile
  6334                           
  6335                           ;newmain1.c: 3553: _delay((unsigned long)((1)*(16000000/4000.0)));
  6336  140D  3006               	movlw	6
  6337  140E  00F5               	movwf	??_ADC_get_val+1
  6338  140F  3030               	movlw	48
  6339  1410  00F4               	movwf	??_ADC_get_val
  6340  1411                     u6847:	
  6341  1411  0BF4               	decfsz	??_ADC_get_val,f
  6342  1412  2C11               	goto	u6847
  6343  1413  0BF5               	decfsz	??_ADC_get_val+1,f
  6344  1414  2C11               	goto	u6847
  6345  1415  0000               	nop
  6346                           
  6347                           ;newmain1.c: 3555: ADCON0bits.GO_nDONE = 1;
  6348  1416  0021               	movlb	1	; select bank1
  6349  1417  149D               	bsf	29,1	;volatile
  6350  1418                     l784:	
  6351                           ;newmain1.c: 3557: while (ADCON0bits.GO_nDONE == 1);
  6352                           
  6353  1418  189D               	btfsc	29,1	;volatile
  6354  1419  2C18               	goto	l784
  6355                           
  6356                           ;newmain1.c: 3558: {}
  6357                           ;newmain1.c: 3560: return_val = ADRESH << 8 | ADRESL;
  6358  141A  081C               	movf	28,w	;volatile
  6359  141B  00F7               	movwf	ADC_get_val@return_val+1
  6360  141C  081B               	movf	27,w	;volatile
  6361  141D  00F6               	movwf	ADC_get_val@return_val
  6362                           
  6363                           ;newmain1.c: 3561: GIE = 1;
  6364  141E  178B               	bsf	11,7	;volatile
  6365                           
  6366                           ;newmain1.c: 3562: return return_val;
  6367  141F  0877               	movf	ADC_get_val@return_val+1,w
  6368  1420  00F3               	movwf	?_ADC_get_val+1
  6369  1421  0876               	movf	ADC_get_val@return_val,w
  6370  1422  00F2               	movwf	?_ADC_get_val
  6371  1423  0008               	return
  6372  1424                     __end_of_ADC_get_val:	
  6373                           
  6374                           	psect	text32
  6375  168B                     __ptext32:	
  6376 ;; *************** function _Vout_set *****************
  6377 ;; Defined at:
  6378 ;;		line 3667 in file "newmain1.c"
  6379 ;; Parameters:    Size  Location     Type
  6380 ;;  Volts           2    6[COMMON] int 
  6381 ;; Auto vars:     Size  Location     Type
  6382 ;;  digi_step       4    0[BANK0 ] unsigned long 
  6383 ;; Return value:  Size  Location     Type
  6384 ;;		None               void
  6385 ;; Registers used:
  6386 ;;		wreg, fsr0l, fsr0h, status,2, status,0, pclath, cstack
  6387 ;; Tracked objects:
  6388 ;;		On entry : 0/0
  6389 ;;		On exit  : 0/0
  6390 ;;		Unchanged: 0/0
  6391 ;; Data sizes:     COMMON   BANK0   BANK1   BANK2   BANK3   BANK4   BANK5   BANK6   BANK7   BANK8   BANK9  BANK10  BANK1
      +1  BANK12  BANK13  BANK14  BANK15  BANK16  BANK17  BANK18
  6392 ;;      Params:         2       0       0       0       0       0       0       0       0       0       0       0       
      +0       0       0       0       0       0       0       0
  6393 ;;      Locals:         0       4       0       0       0       0       0       0       0       0       0       0       
      +0       0       0       0       0       0       0       0
  6394 ;;      Temps:          0       0       0       0       0       0       0       0       0       0       0       0       
      +0       0       0       0       0       0       0       0
  6395 ;;      Totals:         2       4       0       0       0       0       0       0       0       0       0       0       
      +0       0       0       0       0       0       0       0
  6396 ;;Total ram usage:        6 bytes
  6397 ;; Hardware stack levels used:    1
  6398 ;; Hardware stack levels required when called:    3
  6399 ;; This function calls:
  6400 ;;		_digitalpot
  6401 ;; This function is called by:
  6402 ;;		_main
  6403 ;; This function uses a non-reentrant model
  6404 ;;
  6405                           
  6406                           
  6407                           ;psect for function _Vout_set
  6408  168B                     _Vout_set:	
  6409                           
  6410                           ;newmain1.c: 3668: unsigned long digi_step = 0;
  6411                           
  6412                           ;incstack = 0
  6413                           ; Regs used in _Vout_set: [wreg-fsr0h+status,2+status,0+pclath+cstack]
  6414  168B  3000               	movlw	0
  6415  168C  0020               	movlb	0	; select bank0
  6416  168D  00A3               	movwf	Vout_set@digi_step+3
  6417  168E  3000               	movlw	0
  6418  168F  00A2               	movwf	Vout_set@digi_step+2
  6419  1690  3000               	movlw	0
  6420  1691  00A1               	movwf	Vout_set@digi_step+1
  6421  1692  3000               	movlw	0
  6422  1693  00A0               	movwf	Vout_set@digi_step
  6423                           
  6424                           ;newmain1.c: 3674: switch (Volts) {
  6425  1694  2ED6               	goto	l5552
  6426  1695                     l5534:	
  6427                           ;newmain1.c: 3676: case 12:
  6428                           
  6429                           
  6430                           ;newmain1.c: 3677: digi_step = 44;
  6431  1695  3000               	movlw	0
  6432  1696  00A3               	movwf	Vout_set@digi_step+3
  6433  1697  3000               	movlw	0
  6434  1698  00A2               	movwf	Vout_set@digi_step+2
  6435  1699  3000               	movlw	0
  6436  169A  00A1               	movwf	Vout_set@digi_step+1
  6437  169B  302C               	movlw	44
  6438  169C  2ED4               	goto	L27
  6439  169D                     l5536:	
  6440                           ;newmain1.c: 3679: case 16:
  6441                           
  6442                           ;newmain1.c: 3678: break;
  6443                           
  6444                           
  6445                           ;newmain1.c: 3680: digi_step = 70;
  6446  169D  3000               	movlw	0
  6447  169E  00A3               	movwf	Vout_set@digi_step+3
  6448  169F  3000               	movlw	0
  6449  16A0  00A2               	movwf	Vout_set@digi_step+2
  6450  16A1  3000               	movlw	0
  6451  16A2  00A1               	movwf	Vout_set@digi_step+1
  6452  16A3  3046               	movlw	70
  6453  16A4  2ED4               	goto	L27
  6454  16A5                     l5538:	
  6455                           ;newmain1.c: 3682: case 19:
  6456                           
  6457                           ;newmain1.c: 3681: break;
  6458                           
  6459                           
  6460                           ;newmain1.c: 3683: digi_step = 81;
  6461  16A5  3000               	movlw	0
  6462  16A6  00A3               	movwf	Vout_set@digi_step+3
  6463  16A7  3000               	movlw	0
  6464  16A8  00A2               	movwf	Vout_set@digi_step+2
  6465  16A9  3000               	movlw	0
  6466  16AA  00A1               	movwf	Vout_set@digi_step+1
  6467  16AB  3051               	movlw	81
  6468  16AC  2ED4               	goto	L27
  6469  16AD                     l5540:	
  6470                           ;newmain1.c: 3685: case 24:
  6471                           
  6472                           ;newmain1.c: 3684: break;
  6473                           
  6474                           
  6475                           ;newmain1.c: 3686: digi_step = 93;
  6476  16AD  3000               	movlw	0
  6477  16AE  00A3               	movwf	Vout_set@digi_step+3
  6478  16AF  3000               	movlw	0
  6479  16B0  00A2               	movwf	Vout_set@digi_step+2
  6480  16B1  3000               	movlw	0
  6481  16B2  00A1               	movwf	Vout_set@digi_step+1
  6482  16B3  305D               	movlw	93
  6483  16B4  2ED4               	goto	L27
  6484  16B5                     l5542:	
  6485                           ;newmain1.c: 3688: case 28:
  6486                           
  6487                           ;newmain1.c: 3687: break;
  6488                           
  6489                           
  6490                           ;newmain1.c: 3689: digi_step = 98;
  6491  16B5  3000               	movlw	0
  6492  16B6  00A3               	movwf	Vout_set@digi_step+3
  6493  16B7  3000               	movlw	0
  6494  16B8  00A2               	movwf	Vout_set@digi_step+2
  6495  16B9  3000               	movlw	0
  6496  16BA  00A1               	movwf	Vout_set@digi_step+1
  6497  16BB  3062               	movlw	98
  6498  16BC  2ED4               	goto	L27
  6499  16BD                     l5544:	
  6500                           ;newmain1.c: 3691: case 30:
  6501                           
  6502                           ;newmain1.c: 3690: break;
  6503                           
  6504                           
  6505                           ;newmain1.c: 3692: digi_step = 101;
  6506  16BD  3000               	movlw	0
  6507  16BE  00A3               	movwf	Vout_set@digi_step+3
  6508  16BF  3000               	movlw	0
  6509  16C0  00A2               	movwf	Vout_set@digi_step+2
  6510  16C1  3000               	movlw	0
  6511  16C2  00A1               	movwf	Vout_set@digi_step+1
  6512  16C3  3065               	movlw	101
  6513  16C4  2ED4               	goto	L27
  6514  16C5                     l5546:	
  6515                           ;newmain1.c: 3694: case 34:
  6516                           
  6517                           ;newmain1.c: 3693: break;
  6518                           
  6519                           
  6520                           ;newmain1.c: 3695: digi_step = 125;
  6521  16C5  3000               	movlw	0
  6522  16C6  00A3               	movwf	Vout_set@digi_step+3
  6523  16C7  3000               	movlw	0
  6524  16C8  00A2               	movwf	Vout_set@digi_step+2
  6525  16C9  3000               	movlw	0
  6526  16CA  00A1               	movwf	Vout_set@digi_step+1
  6527  16CB  307D               	movlw	125
  6528  16CC  2ED4               	goto	L27
  6529  16CD                     l5548:	
  6530                           ;newmain1.c: 3697: default:
  6531                           
  6532                           ;newmain1.c: 3696: break;
  6533                           
  6534                           
  6535                           ;newmain1.c: 3698: digi_step = 0;
  6536  16CD  3000               	movlw	0
  6537  16CE  00A3               	movwf	Vout_set@digi_step+3
  6538  16CF  3000               	movlw	0
  6539  16D0  00A2               	movwf	Vout_set@digi_step+2
  6540  16D1  3000               	movlw	0
  6541  16D2  00A1               	movwf	Vout_set@digi_step+1
  6542  16D3  3000               	movlw	0
  6543  16D4                     L27:	
  6544  16D4  00A0               	movwf	Vout_set@digi_step
  6545                           
  6546                           ;newmain1.c: 3700: }
  6547                           
  6548                           ;newmain1.c: 3699: break;
  6549  16D5  2EF2               	goto	l5554
  6550  16D6                     l5552:	
  6551                           
  6552                           ; Switch on 2 bytes has been partitioned into a top level switch of size 1, and 1 sub-sw
      +                          itches
  6553                           ; Switch size 1, requested type "space"
  6554                           ; Number of cases is 1, Range of values is 0 to 0
  6555                           ; switch strategies available:
  6556                           ; Name         Instructions Cycles
  6557                           ; simple_byte            4     3 (average)
  6558                           ; direct_byte            8     6 (fixed)
  6559                           ; jumptable            260     6 (fixed)
  6560                           ;	Chosen strategy is simple_byte
  6561  16D6  0877               	movf	Vout_set@Volts+1,w
  6562  16D7  3A00               	xorlw	0	; case 0
  6563  16D8  1903               	skipnz
  6564  16D9  2EDB               	goto	l6722
  6565  16DA  2ECD               	goto	l5548
  6566  16DB                     l6722:	
  6567                           
  6568                           ; Switch size 1, requested type "space"
  6569                           ; Number of cases is 7, Range of values is 12 to 34
  6570                           ; switch strategies available:
  6571                           ; Name         Instructions Cycles
  6572                           ; simple_byte           22    12 (average)
  6573                           ; direct_byte           55     9 (fixed)
  6574                           ; jumptable            263     9 (fixed)
  6575                           ;	Chosen strategy is simple_byte
  6576  16DB  0876               	movf	Vout_set@Volts,w
  6577  16DC  3A0C               	xorlw	12	; case 12
  6578  16DD  1903               	skipnz
  6579  16DE  2E95               	goto	l5534
  6580  16DF  3A1C               	xorlw	28	; case 16
  6581  16E0  1903               	skipnz
  6582  16E1  2E9D               	goto	l5536
  6583  16E2  3A03               	xorlw	3	; case 19
  6584  16E3  1903               	skipnz
  6585  16E4  2EA5               	goto	l5538
  6586  16E5  3A0B               	xorlw	11	; case 24
  6587  16E6  1903               	skipnz
  6588  16E7  2EAD               	goto	l5540
  6589  16E8  3A04               	xorlw	4	; case 28
  6590  16E9  1903               	skipnz
  6591  16EA  2EB5               	goto	l5542
  6592  16EB  3A02               	xorlw	2	; case 30
  6593  16EC  1903               	skipnz
  6594  16ED  2EBD               	goto	l5544
  6595  16EE  3A3C               	xorlw	60	; case 34
  6596  16EF  1903               	skipnz
  6597  16F0  2EC5               	goto	l5546
  6598  16F1  2ECD               	goto	l5548
  6599  16F2                     l5554:	
  6600                           
  6601                           ;newmain1.c: 3706: digitalpot((unsigned char) digi_step);
  6602  16F2  0820               	movf	Vout_set@digi_step,w
  6603  16F3  3194  2424         	fcall	_digitalpot
  6604  16F5  0008               	return
  6605  16F6                     __end_of_Vout_set:	
  6606                           
  6607                           	psect	text33
  6608  1424                     __ptext33:	
  6609 ;; *************** function _digitalpot *****************
  6610 ;; Defined at:
  6611 ;;		line 3709 in file "newmain1.c"
  6612 ;; Parameters:    Size  Location     Type
  6613 ;;  value           1    wreg     unsigned char 
  6614 ;; Auto vars:     Size  Location     Type
  6615 ;;  value           1    5[COMMON] unsigned char 
  6616 ;; Return value:  Size  Location     Type
  6617 ;;		None               void
  6618 ;; Registers used:
  6619 ;;		wreg, status,2, status,0, pclath, cstack
  6620 ;; Tracked objects:
  6621 ;;		On entry : 0/0
  6622 ;;		On exit  : 0/0
  6623 ;;		Unchanged: 0/0
  6624 ;; Data sizes:     COMMON   BANK0   BANK1   BANK2   BANK3   BANK4   BANK5   BANK6   BANK7   BANK8   BANK9  BANK10  BANK1
      +1  BANK12  BANK13  BANK14  BANK15  BANK16  BANK17  BANK18
  6625 ;;      Params:         0       0       0       0       0       0       0       0       0       0       0       0       
      +0       0       0       0       0       0       0       0
  6626 ;;      Locals:         1       0       0       0       0       0       0       0       0       0       0       0       
      +0       0       0       0       0       0       0       0
  6627 ;;      Temps:          2       0       0       0       0       0       0       0       0       0       0       0       
      +0       0       0       0       0       0       0       0
  6628 ;;      Totals:         3       0       0       0       0       0       0       0       0       0       0       0       
      +0       0       0       0       0       0       0       0
  6629 ;;Total ram usage:        3 bytes
  6630 ;; Hardware stack levels used:    1
  6631 ;; Hardware stack levels required when called:    2
  6632 ;; This function calls:
  6633 ;;		_i2c_Start
  6634 ;;		_i2c_Stop
  6635 ;;		_i2c_Write
  6636 ;; This function is called by:
  6637 ;;		_Vout_set
  6638 ;; This function uses a non-reentrant model
  6639 ;;
  6640                           
  6641                           
  6642                           ;psect for function _digitalpot
  6643  1424                     _digitalpot:	
  6644                           
  6645                           ;incstack = 0
  6646                           ; Regs used in _digitalpot: [wreg+status,2+status,0+pclath+cstack]
  6647                           ;digitalpot@value stored from wreg
  6648  1424  00F5               	movwf	digitalpot@value
  6649                           
  6650                           ;newmain1.c: 3710: i2c_Start();
  6651  1425  319F  272F  3194   	fcall	_i2c_Start
  6652                           
  6653                           ;newmain1.c: 3711: i2c_Write(0x5C);
  6654  1428  305C               	movlw	92
  6655  1429  319F  2760  3194   	fcall	_i2c_Write
  6656                           
  6657                           ;newmain1.c: 3712: i2c_Write(0b00000000);
  6658  142C  3000               	movlw	0
  6659  142D  319F  2760  3194   	fcall	_i2c_Write
  6660                           
  6661                           ;newmain1.c: 3713: i2c_Write(value);
  6662  1430  0875               	movf	digitalpot@value,w
  6663  1431  319F  2760  3194   	fcall	_i2c_Write
  6664                           
  6665                           ;newmain1.c: 3714: i2c_Stop();
  6666  1434  319F  2734  3194   	fcall	_i2c_Stop
  6667                           
  6668                           ;newmain1.c: 3715: _delay((unsigned long)((20)*(16000000/4000.0)));
  6669  1437  3068               	movlw	104
  6670  1438  00F4               	movwf	??_digitalpot+1
  6671  1439  30E4               	movlw	228
  6672  143A  00F3               	movwf	??_digitalpot
  6673  143B                     u6857:	
  6674  143B  0BF3               	decfsz	??_digitalpot,f
  6675  143C  2C3B               	goto	u6857
  6676  143D  0BF4               	decfsz	??_digitalpot+1,f
  6677  143E  2C3B               	goto	u6857
  6678  143F  0000               	nop
  6679  1440  0008               	return
  6680  1441                     __end_of_digitalpot:	
  6681                           
  6682                           	psect	text34
  6683  1F60                     __ptext34:	
  6684 ;; *************** function _i2c_Write *****************
  6685 ;; Defined at:
  6686 ;;		line 2585 in file "newmain1.c"
  6687 ;; Parameters:    Size  Location     Type
  6688 ;;  data            1    wreg     unsigned char 
  6689 ;; Auto vars:     Size  Location     Type
  6690 ;;  data            1    2[COMMON] unsigned char 
  6691 ;; Return value:  Size  Location     Type
  6692 ;;		None               void
  6693 ;; Registers used:
  6694 ;;		wreg, status,2
  6695 ;; Tracked objects:
  6696 ;;		On entry : 0/0
  6697 ;;		On exit  : 0/0
  6698 ;;		Unchanged: 0/0
  6699 ;; Data sizes:     COMMON   BANK0   BANK1   BANK2   BANK3   BANK4   BANK5   BANK6   BANK7   BANK8   BANK9  BANK10  BANK1
      +1  BANK12  BANK13  BANK14  BANK15  BANK16  BANK17  BANK18
  6700 ;;      Params:         0       0       0       0       0       0       0       0       0       0       0       0       
      +0       0       0       0       0       0       0       0
  6701 ;;      Locals:         1       0       0       0       0       0       0       0       0       0       0       0       
      +0       0       0       0       0       0       0       0
  6702 ;;      Temps:          0       0       0       0       0       0       0       0       0       0       0       0       
      +0       0       0       0       0       0       0       0
  6703 ;;      Totals:         1       0       0       0       0       0       0       0       0       0       0       0       
      +0       0       0       0       0       0       0       0
  6704 ;;Total ram usage:        1 bytes
  6705 ;; Hardware stack levels used:    1
  6706 ;; Hardware stack levels required when called:    1
  6707 ;; This function calls:
  6708 ;;		Nothing
  6709 ;; This function is called by:
  6710 ;;		_i2c_Write_string
  6711 ;;		_i2c_write_char
  6712 ;;		_init_i2c_lcd_5v
  6713 ;;		_clear_lcd
  6714 ;;		_i2c_first_line
  6715 ;;		_i2c_second_line
  6716 ;;		_lcd_set_cursor
  6717 ;;		_digitalpot
  6718 ;;		_lcd_blink_cursor
  6719 ;;		_contrast_set
  6720 ;;		_print_second_line
  6721 ;;		_lcd_createChar
  6722 ;; This function uses a non-reentrant model
  6723 ;;
  6724                           
  6725                           
  6726                           ;psect for function _i2c_Write
  6727  1F60                     _i2c_Write:	
  6728                           
  6729                           ;incstack = 0
  6730                           ; Regs used in _i2c_Write: [wreg+status,2]
  6731                           ;i2c_Write@data stored from wreg
  6732  1F60  00F2               	movwf	i2c_Write@data
  6733                           
  6734                           ;newmain1.c: 2586: SSP1BUF = data;
  6735  1F61  0872               	movf	i2c_Write@data,w
  6736  1F62  0024               	movlb	4	; select bank4
  6737  1F63  0091               	movwf	17	;volatile
  6738  1F64                     l575:	
  6739                           ;newmain1.c: 2587: while (SSP1STATbits.BF == 1);
  6740                           
  6741  1F64  1814               	btfsc	20,0	;volatile
  6742  1F65  2F64               	goto	l575
  6743  1F66                     l5252:	
  6744                           ;newmain1.c: 2588: while ((SSP1CON2 & 0x1F) || (SSP1STAT & 0x04));
  6745                           
  6746  1F66  0816               	movf	22,w	;volatile
  6747  1F67  391F               	andlw	31
  6748  1F68  1D03               	btfss	3,2
  6749  1F69  2F66               	goto	l5252
  6750  1F6A  1D14               	btfss	20,2	;volatile
  6751  1F6B  0008               	return
  6752  1F6C  2F66               	goto	l5252
  6753  1F6D                     __end_of_i2c_Write:	
  6754                           
  6755                           	psect	text35
  6756  1F34                     __ptext35:	
  6757 ;; *************** function _i2c_Stop *****************
  6758 ;; Defined at:
  6759 ;;		line 2591 in file "newmain1.c"
  6760 ;; Parameters:    Size  Location     Type
  6761 ;;		None
  6762 ;; Auto vars:     Size  Location     Type
  6763 ;;		None
  6764 ;; Return value:  Size  Location     Type
  6765 ;;		None               void
  6766 ;; Registers used:
  6767 ;;		None
  6768 ;; Tracked objects:
  6769 ;;		On entry : 0/0
  6770 ;;		On exit  : 0/0
  6771 ;;		Unchanged: 0/0
  6772 ;; Data sizes:     COMMON   BANK0   BANK1   BANK2   BANK3   BANK4   BANK5   BANK6   BANK7   BANK8   BANK9  BANK10  BANK1
      +1  BANK12  BANK13  BANK14  BANK15  BANK16  BANK17  BANK18
  6773 ;;      Params:         0       0       0       0       0       0       0       0       0       0       0       0       
      +0       0       0       0       0       0       0       0
  6774 ;;      Locals:         0       0       0       0       0       0       0       0       0       0       0       0       
      +0       0       0       0       0       0       0       0
  6775 ;;      Temps:          0       0       0       0       0       0       0       0       0       0       0       0       
      +0       0       0       0       0       0       0       0
  6776 ;;      Totals:         0       0       0       0       0       0       0       0       0       0       0       0       
      +0       0       0       0       0       0       0       0
  6777 ;;Total ram usage:        0 bytes
  6778 ;; Hardware stack levels used:    1
  6779 ;; Hardware stack levels required when called:    1
  6780 ;; This function calls:
  6781 ;;		Nothing
  6782 ;; This function is called by:
  6783 ;;		_i2c_Write_string
  6784 ;;		_i2c_write_char
  6785 ;;		_init_i2c_lcd_5v
  6786 ;;		_clear_lcd
  6787 ;;		_i2c_first_line
  6788 ;;		_i2c_second_line
  6789 ;;		_lcd_set_cursor
  6790 ;;		_digitalpot
  6791 ;;		_lcd_blink_cursor
  6792 ;;		_contrast_set
  6793 ;;		_print_second_line
  6794 ;;		_lcd_createChar
  6795 ;; This function uses a non-reentrant model
  6796 ;;
  6797                           
  6798                           
  6799                           ;psect for function _i2c_Stop
  6800  1F34                     _i2c_Stop:	
  6801                           
  6802                           ;newmain1.c: 2592: SSP1CON2bits.PEN = 1;
  6803                           
  6804                           ;incstack = 0
  6805                           ; Regs used in _i2c_Stop: []
  6806  1F34  0024               	movlb	4	; select bank4
  6807  1F35  1516               	bsf	22,2	;volatile
  6808  1F36                     l584:	
  6809                           ;newmain1.c: 2593: while (SSP1CON2bits.PEN == 1);
  6810                           
  6811  1F36  1D16               	btfss	22,2	;volatile
  6812  1F37  0008               	return
  6813  1F38  2F36               	goto	l584
  6814  1F39                     __end_of_i2c_Stop:	
  6815                           
  6816                           	psect	text36
  6817  1F2F                     __ptext36:	
  6818 ;; *************** function _i2c_Start *****************
  6819 ;; Defined at:
  6820 ;;		line 2577 in file "newmain1.c"
  6821 ;; Parameters:    Size  Location     Type
  6822 ;;		None
  6823 ;; Auto vars:     Size  Location     Type
  6824 ;;		None
  6825 ;; Return value:  Size  Location     Type
  6826 ;;		None               void
  6827 ;; Registers used:
  6828 ;;		None
  6829 ;; Tracked objects:
  6830 ;;		On entry : 0/0
  6831 ;;		On exit  : 0/0
  6832 ;;		Unchanged: 0/0
  6833 ;; Data sizes:     COMMON   BANK0   BANK1   BANK2   BANK3   BANK4   BANK5   BANK6   BANK7   BANK8   BANK9  BANK10  BANK1
      +1  BANK12  BANK13  BANK14  BANK15  BANK16  BANK17  BANK18
  6834 ;;      Params:         0       0       0       0       0       0       0       0       0       0       0       0       
      +0       0       0       0       0       0       0       0
  6835 ;;      Locals:         0       0       0       0       0       0       0       0       0       0       0       0       
      +0       0       0       0       0       0       0       0
  6836 ;;      Temps:          0       0       0       0       0       0       0       0       0       0       0       0       
      +0       0       0       0       0       0       0       0
  6837 ;;      Totals:         0       0       0       0       0       0       0       0       0       0       0       0       
      +0       0       0       0       0       0       0       0
  6838 ;;Total ram usage:        0 bytes
  6839 ;; Hardware stack levels used:    1
  6840 ;; Hardware stack levels required when called:    1
  6841 ;; This function calls:
  6842 ;;		Nothing
  6843 ;; This function is called by:
  6844 ;;		_i2c_Write_string
  6845 ;;		_i2c_write_char
  6846 ;;		_init_i2c_lcd_5v
  6847 ;;		_clear_lcd
  6848 ;;		_i2c_first_line
  6849 ;;		_i2c_second_line
  6850 ;;		_lcd_set_cursor
  6851 ;;		_digitalpot
  6852 ;;		_lcd_blink_cursor
  6853 ;;		_contrast_set
  6854 ;;		_print_second_line
  6855 ;;		_lcd_createChar
  6856 ;; This function uses a non-reentrant model
  6857 ;;
  6858                           
  6859                           
  6860                           ;psect for function _i2c_Start
  6861  1F2F                     _i2c_Start:	
  6862                           
  6863                           ;newmain1.c: 2579: SSP1CON2bits.SEN = 1;
  6864                           
  6865                           ;incstack = 0
  6866                           ; Regs used in _i2c_Start: []
  6867  1F2F  0024               	movlb	4	; select bank4
  6868  1F30  1416               	bsf	22,0	;volatile
  6869  1F31                     l569:	
  6870                           ;newmain1.c: 2581: while (SSP1CON2bits.SEN == 1);
  6871                           
  6872  1F31  1C16               	btfss	22,0	;volatile
  6873  1F32  0008               	return
  6874  1F33  2F31               	goto	l569
  6875  1F34                     __end_of_i2c_Start:	
  6876                           
  6877                           	psect	intentry
  6878  0004                     __pintentry:	
  6879 ;; *************** function _isr *****************
  6880 ;; Defined at:
  6881 ;;		line 943 in file "newmain1.c"
  6882 ;; Parameters:    Size  Location     Type
  6883 ;;		None
  6884 ;; Auto vars:     Size  Location     Type
  6885 ;;		None
  6886 ;; Return value:  Size  Location     Type
  6887 ;;		None               void
  6888 ;; Registers used:
  6889 ;;		wreg, fsr0l, fsr0h, status,2, status,0
  6890 ;; Tracked objects:
  6891 ;;		On entry : 0/0
  6892 ;;		On exit  : 0/0
  6893 ;;		Unchanged: 0/0
  6894 ;; Data sizes:     COMMON   BANK0   BANK1   BANK2   BANK3   BANK4   BANK5   BANK6   BANK7   BANK8   BANK9  BANK10  BANK1
      +1  BANK12  BANK13  BANK14  BANK15  BANK16  BANK17  BANK18
  6895 ;;      Params:         0       0       0       0       0       0       0       0       0       0       0       0       
      +0       0       0       0       0       0       0       0
  6896 ;;      Locals:         0       0       0       0       0       0       0       0       0       0       0       0       
      +0       0       0       0       0       0       0       0
  6897 ;;      Temps:          2       0       0       0       0       0       0       0       0       0       0       0       
      +0       0       0       0       0       0       0       0
  6898 ;;      Totals:         2       0       0       0       0       0       0       0       0       0       0       0       
      +0       0       0       0       0       0       0       0
  6899 ;;Total ram usage:        2 bytes
  6900 ;; Hardware stack levels used:    1
  6901 ;; This function calls:
  6902 ;;		Nothing
  6903 ;; This function is called by:
  6904 ;;		Interrupt level 1
  6905 ;; This function uses a non-reentrant model
  6906 ;;
  6907                           
  6908  0004                     _isr:	
  6909                           
  6910                           ;incstack = 0
  6911                           ; Regs used in _isr: [wreg-fsr0h+status,2+status,0]
  6912  0004  147E               	bsf	126,0	;set compiler interrupt flag (level 1)
  6913  0005  3180               	pagesel	$
  6914  0006  0020               	movlb	0	; select bank0
  6915  0007  087F               	movf	127,w
  6916  0008  00F1               	movwf	??_isr+1
  6917                           
  6918                           ;newmain1.c: 944: if (INTCONbits.TMR0IF == 1)
  6919  0009  1D0B               	btfss	11,2	;volatile
  6920  000A  281C               	goto	i1l4000
  6921                           
  6922                           ;newmain1.c: 945: {
  6923                           ;newmain1.c: 946: if (uart_receive_timer)
  6924  000B  085D               	movf	_uart_receive_timer,w	;volatile
  6925  000C  045E               	iorwf	_uart_receive_timer+1,w	;volatile
  6926  000D  1903               	btfsc	3,2
  6927  000E  2813               	goto	i1l3994
  6928                           
  6929                           ;newmain1.c: 947: uart_receive_timer--;
  6930  000F  30FF               	movlw	255
  6931  0010  07DD               	addwf	_uart_receive_timer,f	;volatile
  6932  0011  30FF               	movlw	255
  6933  0012  3DDE               	addwfc	_uart_receive_timer+1,f	;volatile
  6934  0013                     i1l3994:	
  6935                           
  6936                           ;newmain1.c: 948: if (motor_direction_timer)
  6937  0013  0851               	movf	_motor_direction_timer,w	;volatile
  6938  0014  0452               	iorwf	_motor_direction_timer+1,w	;volatile
  6939  0015  1903               	btfsc	3,2
  6940  0016  281B               	goto	i1l3998
  6941                           
  6942                           ;newmain1.c: 949: motor_direction_timer--;
  6943  0017  30FF               	movlw	255
  6944  0018  07D1               	addwf	_motor_direction_timer,f	;volatile
  6945  0019  30FF               	movlw	255
  6946  001A  3DD2               	addwfc	_motor_direction_timer+1,f	;volatile
  6947  001B                     i1l3998:	
  6948                           
  6949                           ;newmain1.c: 951: INTCONbits.TMR0IF = 0;
  6950  001B  110B               	bcf	11,2	;volatile
  6951  001C                     i1l4000:	
  6952                           
  6953                           ;newmain1.c: 953: }
  6954                           ;newmain1.c: 954: if (PIR1bits.TMR2IF == 1)
  6955  001C  1C91               	btfss	17,1	;volatile
  6956  001D  28C4               	goto	i1l417
  6957                           
  6958                           ;newmain1.c: 955: {
  6959                           ;newmain1.c: 956: if(testjig_timer)
  6960  001E  0859               	movf	_testjig_timer,w	;volatile
  6961  001F  045A               	iorwf	_testjig_timer+1,w	;volatile
  6962  0020  1903               	btfsc	3,2
  6963  0021  2826               	goto	i1l4006
  6964                           
  6965                           ;newmain1.c: 957: {testjig_timer--;}
  6966  0022  3001               	movlw	1
  6967  0023  02D9               	subwf	_testjig_timer,f	;volatile
  6968  0024  3000               	movlw	0
  6969  0025  3BDA               	subwfb	_testjig_timer+1,f	;volatile
  6970  0026                     i1l4006:	
  6971                           
  6972                           ;newmain1.c: 959: if(usart_timer)
  6973  0026  085F               	movf	_usart_timer,w	;volatile
  6974  0027  0460               	iorwf	_usart_timer+1,w	;volatile
  6975  0028  1903               	btfsc	3,2
  6976  0029  282E               	goto	i1l4010
  6977                           
  6978                           ;newmain1.c: 960: {usart_timer--;}
  6979  002A  3001               	movlw	1
  6980  002B  02DF               	subwf	_usart_timer,f	;volatile
  6981  002C  3000               	movlw	0
  6982  002D  3BE0               	subwfb	_usart_timer+1,f	;volatile
  6983  002E                     i1l4010:	
  6984                           
  6985                           ;newmain1.c: 962: if(pickit_timer)
  6986  002E  0857               	movf	_pickit_timer,w	;volatile
  6987  002F  0458               	iorwf	_pickit_timer+1,w	;volatile
  6988  0030  1903               	btfsc	3,2
  6989  0031  2897               	goto	i1l4054
  6990                           
  6991                           ;newmain1.c: 963: {
  6992                           ;newmain1.c: 964: pickit_timer--;
  6993  0032  3001               	movlw	1
  6994  0033  02D7               	subwf	_pickit_timer,f	;volatile
  6995  0034  3000               	movlw	0
  6996  0035  3BD8               	subwfb	_pickit_timer+1,f	;volatile
  6997                           
  6998                           ;newmain1.c: 965: }
  6999  0036  28A1               	goto	i1l4056
  7000  0037                     i1l397:	
  7001                           ;newmain1.c: 969: {
  7002                           ;newmain1.c: 970: case pickit_start:
  7003                           
  7004                           ;newmain1.c: 966: else
  7005                           ;newmain1.c: 967: {
  7006                           ;newmain1.c: 968: switch (pickit_state)
  7007                           
  7008                           
  7009                           ;newmain1.c: 973: LATC2 = 1;
  7010  0037  0022               	movlb	2	; select bank2
  7011  0038  150E               	bsf	14,2	;volatile
  7012                           
  7013                           ;newmain1.c: 974: LATC7 = 1;
  7014  0039  178E               	bsf	14,7	;volatile
  7015                           
  7016                           ;newmain1.c: 975: pickit_timer = 500;
  7017  003A  30F4               	movlw	244
  7018  003B  0020               	movlb	0	; select bank0
  7019  003C  00D7               	movwf	_pickit_timer	;volatile
  7020  003D  3001               	movlw	1
  7021  003E  00D8               	movwf	_pickit_timer+1	;volatile
  7022                           
  7023                           ;newmain1.c: 976: pickit_state = pickit_push_button;
  7024  003F  3002               	movlw	2
  7025  0040  2853               	goto	L32
  7026  0041                     i1l4016:	
  7027                           ;newmain1.c: 979: case pickit_push_button:
  7028                           
  7029                           ;newmain1.c: 977: break;
  7030                           
  7031                           
  7032                           ;newmain1.c: 980: pickit_timer = 500;
  7033  0041  30F4               	movlw	244
  7034  0042  00D7               	movwf	_pickit_timer	;volatile
  7035  0043  3001               	movlw	1
  7036  0044  00D8               	movwf	_pickit_timer+1	;volatile
  7037                           
  7038                           ;newmain1.c: 981: LATC6 = 1;
  7039  0045  0022               	movlb	2	; select bank2
  7040  0046  170E               	bsf	14,6	;volatile
  7041                           
  7042                           ;newmain1.c: 982: pickit_state = pgm_start_delay;
  7043  0047  3003               	movlw	3
  7044  0048  2892               	goto	L31
  7045  0049                     i1l400:	
  7046                           ;newmain1.c: 986: case pgm_start_delay:
  7047                           
  7048                           ;newmain1.c: 984: break;
  7049                           
  7050                           
  7051                           ;newmain1.c: 987: LATC6 = 0;
  7052  0049  0022               	movlb	2	; select bank2
  7053  004A  130E               	bcf	14,6	;volatile
  7054                           
  7055                           ;newmain1.c: 988: pickit_pgm_timeout = 0;
  7056  004B  0020               	movlb	0	; select bank0
  7057  004C  01D3               	clrf	_pickit_pgm_timeout	;volatile
  7058  004D  01D4               	clrf	_pickit_pgm_timeout+1	;volatile
  7059                           
  7060                           ;newmain1.c: 989: pickit_timer = 500;
  7061  004E  30F4               	movlw	244
  7062  004F  00D7               	movwf	_pickit_timer	;volatile
  7063  0050  3001               	movlw	1
  7064  0051  00D8               	movwf	_pickit_timer+1	;volatile
  7065                           
  7066                           ;newmain1.c: 990: pickit_state = pickit_busy;
  7067  0052  3004               	movlw	4
  7068  0053                     L32:	
  7069  0053  00F0               	movwf	??_isr
  7070  0054  0870               	movf	??_isr,w
  7071  0055  2895               	goto	L30
  7072  0056                     i1l4026:	
  7073                           ;newmain1.c: 993: case pickit_busy:
  7074                           
  7075                           ;newmain1.c: 991: break;
  7076                           
  7077                           
  7078                           ;newmain1.c: 995: pickit_pgm_timeout++;
  7079  0056  3001               	movlw	1
  7080  0057  07D3               	addwf	_pickit_pgm_timeout,f	;volatile
  7081  0058  3000               	movlw	0
  7082  0059  3DD4               	addwfc	_pickit_pgm_timeout+1,f	;volatile
  7083                           
  7084                           ;newmain1.c: 996: if (pickit_pgm_timeout > 8000)
  7085  005A  301F               	movlw	31
  7086  005B  0254               	subwf	_pickit_pgm_timeout+1,w	;volatile
  7087  005C  3041               	movlw	65
  7088  005D  1903               	skipnz
  7089  005E  0253               	subwf	_pickit_pgm_timeout,w	;volatile
  7090  005F  1803               	btfsc	3,0
  7091                           
  7092                           ;newmain1.c: 997: {
  7093                           ;newmain1.c: 998: pickit_state = pickit_finish;;
  7094  0060  01E4               	clrf	_pickit_state
  7095                           
  7096                           ;newmain1.c: 999: }
  7097                           ;newmain1.c: 1001: if((RE7 == 0)&&(RB0 == 1))
  7098  0061  1F90               	btfss	16,7	;volatile
  7099  0062  1C0D               	btfss	13,0	;volatile
  7100  0063  286F               	goto	i1l4036
  7101                           
  7102                           ;newmain1.c: 1002: {
  7103                           ;newmain1.c: 1003: pickit_all_counter++;
  7104  0064  3001               	movlw	1
  7105  0065  0021               	movlb	1	; select bank1
  7106  0066  07E2               	addwf	_pickit_all_counter^(0+128),f	;volatile
  7107  0067  3000               	movlw	0
  7108  0068  3DE3               	addwfc	(_pickit_all_counter+1)^(0+128),f	;volatile
  7109                           
  7110                           ;newmain1.c: 1007: pickit_state = pickit_error;
  7111  0069  3005               	movlw	5
  7112  006A  00F0               	movwf	??_isr
  7113  006B  0870               	movf	??_isr,w
  7114  006C  0020               	movlb	0	; select bank0
  7115  006D  00E4               	movwf	_pickit_state
  7116                           
  7117                           ;newmain1.c: 1010: }
  7118  006E  2872               	goto	i1l4038
  7119  006F                     i1l4036:	
  7120                           
  7121                           ;newmain1.c: 1011: else
  7122                           ;newmain1.c: 1012: {
  7123                           ;newmain1.c: 1013: pickit_all_counter = 0;
  7124  006F  0021               	movlb	1	; select bank1
  7125  0070  01E2               	clrf	_pickit_all_counter^(0+128)	;volatile
  7126  0071  01E3               	clrf	(_pickit_all_counter+1)^(0+128)	;volatile
  7127  0072                     i1l4038:	
  7128                           
  7129                           ;newmain1.c: 1014: }
  7130                           ;newmain1.c: 1016: if((RE7 == 0)&&(RB0 == 0))
  7131  0072  0020               	movlb	0	; select bank0
  7132  0073  1F90               	btfss	16,7	;volatile
  7133  0074  180D               	btfsc	13,0	;volatile
  7134  0075  2883               	goto	i1l4046
  7135                           
  7136                           ;newmain1.c: 1017: {
  7137                           ;newmain1.c: 1018: pickit_red_counter++;
  7138  0076  3001               	movlw	1
  7139  0077  07D5               	addwf	_pickit_red_counter,f
  7140  0078  3000               	movlw	0
  7141  0079  3DD6               	addwfc	_pickit_red_counter+1,f
  7142                           
  7143                           ;newmain1.c: 1019: if (pickit_red_counter > 400)
  7144  007A  3001               	movlw	1
  7145  007B  0256               	subwf	_pickit_red_counter+1,w
  7146  007C  3091               	movlw	145
  7147  007D  1903               	skipnz
  7148  007E  0255               	subwf	_pickit_red_counter,w
  7149  007F  1C03               	skipc
  7150  0080  2885               	goto	i1l4048
  7151                           
  7152                           ;newmain1.c: 1020: {
  7153                           ;newmain1.c: 1021: pickit_state = pickit_finish;
  7154  0081  01E4               	clrf	_pickit_state
  7155                           
  7156                           ;newmain1.c: 1022: }
  7157                           ;newmain1.c: 1023: }
  7158  0082  2885               	goto	i1l4048
  7159  0083                     i1l4046:	
  7160                           
  7161                           ;newmain1.c: 1024: else
  7162                           ;newmain1.c: 1025: {
  7163                           ;newmain1.c: 1026: pickit_red_counter = 0;
  7164  0083  01D5               	clrf	_pickit_red_counter
  7165  0084  01D6               	clrf	_pickit_red_counter+1
  7166  0085                     i1l4048:	
  7167                           
  7168                           ;newmain1.c: 1027: }
  7169                           ;newmain1.c: 1053: pickit_timer = 1;
  7170  0085  3001               	movlw	1
  7171  0086  00D7               	movwf	_pickit_timer	;volatile
  7172  0087  3000               	movlw	0
  7173  0088  00D8               	movwf	_pickit_timer+1	;volatile
  7174                           
  7175                           ;newmain1.c: 1055: break;
  7176  0089  28A1               	goto	i1l4056
  7177  008A                     i1l408:	
  7178                           ;newmain1.c: 1056: case pickit_error:
  7179                           
  7180                           
  7181                           ;newmain1.c: 1057: LATC2 = 0;
  7182  008A  0022               	movlb	2	; select bank2
  7183  008B  110E               	bcf	14,2	;volatile
  7184                           
  7185                           ;newmain1.c: 1058: LATC7 = 0;
  7186  008C  138E               	bcf	14,7	;volatile
  7187                           
  7188                           ;newmain1.c: 1061: break;
  7189  008D  28A1               	goto	i1l4056
  7190  008E                     i1l409:	
  7191                           ;newmain1.c: 1062: case pickit_finish:
  7192                           
  7193                           
  7194                           ;newmain1.c: 1063: LATC2 = 0;
  7195  008E  0022               	movlb	2	; select bank2
  7196  008F  110E               	bcf	14,2	;volatile
  7197                           
  7198                           ;newmain1.c: 1064: LATC7 = 0;
  7199  0090  138E               	bcf	14,7	;volatile
  7200                           
  7201                           ;newmain1.c: 1067: pickit_state = pickit_idle;
  7202  0091  3006               	movlw	6
  7203  0092                     L31:	
  7204  0092  00F0               	movwf	??_isr
  7205  0093  0870               	movf	??_isr,w
  7206  0094  0020               	movlb	0	; select bank0
  7207  0095                     L30:	
  7208  0095  00E4               	movwf	_pickit_state
  7209                           
  7210                           ;newmain1.c: 1071: }
  7211                           
  7212                           ;newmain1.c: 1070: break;
  7213                           
  7214                           ;newmain1.c: 1069: case pickit_idle:
  7215                           
  7216                           ;newmain1.c: 1068: break;
  7217  0096  28A1               	goto	i1l4056
  7218  0097                     i1l4054:	
  7219  0097  0864               	movf	_pickit_state,w
  7220                           
  7221                           ; Switch size 1, requested type "space"
  7222                           ; Number of cases is 7, Range of values is 0 to 6
  7223                           ; switch strategies available:
  7224                           ; Name         Instructions Cycles
  7225                           ; direct_byte           20     6 (fixed)
  7226                           ; simple_byte           22    12 (average)
  7227                           ; jumptable            260     6 (fixed)
  7228                           ;	Chosen strategy is direct_byte
  7229  0098  0084               	movwf	4
  7230  0099  3007               	movlw	7
  7231  009A  0204               	subwf	4,w
  7232  009B  1803               	skipnc
  7233  009C  28A1               	goto	i1l4056
  7234  009D  3198               	movlp	high i1S6724
  7235  009E  3504               	lslf	4,w
  7236  009F  3E12               	addlw	low i1S6724
  7237  00A0  0082               	movwf	2
  7238  00A1                     i1l395:	
  7239  00A1                     i1l4056:	
  7240                           ;newmain1.c: 1072: }
  7241                           ;newmain1.c: 1074: if(RC2IF==1){
  7242                           
  7243                           
  7244                           ;newmain1.c: 1078: }
  7245                           ;newmain1.c: 1080: if (buzz_timer)
  7246  00A1  0020               	movlb	0	; select bank0
  7247  00A2  084D               	movf	_buzz_timer,w	;volatile
  7248  00A3  044E               	iorwf	_buzz_timer+1,w	;volatile
  7249  00A4  1903               	btfsc	3,2
  7250  00A5  28AB               	goto	i1l412
  7251                           
  7252                           ;newmain1.c: 1081: buzz_timer--;
  7253  00A6  3001               	movlw	1
  7254  00A7  02CD               	subwf	_buzz_timer,f	;volatile
  7255  00A8  3000               	movlw	0
  7256  00A9  3BCE               	subwfb	_buzz_timer+1,f	;volatile
  7257  00AA  28AD               	goto	i1l4060
  7258  00AB                     i1l412:	
  7259                           
  7260                           ;newmain1.c: 1082: else
  7261                           ;newmain1.c: 1083: LATC5 = 0;
  7262  00AB  0022               	movlb	2	; select bank2
  7263  00AC  128E               	bcf	14,5	;volatile
  7264  00AD                     i1l4060:	
  7265                           
  7266                           ;newmain1.c: 1084: if (one_second_timer)
  7267  00AD  0020               	movlb	0	; select bank0
  7268  00AE  086D               	movf	_one_second_timer,w	;volatile
  7269  00AF  046E               	iorwf	_one_second_timer+1,w	;volatile
  7270  00B0  1903               	btfsc	3,2
  7271  00B1  28B7               	goto	i1l4064
  7272                           
  7273                           ;newmain1.c: 1085: one_second_timer--;
  7274  00B2  3001               	movlw	1
  7275  00B3  02ED               	subwf	_one_second_timer,f	;volatile
  7276  00B4  3000               	movlw	0
  7277  00B5  3BEE               	subwfb	_one_second_timer+1,f	;volatile
  7278  00B6  28BB               	goto	i1l4066
  7279  00B7                     i1l4064:	
  7280                           
  7281                           ;newmain1.c: 1086: else {
  7282                           ;newmain1.c: 1087: one_second_timer = 1000;
  7283  00B7  30E8               	movlw	232
  7284  00B8  00ED               	movwf	_one_second_timer	;volatile
  7285  00B9  3003               	movlw	3
  7286  00BA  00EE               	movwf	_one_second_timer+1	;volatile
  7287  00BB                     i1l4066:	
  7288                           
  7289                           ;newmain1.c: 1088: }
  7290                           ;newmain1.c: 1089: if (tj_timer)
  7291  00BB  085B               	movf	_tj_timer,w
  7292  00BC  045C               	iorwf	_tj_timer+1,w
  7293  00BD  1903               	btfsc	3,2
  7294  00BE  28C3               	goto	i1l4070
  7295                           
  7296                           ;newmain1.c: 1090: tj_timer--;
  7297  00BF  3001               	movlw	1
  7298  00C0  02DB               	subwf	_tj_timer,f
  7299  00C1  3000               	movlw	0
  7300  00C2  3BDC               	subwfb	_tj_timer+1,f
  7301  00C3                     i1l4070:	
  7302                           
  7303                           ;newmain1.c: 1091: PIR1bits.TMR2IF = 0;
  7304  00C3  1091               	bcf	17,1	;volatile
  7305  00C4                     i1l417:	
  7306  00C4  0871               	movf	??_isr+1,w
  7307  00C5  00FF               	movwf	127
  7308  00C6  107E               	bcf	126,0	;clear compiler interrupt flag (level 1)
  7309  00C7  0009               	retfie
  7310  00C8                     __end_of_isr:	
  7311  007E                     btemp	set	126	;btemp
  7312  007E                     int$flags	set	126
  7313  007E                     wtemp	set	126
  7314  007E                     wtemp0	set	126
  7315  0080                     wtemp1	set	128
  7316  0082                     wtemp2	set	130
  7317  0084                     wtemp3	set	132
  7318  0086                     wtemp4	set	134
  7319  0088                     wtemp5	set	136
  7320  007F                     wtemp6	set	127
  7321  007E                     ttemp	set	126
  7322  007E                     ttemp0	set	126
  7323  0081                     ttemp1	set	129
  7324  0084                     ttemp2	set	132
  7325  0087                     ttemp3	set	135
  7326  007F                     ttemp4	set	127
  7327  007E                     ltemp	set	126
  7328  007E                     ltemp0	set	126
  7329  0082                     ltemp1	set	130
  7330  0086                     ltemp2	set	134
  7331  0080                     ltemp3	set	128
  7332                           
  7333                           	psect	swtext3
  7334  1812                     __pswtext3:	
  7335  1812                     i1S6724:	
  7336  1812  3180  288E         	ljmp	i1l409
  7337  1814  3180  2837         	ljmp	i1l397
  7338  1816  3180  2841         	ljmp	i1l4016
  7339  1818  3180  2849         	ljmp	i1l400
  7340  181A  3180  2856         	ljmp	i1l4026
  7341  181C  3180  288A         	ljmp	i1l408
  7342  181E  3180  28A1         	ljmp	i1l395
  7343                           
  7344                           	psect	maintext_split_1
  7345  03A2                     L33:	
  7346  03A2  0020               	movlb	0	; select bank0
  7347  03A3  00C6               	movwf	??_main
  7348  03A4                     u6087:	
  7349  03A4  0BC6               	decfsz	??_main,f
  7350  03A5  2BA4               	goto	u6087
  7351                           
  7352                           ;newmain1.c: 1154: power_supply_set(4);
  7353  03A6  3004               	movlw	4
  7354  03A7  3194  24DA  3183   	fcall	_power_supply_set
  7355                           
  7356                           ;newmain1.c: 1156: buzz_timer = 500;
  7357  03AA  30F4               	movlw	244
  7358  03AB  0020               	movlb	0	; select bank0
  7359  03AC  00CD               	movwf	_buzz_timer	;volatile
  7360  03AD  3001               	movlw	1
  7361  03AE  00CE               	movwf	_buzz_timer+1	;volatile
  7362                           
  7363                           ;newmain1.c: 1157: LATC5 = 1;
  7364  03AF  0022               	movlb	2	; select bank2
  7365  03B0  168E               	bsf	14,5	;volatile
  7366                           
  7367                           ;newmain1.c: 1161: print_screen("DCBA Roll-up TJ", "-> Insert PCB & Start");
  7368  03B1  306E               	movlw	low (STR_7| (0+32768))
  7369  03B2  00F6               	movwf	print_screen@top
  7370  03B3  3090               	movlw	high (STR_7| (0+32768))
  7371  03B4  00F7               	movwf	print_screen@top+1
  7372  03B5  3002               	movlw	low (STR_8| (0+32768))
  7373  03B6  00F8               	movwf	print_screen@bottom
  7374  03B7  3090               	movlw	high (STR_8| (0+32768))
  7375  03B8  00F9               	movwf	print_screen@bottom+1
  7376  03B9  319F  27E9  3183   	fcall	_print_screen
  7377                           
  7378                           ;newmain1.c: 1163: if(RF2 == 0)
  7379  03BC  0025               	movlb	5	; select bank5
  7380  03BD  190C               	btfsc	12,2	;volatile
  7381  03BE  2BCB               	goto	l5764
  7382                           
  7383                           ;newmain1.c: 1164: {
  7384                           ;newmain1.c: 1165: print_screen("Board","Detected");
  7385  03BF  30D7               	movlw	low ((STR_13+9)| (0+32768))
  7386  03C0  00F6               	movwf	print_screen@top
  7387  03C1  3090               	movlw	high ((STR_13+9)| (0+32768))
  7388  03C2  00F7               	movwf	print_screen@top+1
  7389  03C3  3046               	movlw	low (STR_10| (0+32768))
  7390  03C4  00F8               	movwf	print_screen@bottom
  7391  03C5  3093               	movlw	high (STR_10| (0+32768))
  7392  03C6  00F9               	movwf	print_screen@bottom+1
  7393  03C7  319F  27E9  3183   	fcall	_print_screen
  7394                           
  7395                           ;newmain1.c: 1166: }
  7396  03CA  2BD7               	goto	l5766
  7397  03CB                     l5764:	
  7398                           
  7399                           ;newmain1.c: 1167: else
  7400                           ;newmain1.c: 1168: {
  7401                           ;newmain1.c: 1169: print_screen("DCBA Roll-up TJ", "-> Insert PCB & Start");
  7402  03CB  306E               	movlw	low (STR_7| (0+32768))
  7403  03CC  00F6               	movwf	print_screen@top
  7404  03CD  3090               	movlw	high (STR_7| (0+32768))
  7405  03CE  00F7               	movwf	print_screen@top+1
  7406  03CF  3002               	movlw	low (STR_8| (0+32768))
  7407  03D0  00F8               	movwf	print_screen@bottom
  7408  03D1  3090               	movlw	high (STR_8| (0+32768))
  7409  03D2  00F9               	movwf	print_screen@bottom+1
  7410  03D3  319F  27E9  3183   	fcall	_print_screen
  7411  03D6                     l422:	
  7412                           ;newmain1.c: 1170: while(1)
  7413                           
  7414                           
  7415                           ;newmain1.c: 1171: {}
  7416  03D6  2BD6               	goto	l422
  7417  03D7                     l5766:	
  7418                           
  7419                           ;newmain1.c: 1172: }
  7420                           ;newmain1.c: 1175: print_screen("Powering Board", " ");
  7421  03D7  30CE               	movlw	low (STR_13| (0+32768))
  7422  03D8  00F6               	movwf	print_screen@top
  7423  03D9  3090               	movlw	high (STR_13| (0+32768))
  7424  03DA  00F7               	movwf	print_screen@top+1
  7425  03DB  309E               	movlw	low ((STR_143+3)| (0+32768))
  7426  03DC  00F8               	movwf	print_screen@bottom
  7427  03DD  3093               	movlw	high ((STR_143+3)| (0+32768))
  7428  03DE  00F9               	movwf	print_screen@bottom+1
  7429  03DF  319F  27E9  3183   	fcall	_print_screen
  7430                           
  7431                           ;newmain1.c: 1177: LATD5 = 1;
  7432  03E2  0022               	movlb	2	; select bank2
  7433  03E3  168F               	bsf	15,5	;volatile
  7434                           
  7435                           ;newmain1.c: 1179: _delay((unsigned long)((150)*(16000000/4000.0)));
  7436  03E4  3004               	movlw	4
  7437  03E5  0020               	movlb	0	; select bank0
  7438  03E6  00C8               	movwf	??_main+2
  7439  03E7  300C               	movlw	12
  7440  03E8  00C7               	movwf	??_main+1
  7441  03E9  3035               	movlw	53
  7442  03EA  00C6               	movwf	??_main
  7443  03EB                     u6097:	
  7444  03EB  0BC6               	decfsz	??_main,f
  7445  03EC  2BEB               	goto	u6097
  7446  03ED  0BC7               	decfsz	??_main+1,f
  7447  03EE  2BEB               	goto	u6097
  7448  03EF  0BC8               	decfsz	??_main+2,f
  7449  03F0  2BEB               	goto	u6097
  7450  03F1  3200               	nop2
  7451                           
  7452                           ;newmain1.c: 1181: LATD4 = 1;
  7453  03F2  0022               	movlb	2	; select bank2
  7454  03F3  160F               	bsf	15,4	;volatile
  7455                           
  7456                           ;newmain1.c: 1183: _delay((unsigned long)((2000)*(16000000/4000.0)));
  7457  03F4  3029               	movlw	41
  7458  03F5  0020               	movlb	0	; select bank0
  7459  03F6  00C8               	movwf	??_main+2
  7460  03F7  3096               	movlw	150
  7461  03F8  00C7               	movwf	??_main+1
  7462  03F9  30A6               	movlw	166
  7463  03FA  00C6               	movwf	??_main
  7464  03FB                     u6107:	
  7465  03FB  0BC6               	decfsz	??_main,f
  7466  03FC  2BFB               	goto	u6107
  7467  03FD  0BC7               	decfsz	??_main+1,f
  7468  03FE  2BFB               	goto	u6107
  7469  03FF  0BC8               	decfsz	??_main+2,f
  7470  0400  2BFB               	goto	u6107
  7471                           
  7472                           ;newmain1.c: 1185: power_supply_set(0);
  7473  0401  3000               	movlw	0
  7474  0402  3194  24DA  3183   	fcall	_power_supply_set
  7475                           
  7476                           ;newmain1.c: 1187: _delay((unsigned long)((500)*(16000000/4000.0)));
  7477  0405  300B               	movlw	11
  7478  0406  0020               	movlb	0	; select bank0
  7479  0407  00C8               	movwf	??_main+2
  7480  0408  3026               	movlw	38
  7481  0409  00C7               	movwf	??_main+1
  7482  040A  3066               	movlw	102
  7483  040B  00C6               	movwf	??_main
  7484  040C                     u6117:	
  7485  040C  0BC6               	decfsz	??_main,f
  7486  040D  2C0C               	goto	u6117
  7487  040E  0BC7               	decfsz	??_main+1,f
  7488  040F  2C0C               	goto	u6117
  7489  0410  0BC8               	decfsz	??_main+2,f
  7490  0411  2C0C               	goto	u6117
  7491  0412  3200               	nop2
  7492                           
  7493                           ;newmain1.c: 1188: Vout_set(34);
  7494  0413  3022               	movlw	34
  7495  0414  00F6               	movwf	Vout_set@Volts
  7496  0415  3000               	movlw	0
  7497  0416  00F7               	movwf	Vout_set@Volts+1
  7498  0417  3196  268B  3183   	fcall	_Vout_set
  7499                           
  7500                           ;newmain1.c: 1189: _delay((unsigned long)((500)*(16000000/4000.0)));
  7501  041A  300B               	movlw	11
  7502  041B  0020               	movlb	0	; select bank0
  7503  041C  00C8               	movwf	??_main+2
  7504  041D  3026               	movlw	38
  7505  041E  00C7               	movwf	??_main+1
  7506  041F  3066               	movlw	102
  7507  0420  00C6               	movwf	??_main
  7508  0421                     u6127:	
  7509  0421  0BC6               	decfsz	??_main,f
  7510  0422  2C21               	goto	u6127
  7511  0423  0BC7               	decfsz	??_main+1,f
  7512  0424  2C21               	goto	u6127
  7513  0425  0BC8               	decfsz	??_main+2,f
  7514  0426  2C21               	goto	u6127
  7515  0427  3200               	nop2
  7516                           
  7517                           ;newmain1.c: 1197: if((RA0 == 0) || (RA1 == 0))
  7518  0428  0020               	movlb	0	; select bank0
  7519  0429  1C0C               	btfss	12,0	;volatile
  7520  042A  2C2D               	goto	l5784
  7521  042B  188C               	btfsc	12,1	;volatile
  7522  042C  2C37               	goto	l425
  7523  042D                     l5784:	
  7524                           
  7525                           ;newmain1.c: 1198: {
  7526                           ;newmain1.c: 1199: print_error("Error", "Motor Short");
  7527  042D  3089               	movlw	low (STR_15| (0+32768))
  7528  042E  00A0               	movwf	print_error@top
  7529  042F  3093               	movlw	high (STR_15| (0+32768))
  7530  0430  00A1               	movwf	print_error@top+1
  7531  0431  30B8               	movlw	low (STR_16| (0+32768))
  7532  0432  00A2               	movwf	print_error@bottom
  7533  0433  3092               	movlw	high (STR_16| (0+32768))
  7534  0434  00A3               	movwf	print_error@bottom+1
  7535  0435  3195  25D1         	fcall	_print_error
  7536  0437                     l425:	
  7537  0437  3186  2E65         	ljmp	L34
  7538                           
  7539                           	psect	maintext_split_2
  7540  0665                     L34:	
  7541                           
  7542                           ;newmain1.c: 1200: }
  7543                           ;newmain1.c: 1203: print_screen("Measuring", "Q Current");
  7544  0665  30F0               	movlw	low (STR_17| (0+32768))
  7545  0666  00F6               	movwf	print_screen@top
  7546  0667  3092               	movlw	high (STR_17| (0+32768))
  7547  0668  00F7               	movwf	print_screen@top+1
  7548  0669  3018               	movlw	low (STR_18| (0+32768))
  7549  066A  00F8               	movwf	print_screen@bottom
  7550  066B  3093               	movlw	high (STR_18| (0+32768))
  7551  066C  00F9               	movwf	print_screen@bottom+1
  7552  066D  319F  27E9  3186   	fcall	_print_screen
  7553                           
  7554                           ;newmain1.c: 1212: if(ADC_val > 20)
  7555  0670  3000               	movlw	0
  7556  0671  0020               	movlb	0	; select bank0
  7557  0672  024A               	subwf	_ADC_val+1,w
  7558  0673  3015               	movlw	21
  7559  0674  1903               	skipnz
  7560  0675  0249               	subwf	_ADC_val,w
  7561  0676  1C03               	skipc
  7562  0677  2E83               	goto	l428
  7563                           
  7564                           ;newmain1.c: 1213: {
  7565                           ;newmain1.c: 1214: print_error("Q Current", "Too High");
  7566  0678  3018               	movlw	low (STR_18| (0+32768))
  7567  0679  00A0               	movwf	print_error@top
  7568  067A  3093               	movlw	high (STR_18| (0+32768))
  7569  067B  00A1               	movwf	print_error@top+1
  7570  067C  304F               	movlw	low (STR_20| (0+32768))
  7571  067D  00A2               	movwf	print_error@bottom
  7572  067E  3093               	movlw	high (STR_20| (0+32768))
  7573  067F  00A3               	movwf	print_error@bottom+1
  7574  0680  3195  25D1  3186   	fcall	_print_error
  7575  0683                     l428:	
  7576                           
  7577                           ;newmain1.c: 1215: }
  7578                           ;newmain1.c: 1219: print_screen("Measuring V1", "");
  7579  0683  30FB               	movlw	low (STR_21| (0+32768))
  7580  0684  00F6               	movwf	print_screen@top
  7581  0685  3091               	movlw	high (STR_21| (0+32768))
  7582  0686  00F7               	movwf	print_screen@top+1
  7583  0687  309F               	movlw	low ((STR_143+4)| (0+32768))
  7584  0688  00F8               	movwf	print_screen@bottom
  7585  0689  3093               	movlw	high ((STR_143+4)| (0+32768))
  7586  068A  00F9               	movwf	print_screen@bottom+1
  7587  068B  319F  27E9  3186   	fcall	_print_screen
  7588                           
  7589                           ;newmain1.c: 1222: ADC_val = ADC_get_val(0b01101001);
  7590  068E  3069               	movlw	105
  7591  068F  3194  2408  3186   	fcall	_ADC_get_val
  7592  0692  0873               	movf	?_ADC_get_val+1,w
  7593  0693  0020               	movlb	0	; select bank0
  7594  0694  00CA               	movwf	_ADC_val+1
  7595  0695  0872               	movf	?_ADC_get_val,w
  7596  0696  00C9               	movwf	_ADC_val
  7597                           
  7598                           ;newmain1.c: 1225: if(ADC_val < 700)
  7599  0697  3002               	movlw	2
  7600  0698  024A               	subwf	_ADC_val+1,w
  7601  0699  30BC               	movlw	188
  7602  069A  1903               	skipnz
  7603  069B  0249               	subwf	_ADC_val,w
  7604  069C  1803               	skipnc
  7605  069D  2EA9               	goto	l429
  7606                           
  7607                           ;newmain1.c: 1226: {
  7608                           ;newmain1.c: 1227: print_error("V1 Voltage-Jig", "Too Low");
  7609  069E  30EC               	movlw	low (STR_23| (0+32768))
  7610  069F  00A0               	movwf	print_error@top
  7611  06A0  3090               	movlw	high (STR_23| (0+32768))
  7612  06A1  00A1               	movwf	print_error@top+1
  7613  06A2  307A               	movlw	low (STR_24| (0+32768))
  7614  06A3  00A2               	movwf	print_error@bottom
  7615  06A4  3093               	movlw	high (STR_24| (0+32768))
  7616  06A5  00A3               	movwf	print_error@bottom+1
  7617  06A6  3195  25D1  3186   	fcall	_print_error
  7618  06A9                     l429:	
  7619                           
  7620                           ;newmain1.c: 1228: }
  7621                           ;newmain1.c: 1231: print_screen("Measuring 5v", "");
  7622  06A9  3056               	movlw	low (STR_25| (0+32768))
  7623  06AA  00F6               	movwf	print_screen@top
  7624  06AB  3092               	movlw	high (STR_25| (0+32768))
  7625  06AC  00F7               	movwf	print_screen@top+1
  7626  06AD  309F               	movlw	low ((STR_143+4)| (0+32768))
  7627  06AE  00F8               	movwf	print_screen@bottom
  7628  06AF  3093               	movlw	high ((STR_143+4)| (0+32768))
  7629  06B0  00F9               	movwf	print_screen@bottom+1
  7630  06B1  319F  27E9  3186   	fcall	_print_screen
  7631                           
  7632                           ;newmain1.c: 1233: ADC_val = ADC_get_val(0b01100001);
  7633  06B4  3061               	movlw	97
  7634  06B5  3194  2408  3186   	fcall	_ADC_get_val
  7635  06B8  0873               	movf	?_ADC_get_val+1,w
  7636  06B9  0020               	movlb	0	; select bank0
  7637  06BA  00CA               	movwf	_ADC_val+1
  7638  06BB  0872               	movf	?_ADC_get_val,w
  7639  06BC  00C9               	movwf	_ADC_val
  7640                           
  7641                           ;newmain1.c: 1234: print_screen("5v","");
  7642  06BD  3060               	movlw	low ((STR_25+10)| (0+32768))
  7643  06BE  00F6               	movwf	print_screen@top
  7644  06BF  3092               	movlw	high ((STR_25+10)| (0+32768))
  7645  06C0  00F7               	movwf	print_screen@top+1
  7646  06C1  309F               	movlw	low ((STR_143+4)| (0+32768))
  7647  06C2  00F8               	movwf	print_screen@bottom
  7648  06C3  3093               	movlw	high ((STR_143+4)| (0+32768))
  7649  06C4  00F9               	movwf	print_screen@bottom+1
  7650  06C5  319F  27E9  3186   	fcall	_print_screen
  7651                           
  7652                           ;newmain1.c: 1235: lcd_print_int(ADC_val, 1, 1, 1);
  7653  06C8  0020               	movlb	0	; select bank0
  7654  06C9  084A               	movf	_ADC_val+1,w
  7655  06CA  00A7               	movwf	lcd_print_int@number+1
  7656  06CB  0849               	movf	_ADC_val,w
  7657  06CC  00A6               	movwf	lcd_print_int@number
  7658  06CD  3001               	movlw	1
  7659  06CE  00A8               	movwf	lcd_print_int@pos
  7660  06CF  3000               	movlw	0
  7661  06D0  00A9               	movwf	lcd_print_int@pos+1
  7662  06D1  01AA               	clrf	lcd_print_int@decimal
  7663  06D2  0AAA               	incf	lcd_print_int@decimal,f
  7664  06D3  01AB               	clrf	lcd_print_int@ten_thou_digit
  7665  06D4  0AAB               	incf	lcd_print_int@ten_thou_digit,f
  7666  06D5  3187  2773  3186   	fcall	_lcd_print_int
  7667                           
  7668                           ;newmain1.c: 1237: if(ADC_val < 110)
  7669  06D8  3000               	movlw	0
  7670  06D9  0020               	movlb	0	; select bank0
  7671  06DA  024A               	subwf	_ADC_val+1,w
  7672  06DB  306E               	movlw	110
  7673  06DC  1903               	skipnz
  7674  06DD  0249               	subwf	_ADC_val,w
  7675  06DE  1803               	skipnc
  7676  06DF  2EEA               	goto	l5806
  7677                           
  7678                           ;newmain1.c: 1238: {
  7679                           ;newmain1.c: 1239: print_error("5V Voltage", "Too Low");
  7680  06E0  30D0               	movlw	low (STR_29| (0+32768))
  7681  06E1  00A0               	movwf	print_error@top
  7682  06E2  3092               	movlw	high (STR_29| (0+32768))
  7683  06E3  00A1               	movwf	print_error@top+1
  7684  06E4  307A               	movlw	low (STR_24| (0+32768))
  7685  06E5  00A2               	movwf	print_error@bottom
  7686  06E6  3093               	movlw	high (STR_24| (0+32768))
  7687  06E7  00A3               	movwf	print_error@bottom+1
  7688  06E8  3195  25D1         	fcall	_print_error
  7689  06EA                     l5806:	
  7690  06EA  3184  2C39         	ljmp	L35
  7691                           
  7692                           	psect	maintext_split_3
  7693  0439                     L35:	
  7694                           
  7695                           ;newmain1.c: 1240: }
  7696                           ;newmain1.c: 1241: if(ADC_val > 133)
  7697  0439  3000               	movlw	0
  7698  043A  0020               	movlb	0	; select bank0
  7699  043B  024A               	subwf	_ADC_val+1,w
  7700  043C  3086               	movlw	134
  7701  043D  1903               	skipnz
  7702  043E  0249               	subwf	_ADC_val,w
  7703  043F  1C03               	skipc
  7704  0440  2C4C               	goto	l431
  7705                           
  7706                           ;newmain1.c: 1242: {
  7707                           ;newmain1.c: 1243: print_error("5V Voltage", "Too High");
  7708  0441  30D0               	movlw	low (STR_29| (0+32768))
  7709  0442  00A0               	movwf	print_error@top
  7710  0443  3092               	movlw	high (STR_29| (0+32768))
  7711  0444  00A1               	movwf	print_error@top+1
  7712  0445  304F               	movlw	low (STR_20| (0+32768))
  7713  0446  00A2               	movwf	print_error@bottom
  7714  0447  3093               	movlw	high (STR_20| (0+32768))
  7715  0448  00A3               	movwf	print_error@bottom+1
  7716  0449  3195  25D1  3184   	fcall	_print_error
  7717  044C                     l431:	
  7718                           
  7719                           ;newmain1.c: 1244: }
  7720                           ;newmain1.c: 1272: print_screen("Programming", "Bypassed");
  7721  044C  3088               	movlw	low (STR_33| (0+32768))
  7722  044D  00F6               	movwf	print_screen@top
  7723  044E  3092               	movlw	high (STR_33| (0+32768))
  7724  044F  00F7               	movwf	print_screen@top+1
  7725  0450  303D               	movlw	low (STR_34| (0+32768))
  7726  0451  00F8               	movwf	print_screen@bottom
  7727  0452  3093               	movlw	high (STR_34| (0+32768))
  7728  0453  00F9               	movwf	print_screen@bottom+1
  7729  0454  319F  27E9  3184   	fcall	_print_screen
  7730                           
  7731                           ;newmain1.c: 1295: _delay((unsigned long)((1000)*(16000000/4000.0)));
  7732  0457  3015               	movlw	21
  7733  0458  0020               	movlb	0	; select bank0
  7734  0459  00C8               	movwf	??_main+2
  7735  045A  304B               	movlw	75
  7736  045B  00C7               	movwf	??_main+1
  7737  045C  30D1               	movlw	209
  7738  045D  00C6               	movwf	??_main
  7739  045E                     u6137:	
  7740  045E  0BC6               	decfsz	??_main,f
  7741  045F  2C5E               	goto	u6137
  7742  0460  0BC7               	decfsz	??_main+1,f
  7743  0461  2C5E               	goto	u6137
  7744  0462  0BC8               	decfsz	??_main+2,f
  7745  0463  2C5E               	goto	u6137
  7746  0464  0000               	nop
  7747                           
  7748                           ;newmain1.c: 1297: init_uart2();
  7749  0465  319F  2755  3184   	fcall	_init_uart2
  7750                           
  7751                           ;newmain1.c: 1298: init_uart1();
  7752  0468  319F  274A  3184   	fcall	_init_uart1
  7753                           
  7754                           ;newmain1.c: 1300: _delay((unsigned long)((300)*(16000000/4000.0)));
  7755  046B  3007               	movlw	7
  7756  046C  0020               	movlb	0	; select bank0
  7757  046D  00C8               	movwf	??_main+2
  7758  046E  3017               	movlw	23
  7759  046F  00C7               	movwf	??_main+1
  7760  0470  306F               	movlw	111
  7761  0471  00C6               	movwf	??_main
  7762  0472                     u6147:	
  7763  0472  0BC6               	decfsz	??_main,f
  7764  0473  2C72               	goto	u6147
  7765  0474  0BC7               	decfsz	??_main+1,f
  7766  0475  2C72               	goto	u6147
  7767  0476  0BC8               	decfsz	??_main+2,f
  7768  0477  2C72               	goto	u6147
  7769  0478  0000               	nop
  7770                           
  7771                           ;newmain1.c: 1303: send_usart_packet_manage(128, 128);
  7772  0479  3080               	movlw	128
  7773  047A  00F3               	movwf	send_usart_packet_manage@Data_carry
  7774  047B  3000               	movlw	0
  7775  047C  00F4               	movwf	send_usart_packet_manage@Data_carry+1
  7776  047D  3080               	movlw	128
  7777  047E  3195  2549  3184   	fcall	_send_usart_packet_manage
  7778                           
  7779                           ;newmain1.c: 1304: Data_Temp_Work_int = receive_data_bytes(1000);
  7780  0481  30E8               	movlw	232
  7781  0482  0020               	movlb	0	; select bank0
  7782  0483  00A7               	movwf	receive_data_bytes@time_out_first_byte
  7783  0484  3003               	movlw	3
  7784  0485  00A8               	movwf	receive_data_bytes@time_out_first_byte+1
  7785  0486  3182  221D  3184   	fcall	_receive_data_bytes
  7786  0489  0020               	movlb	0	; select bank0
  7787  048A  0828               	movf	?_receive_data_bytes+1,w
  7788  048B  00CC               	movwf	_Data_Temp_Work_int+1
  7789  048C  0827               	movf	?_receive_data_bytes,w
  7790  048D  00CB               	movwf	_Data_Temp_Work_int
  7791                           
  7792                           ;newmain1.c: 1309: if(Data_Temp_Work_int > 610)
  7793  048E  3002               	movlw	2
  7794  048F  024C               	subwf	_Data_Temp_Work_int+1,w
  7795  0490  3063               	movlw	99
  7796  0491  1903               	skipnz
  7797  0492  024B               	subwf	_Data_Temp_Work_int,w
  7798  0493  1C03               	skipc
  7799  0494  2CA0               	goto	l5826
  7800                           
  7801                           ;newmain1.c: 1310: {
  7802                           ;newmain1.c: 1311: print_error("V1 Voltage b", "Too High");
  7803  0495  3015               	movlw	low (STR_35| (0+32768))
  7804  0496  00A0               	movwf	print_error@top
  7805  0497  3092               	movlw	high (STR_35| (0+32768))
  7806  0498  00A1               	movwf	print_error@top+1
  7807  0499  304F               	movlw	low (STR_20| (0+32768))
  7808  049A  00A2               	movwf	print_error@bottom
  7809  049B  3093               	movlw	high (STR_20| (0+32768))
  7810  049C  00A3               	movwf	print_error@bottom+1
  7811  049D  3195  25D1  3184   	fcall	_print_error
  7812  04A0                     l5826:	
  7813                           
  7814                           ;newmain1.c: 1312: }
  7815                           ;newmain1.c: 1313: if(Data_Temp_Work_int < 580)
  7816  04A0  3002               	movlw	2
  7817  04A1  0020               	movlb	0	; select bank0
  7818  04A2  024C               	subwf	_Data_Temp_Work_int+1,w
  7819  04A3  3044               	movlw	68
  7820  04A4  1903               	skipnz
  7821  04A5  024B               	subwf	_Data_Temp_Work_int,w
  7822  04A6  1803               	skipnc
  7823  04A7  2CB3               	goto	l5830
  7824                           
  7825                           ;newmain1.c: 1314: {
  7826                           ;newmain1.c: 1315: print_error("V1 Voltage b", "Too Low");
  7827  04A8  3015               	movlw	low (STR_35| (0+32768))
  7828  04A9  00A0               	movwf	print_error@top
  7829  04AA  3092               	movlw	high (STR_35| (0+32768))
  7830  04AB  00A1               	movwf	print_error@top+1
  7831  04AC  307A               	movlw	low (STR_24| (0+32768))
  7832  04AD  00A2               	movwf	print_error@bottom
  7833  04AE  3093               	movlw	high (STR_24| (0+32768))
  7834  04AF  00A3               	movwf	print_error@bottom+1
  7835  04B0  3195  25D1  3184   	fcall	_print_error
  7836  04B3                     l5830:	
  7837                           
  7838                           ;newmain1.c: 1316: }
  7839                           ;newmain1.c: 1322: LATB6 = 1;
  7840  04B3  0022               	movlb	2	; select bank2
  7841  04B4  170D               	bsf	13,6	;volatile
  7842                           
  7843                           ;newmain1.c: 1323: LATB4 = 1;
  7844  04B5  160D               	bsf	13,4	;volatile
  7845                           
  7846                           ;newmain1.c: 1328: _delay((unsigned long)((200)*(16000000/4000.0)));
  7847  04B6  3005               	movlw	5
  7848  04B7  0020               	movlb	0	; select bank0
  7849  04B8  00C8               	movwf	??_main+2
  7850  04B9  300F               	movlw	15
  7851  04BA  00C7               	movwf	??_main+1
  7852  04BB  30F4               	movlw	244
  7853  04BC  00C6               	movwf	??_main
  7854  04BD                     u6157:	
  7855  04BD  0BC6               	decfsz	??_main,f
  7856  04BE  2CBD               	goto	u6157
  7857  04BF  0BC7               	decfsz	??_main+1,f
  7858  04C0  2CBD               	goto	u6157
  7859  04C1  0BC8               	decfsz	??_main+2,f
  7860  04C2  2CBD               	goto	u6157
  7861                           
  7862                           ;newmain1.c: 1338: ADC_val = ADC_get_val(0b01110101);
  7863  04C3  3075               	movlw	117
  7864  04C4  3194  2408         	fcall	_ADC_get_val
  7865  04C6  0873               	movf	?_ADC_get_val+1,w
  7866  04C7  3184  2CC9         	ljmp	L36
  7867                           
  7868                           	psect	maintext_split_4
  7869  04C9                     L36:	
  7870  04C9  0020               	movlb	0	; select bank0
  7871  04CA  00CA               	movwf	_ADC_val+1
  7872  04CB  0872               	movf	?_ADC_get_val,w
  7873  04CC  00C9               	movwf	_ADC_val
  7874                           
  7875                           ;newmain1.c: 1340: if(ADC_val > 646)
  7876  04CD  3002               	movlw	2
  7877  04CE  024A               	subwf	_ADC_val+1,w
  7878  04CF  3087               	movlw	135
  7879  04D0  1903               	skipnz
  7880  04D1  0249               	subwf	_ADC_val,w
  7881  04D2  1C03               	skipc
  7882  04D3  2CDF               	goto	l5842
  7883                           
  7884                           ;newmain1.c: 1341: {
  7885                           ;newmain1.c: 1342: print_error("Charge Err", "Voltage to High");
  7886  04D4  30DB               	movlw	low (STR_39| (0+32768))
  7887  04D5  00A0               	movwf	print_error@top
  7888  04D6  3092               	movlw	high (STR_39| (0+32768))
  7889  04D7  00A1               	movwf	print_error@top+1
  7890  04D8  307E               	movlw	low (STR_40| (0+32768))
  7891  04D9  00A2               	movwf	print_error@bottom
  7892  04DA  3090               	movlw	high (STR_40| (0+32768))
  7893  04DB  00A3               	movwf	print_error@bottom+1
  7894  04DC  3195  25D1  3184   	fcall	_print_error
  7895  04DF                     l5842:	
  7896                           
  7897                           ;newmain1.c: 1343: }
  7898                           ;newmain1.c: 1345: if(ADC_val < 618)
  7899  04DF  3002               	movlw	2
  7900  04E0  0020               	movlb	0	; select bank0
  7901  04E1  024A               	subwf	_ADC_val+1,w
  7902  04E2  306A               	movlw	106
  7903  04E3  1903               	skipnz
  7904  04E4  0249               	subwf	_ADC_val,w
  7905  04E5  1803               	skipnc
  7906  04E6  2CF2               	goto	l5846
  7907                           
  7908                           ;newmain1.c: 1346: {
  7909                           ;newmain1.c: 1347: print_error("Charge Err", "Voltage to Low");
  7910  04E7  30DB               	movlw	low (STR_39| (0+32768))
  7911  04E8  00A0               	movwf	print_error@top
  7912  04E9  3092               	movlw	high (STR_39| (0+32768))
  7913  04EA  00A1               	movwf	print_error@top+1
  7914  04EB  3028               	movlw	low (STR_42| (0+32768))
  7915  04EC  00A2               	movwf	print_error@bottom
  7916  04ED  3091               	movlw	high (STR_42| (0+32768))
  7917  04EE  00A3               	movwf	print_error@bottom+1
  7918  04EF  3195  25D1  3184   	fcall	_print_error
  7919  04F2                     l5846:	
  7920                           
  7921                           ;newmain1.c: 1357: }
  7922                           ;newmain1.c: 1360: LATB6 = 0;
  7923  04F2  0022               	movlb	2	; select bank2
  7924  04F3  130D               	bcf	13,6	;volatile
  7925                           
  7926                           ;newmain1.c: 1361: LATB4 = 0;
  7927  04F4  120D               	bcf	13,4	;volatile
  7928                           
  7929                           ;newmain1.c: 1364: _delay((unsigned long)((200)*(16000000/4000.0)));
  7930  04F5  3005               	movlw	5
  7931  04F6  0020               	movlb	0	; select bank0
  7932  04F7  00C8               	movwf	??_main+2
  7933  04F8  300F               	movlw	15
  7934  04F9  00C7               	movwf	??_main+1
  7935  04FA  30F4               	movlw	244
  7936  04FB  00C6               	movwf	??_main
  7937  04FC                     u6167:	
  7938  04FC  0BC6               	decfsz	??_main,f
  7939  04FD  2CFC               	goto	u6167
  7940  04FE  0BC7               	decfsz	??_main+1,f
  7941  04FF  2CFC               	goto	u6167
  7942  0500  0BC8               	decfsz	??_main+2,f
  7943  0501  2CFC               	goto	u6167
  7944                           
  7945                           ;newmain1.c: 1376: send_usart_packet_manage(129, 129);
  7946  0502  3081               	movlw	129
  7947  0503  00F3               	movwf	send_usart_packet_manage@Data_carry
  7948  0504  3000               	movlw	0
  7949  0505  00F4               	movwf	send_usart_packet_manage@Data_carry+1
  7950  0506  3081               	movlw	129
  7951  0507  3195  2549  3184   	fcall	_send_usart_packet_manage
  7952                           
  7953                           ;newmain1.c: 1377: Data_Temp_Work_int = receive_data_bytes(1000);
  7954  050A  30E8               	movlw	232
  7955  050B  0020               	movlb	0	; select bank0
  7956  050C  00A7               	movwf	receive_data_bytes@time_out_first_byte
  7957  050D  3003               	movlw	3
  7958  050E  00A8               	movwf	receive_data_bytes@time_out_first_byte+1
  7959  050F  3182  221D  3184   	fcall	_receive_data_bytes
  7960  0512  0020               	movlb	0	; select bank0
  7961  0513  0828               	movf	?_receive_data_bytes+1,w
  7962  0514  00CC               	movwf	_Data_Temp_Work_int+1
  7963  0515  0827               	movf	?_receive_data_bytes,w
  7964  0516  00CB               	movwf	_Data_Temp_Work_int
  7965                           
  7966                           ;newmain1.c: 1379: if(Data_Temp_Work_int > 518)
  7967  0517  3002               	movlw	2
  7968  0518  024C               	subwf	_Data_Temp_Work_int+1,w
  7969  0519  3007               	movlw	7
  7970  051A  1903               	skipnz
  7971  051B  024B               	subwf	_Data_Temp_Work_int,w
  7972  051C  1C03               	skipc
  7973  051D  2D29               	goto	l5860
  7974                           
  7975                           ;newmain1.c: 1380: {
  7976                           ;newmain1.c: 1381: print_error("V2 SENSE", "Too High");
  7977  051E  302B               	movlw	low (STR_43| (0+32768))
  7978  051F  00A0               	movwf	print_error@top
  7979  0520  3093               	movlw	high (STR_43| (0+32768))
  7980  0521  00A1               	movwf	print_error@top+1
  7981  0522  304F               	movlw	low (STR_20| (0+32768))
  7982  0523  00A2               	movwf	print_error@bottom
  7983  0524  3093               	movlw	high (STR_20| (0+32768))
  7984  0525  00A3               	movwf	print_error@bottom+1
  7985  0526  3195  25D1  3184   	fcall	_print_error
  7986  0529                     l5860:	
  7987                           
  7988                           ;newmain1.c: 1382: }
  7989                           ;newmain1.c: 1383: if(Data_Temp_Work_int < 495)
  7990  0529  3001               	movlw	1
  7991  052A  0020               	movlb	0	; select bank0
  7992  052B  024C               	subwf	_Data_Temp_Work_int+1,w
  7993  052C  30EF               	movlw	239
  7994  052D  1903               	skipnz
  7995  052E  024B               	subwf	_Data_Temp_Work_int,w
  7996  052F  1803               	skipnc
  7997  0530  2D3C               	goto	l5864
  7998                           
  7999                           ;newmain1.c: 1384: {
  8000                           ;newmain1.c: 1385: print_error("V2 SENSE", "Too Low");
  8001  0531  302B               	movlw	low (STR_43| (0+32768))
  8002  0532  00A0               	movwf	print_error@top
  8003  0533  3093               	movlw	high (STR_43| (0+32768))
  8004  0534  00A1               	movwf	print_error@top+1
  8005  0535  307A               	movlw	low (STR_24| (0+32768))
  8006  0536  00A2               	movwf	print_error@bottom
  8007  0537  3093               	movlw	high (STR_24| (0+32768))
  8008  0538  00A3               	movwf	print_error@bottom+1
  8009  0539  3195  25D1  3184   	fcall	_print_error
  8010  053C                     l5864:	
  8011                           
  8012                           ;newmain1.c: 1386: }
  8013                           ;newmain1.c: 1418: LATG4 = 0;
  8014  053C  0027               	movlb	7	; select bank7
  8015  053D  120D               	bcf	13,4	;volatile
  8016                           
  8017                           ;newmain1.c: 1420: _delay((unsigned long)((300)*(16000000/4000.0)));
  8018  053E  3007               	movlw	7
  8019  053F  0020               	movlb	0	; select bank0
  8020  0540  00C8               	movwf	??_main+2
  8021  0541  3017               	movlw	23
  8022  0542  00C7               	movwf	??_main+1
  8023  0543  306F               	movlw	111
  8024  0544  00C6               	movwf	??_main
  8025  0545                     u6177:	
  8026  0545  0BC6               	decfsz	??_main,f
  8027  0546  2D45               	goto	u6177
  8028  0547  0BC7               	decfsz	??_main+1,f
  8029  0548  2D45               	goto	u6177
  8030  0549  0BC8               	decfsz	??_main+2,f
  8031  054A  2D45               	goto	u6177
  8032  054B  0000               	nop
  8033                           
  8034                           ;newmain1.c: 1422: send_usart_packet_manage(133, 133);
  8035  054C  3085               	movlw	133
  8036  054D  00F3               	movwf	send_usart_packet_manage@Data_carry
  8037  054E  3000               	movlw	0
  8038  054F  00F4               	movwf	send_usart_packet_manage@Data_carry+1
  8039  0550  3085               	movlw	133
  8040  0551  3195  2549         	fcall	_send_usart_packet_manage
  8041                           
  8042                           ;newmain1.c: 1423: Data_Temp_Work_int = receive_data_bytes(1000);
  8043  0553  30E8               	movlw	232
  8044  0554  3186  2EEC         	ljmp	L37
  8045                           
  8046                           	psect	maintext_split_5
  8047  06EC                     L37:	
  8048  06EC  0020               	movlb	0	; select bank0
  8049  06ED  00A7               	movwf	receive_data_bytes@time_out_first_byte
  8050  06EE  3003               	movlw	3
  8051  06EF  00A8               	movwf	receive_data_bytes@time_out_first_byte+1
  8052  06F0  3182  221D  3186   	fcall	_receive_data_bytes
  8053  06F3  0020               	movlb	0	; select bank0
  8054  06F4  0828               	movf	?_receive_data_bytes+1,w
  8055  06F5  00CC               	movwf	_Data_Temp_Work_int+1
  8056  06F6  0827               	movf	?_receive_data_bytes,w
  8057  06F7  00CB               	movwf	_Data_Temp_Work_int
  8058                           
  8059                           ;newmain1.c: 1429: if(Data_Temp_Work_int < 1010)
  8060  06F8  3003               	movlw	3
  8061  06F9  024C               	subwf	_Data_Temp_Work_int+1,w
  8062  06FA  30F2               	movlw	242
  8063  06FB  1903               	skipnz
  8064  06FC  024B               	subwf	_Data_Temp_Work_int,w
  8065  06FD  1803               	skipnc
  8066  06FE  2F0A               	goto	l5876
  8067                           
  8068                           ;newmain1.c: 1430: {
  8069                           ;newmain1.c: 1431: print_error("Beam Input Err", "Not released");
  8070  06FF  300A               	movlw	low (STR_47| (0+32768))
  8071  0700  00A0               	movwf	print_error@top
  8072  0701  3091               	movlw	high (STR_47| (0+32768))
  8073  0702  00A1               	movwf	print_error@top+1
  8074  0703  302F               	movlw	low (STR_48| (0+32768))
  8075  0704  00A2               	movwf	print_error@bottom
  8076  0705  3092               	movlw	high (STR_48| (0+32768))
  8077  0706  00A3               	movwf	print_error@bottom+1
  8078  0707  3195  25D1  3186   	fcall	_print_error
  8079  070A                     l5876:	
  8080                           
  8081                           ;newmain1.c: 1432: }
  8082                           ;newmain1.c: 1434: LATG4 = 1;
  8083  070A  0027               	movlb	7	; select bank7
  8084  070B  160D               	bsf	13,4	;volatile
  8085                           
  8086                           ;newmain1.c: 1436: _delay((unsigned long)((300)*(16000000/4000.0)));
  8087  070C  3007               	movlw	7
  8088  070D  0020               	movlb	0	; select bank0
  8089  070E  00C8               	movwf	??_main+2
  8090  070F  3017               	movlw	23
  8091  0710  00C7               	movwf	??_main+1
  8092  0711  306F               	movlw	111
  8093  0712  00C6               	movwf	??_main
  8094  0713                     u6187:	
  8095  0713  0BC6               	decfsz	??_main,f
  8096  0714  2F13               	goto	u6187
  8097  0715  0BC7               	decfsz	??_main+1,f
  8098  0716  2F13               	goto	u6187
  8099  0717  0BC8               	decfsz	??_main+2,f
  8100  0718  2F13               	goto	u6187
  8101  0719  0000               	nop
  8102                           
  8103                           ;newmain1.c: 1438: send_usart_packet_manage(133, 133);
  8104  071A  3085               	movlw	133
  8105  071B  00F3               	movwf	send_usart_packet_manage@Data_carry
  8106  071C  3000               	movlw	0
  8107  071D  00F4               	movwf	send_usart_packet_manage@Data_carry+1
  8108  071E  3085               	movlw	133
  8109  071F  3195  2549  3186   	fcall	_send_usart_packet_manage
  8110                           
  8111                           ;newmain1.c: 1439: Data_Temp_Work_int = receive_data_bytes(1000);
  8112  0722  30E8               	movlw	232
  8113  0723  0020               	movlb	0	; select bank0
  8114  0724  00A7               	movwf	receive_data_bytes@time_out_first_byte
  8115  0725  3003               	movlw	3
  8116  0726  00A8               	movwf	receive_data_bytes@time_out_first_byte+1
  8117  0727  3182  221D  3186   	fcall	_receive_data_bytes
  8118  072A  0020               	movlb	0	; select bank0
  8119  072B  0828               	movf	?_receive_data_bytes+1,w
  8120  072C  00CC               	movwf	_Data_Temp_Work_int+1
  8121  072D  0827               	movf	?_receive_data_bytes,w
  8122  072E  00CB               	movwf	_Data_Temp_Work_int
  8123                           
  8124                           ;newmain1.c: 1440: lcd_print_int(Data_Temp_Work_int, 1, 1, 1);
  8125  072F  084C               	movf	_Data_Temp_Work_int+1,w
  8126  0730  00A7               	movwf	lcd_print_int@number+1
  8127  0731  084B               	movf	_Data_Temp_Work_int,w
  8128  0732  00A6               	movwf	lcd_print_int@number
  8129  0733  3001               	movlw	1
  8130  0734  00A8               	movwf	lcd_print_int@pos
  8131  0735  3000               	movlw	0
  8132  0736  00A9               	movwf	lcd_print_int@pos+1
  8133  0737  01AA               	clrf	lcd_print_int@decimal
  8134  0738  0AAA               	incf	lcd_print_int@decimal,f
  8135  0739  01AB               	clrf	lcd_print_int@ten_thou_digit
  8136  073A  0AAB               	incf	lcd_print_int@ten_thou_digit,f
  8137  073B  3187  2773  3186   	fcall	_lcd_print_int
  8138                           
  8139                           ;newmain1.c: 1443: if(Data_Temp_Work_int > 28)
  8140  073E  3000               	movlw	0
  8141  073F  0020               	movlb	0	; select bank0
  8142  0740  024C               	subwf	_Data_Temp_Work_int+1,w
  8143  0741  301D               	movlw	29
  8144  0742  1903               	skipnz
  8145  0743  024B               	subwf	_Data_Temp_Work_int,w
  8146  0744  1C03               	skipc
  8147  0745  2F51               	goto	l5888
  8148                           
  8149                           ;newmain1.c: 1444: {
  8150                           ;newmain1.c: 1445: print_error("Beam Input Err", "V High");
  8151  0746  300A               	movlw	low (STR_47| (0+32768))
  8152  0747  00A0               	movwf	print_error@top
  8153  0748  3091               	movlw	high (STR_47| (0+32768))
  8154  0749  00A1               	movwf	print_error@top+1
  8155  074A  3082               	movlw	low (STR_50| (0+32768))
  8156  074B  00A2               	movwf	print_error@bottom
  8157  074C  3093               	movlw	high (STR_50| (0+32768))
  8158  074D  00A3               	movwf	print_error@bottom+1
  8159  074E  3195  25D1  3186   	fcall	_print_error
  8160  0751                     l5888:	
  8161                           
  8162                           ;newmain1.c: 1446: }
  8163                           ;newmain1.c: 1447: if(Data_Temp_Work_int < 18)
  8164  0751  3000               	movlw	0
  8165  0752  0020               	movlb	0	; select bank0
  8166  0753  024C               	subwf	_Data_Temp_Work_int+1,w
  8167  0754  3012               	movlw	18
  8168  0755  1903               	skipnz
  8169  0756  024B               	subwf	_Data_Temp_Work_int,w
  8170  0757  1803               	skipnc
  8171  0758  2F64               	goto	l5892
  8172                           
  8173                           ;newmain1.c: 1448: {
  8174                           ;newmain1.c: 1449: print_error("Beam Input Err", "V Low");
  8175  0759  300A               	movlw	low (STR_47| (0+32768))
  8176  075A  00A0               	movwf	print_error@top
  8177  075B  3091               	movlw	high (STR_47| (0+32768))
  8178  075C  00A1               	movwf	print_error@top+1
  8179  075D  3095               	movlw	low (STR_52| (0+32768))
  8180  075E  00A2               	movwf	print_error@bottom
  8181  075F  3093               	movlw	high (STR_52| (0+32768))
  8182  0760  00A3               	movwf	print_error@bottom+1
  8183  0761  3195  25D1  3186   	fcall	_print_error
  8184  0764                     l5892:	
  8185                           
  8186                           ;newmain1.c: 1450: }
  8187                           ;newmain1.c: 1452: LATG4 = 0;
  8188  0764  0027               	movlb	7	; select bank7
  8189  0765  120D               	bcf	13,4	;volatile
  8190                           
  8191                           ;newmain1.c: 1455: print_screen("Testing", "All io's high");
  8192  0766  3072               	movlw	low (STR_53| (0+32768))
  8193  0767  00F6               	movwf	print_screen@top
  8194  0768  3093               	movlw	high (STR_53| (0+32768))
  8195  0769  00F7               	movwf	print_screen@top+1
  8196  076A  3099               	movlw	low (STR_54| (0+32768))
  8197  076B  00F8               	movwf	print_screen@bottom
  8198  076C  3091               	movlw	high (STR_54| (0+32768))
  8199  076D  00F9               	movwf	print_screen@bottom+1
  8200  076E  319F  27E9         	fcall	_print_screen
  8201                           
  8202                           ;newmain1.c: 1457: send_usart_packet_manage(148, 148);
  8203  0770  3094               	movlw	148
  8204  0771  3197  2F7B         	ljmp	L38
  8205                           
  8206                           	psect	maintext_split_6
  8207  177B                     L38:	
  8208  177B  00F3               	movwf	send_usart_packet_manage@Data_carry
  8209  177C  3000               	movlw	0
  8210  177D  00F4               	movwf	send_usart_packet_manage@Data_carry+1
  8211  177E  3094               	movlw	148
  8212  177F  3195  2549  3197   	fcall	_send_usart_packet_manage
  8213                           
  8214                           ;newmain1.c: 1458: Data_Temp_Work_int = receive_data_bytes(1000);
  8215  1782  30E8               	movlw	232
  8216  1783  0020               	movlb	0	; select bank0
  8217  1784  00A7               	movwf	receive_data_bytes@time_out_first_byte
  8218  1785  3003               	movlw	3
  8219  1786  00A8               	movwf	receive_data_bytes@time_out_first_byte+1
  8220  1787  3182  221D  3197   	fcall	_receive_data_bytes
  8221  178A  0020               	movlb	0	; select bank0
  8222  178B  0828               	movf	?_receive_data_bytes+1,w
  8223  178C  00CC               	movwf	_Data_Temp_Work_int+1
  8224  178D  0827               	movf	?_receive_data_bytes,w
  8225  178E  00CB               	movwf	_Data_Temp_Work_int
  8226                           
  8227                           ;newmain1.c: 1465: if(!!((Data_Temp_Work_int) & (1<<(0))) != 1)
  8228  178F  184B               	btfsc	_Data_Temp_Work_int,0
  8229  1790  2F9C               	goto	l5902
  8230                           
  8231                           ;newmain1.c: 1466: {
  8232                           ;newmain1.c: 1467: print_error("Error", "Encoder Input");
  8233  1791  3089               	movlw	low (STR_15| (0+32768))
  8234  1792  00A0               	movwf	print_error@top
  8235  1793  3093               	movlw	high (STR_15| (0+32768))
  8236  1794  00A1               	movwf	print_error@top+1
  8237  1795  30DF               	movlw	low (STR_56| (0+32768))
  8238  1796  00A2               	movwf	print_error@bottom
  8239  1797  3091               	movlw	high (STR_56| (0+32768))
  8240  1798  00A3               	movwf	print_error@bottom+1
  8241  1799  3195  25D1  3197   	fcall	_print_error
  8242  179C                     l5902:	
  8243                           
  8244                           ;newmain1.c: 1468: }
  8245                           ;newmain1.c: 1470: if(!!((Data_Temp_Work_int) & (1<<(1))) != 1)
  8246  179C  0020               	movlb	0	; select bank0
  8247  179D  18CB               	btfsc	_Data_Temp_Work_int,1
  8248  179E  2FAA               	goto	l5906
  8249                           
  8250                           ;newmain1.c: 1471: {
  8251                           ;newmain1.c: 1472: print_error("Error", "Ecan Rx Input");
  8252  179F  3089               	movlw	low (STR_15| (0+32768))
  8253  17A0  00A0               	movwf	print_error@top
  8254  17A1  3093               	movlw	high (STR_15| (0+32768))
  8255  17A2  00A1               	movwf	print_error@top+1
  8256  17A3  30ED               	movlw	low (STR_58| (0+32768))
  8257  17A4  00A2               	movwf	print_error@bottom
  8258  17A5  3091               	movlw	high (STR_58| (0+32768))
  8259  17A6  00A3               	movwf	print_error@bottom+1
  8260  17A7  3195  25D1  3197   	fcall	_print_error
  8261  17AA                     l5906:	
  8262                           
  8263                           ;newmain1.c: 1473: }
  8264                           ;newmain1.c: 1475: if(!!((Data_Temp_Work_int) & (1<<(2))) != 1)
  8265  17AA  0020               	movlb	0	; select bank0
  8266  17AB  194B               	btfsc	_Data_Temp_Work_int,2
  8267  17AC  2FB8               	goto	l5910
  8268                           
  8269                           ;newmain1.c: 1476: {
  8270                           ;newmain1.c: 1477: print_error("Error", "Butt Up Input");
  8271  17AD  3089               	movlw	low (STR_15| (0+32768))
  8272  17AE  00A0               	movwf	print_error@top
  8273  17AF  3093               	movlw	high (STR_15| (0+32768))
  8274  17B0  00A1               	movwf	print_error@top+1
  8275  17B1  30D1               	movlw	low (STR_60| (0+32768))
  8276  17B2  00A2               	movwf	print_error@bottom
  8277  17B3  3091               	movlw	high (STR_60| (0+32768))
  8278  17B4  00A3               	movwf	print_error@bottom+1
  8279  17B5  3195  25D1  3197   	fcall	_print_error
  8280  17B8                     l5910:	
  8281                           
  8282                           ;newmain1.c: 1478: }
  8283                           ;newmain1.c: 1480: if(!!((Data_Temp_Work_int) & (1<<(3))) != 1)
  8284  17B8  0020               	movlb	0	; select bank0
  8285  17B9  19CB               	btfsc	_Data_Temp_Work_int,3
  8286  17BA  2FC6               	goto	l5914
  8287                           
  8288                           ;newmain1.c: 1481: {
  8289                           ;newmain1.c: 1482: print_error("Error", "Butt Down Input");
  8290  17BB  3089               	movlw	low (STR_15| (0+32768))
  8291  17BC  00A0               	movwf	print_error@top
  8292  17BD  3093               	movlw	high (STR_15| (0+32768))
  8293  17BE  00A1               	movwf	print_error@top+1
  8294  17BF  30BE               	movlw	low (STR_62| (0+32768))
  8295  17C0  00A2               	movwf	print_error@bottom
  8296  17C1  3090               	movlw	high (STR_62| (0+32768))
  8297  17C2  00A3               	movwf	print_error@bottom+1
  8298  17C3  3195  25D1  3197   	fcall	_print_error
  8299  17C6                     l5914:	
  8300                           
  8301                           ;newmain1.c: 1483: }
  8302                           ;newmain1.c: 1490: if(!!((Data_Temp_Work_int) & (1<<(5))) != 1)
  8303  17C6  0020               	movlb	0	; select bank0
  8304  17C7  1ACB               	btfsc	_Data_Temp_Work_int,5
  8305  17C8  2FD4               	goto	l5918
  8306                           
  8307                           ;newmain1.c: 1491: {
  8308                           ;newmain1.c: 1492: print_error("Error", "Limit Input");
  8309  17C9  3089               	movlw	low (STR_15| (0+32768))
  8310  17CA  00A0               	movwf	print_error@top
  8311  17CB  3093               	movlw	high (STR_15| (0+32768))
  8312  17CC  00A1               	movwf	print_error@top+1
  8313  17CD  30C4               	movlw	low (STR_64| (0+32768))
  8314  17CE  00A2               	movwf	print_error@bottom
  8315  17CF  3092               	movlw	high (STR_64| (0+32768))
  8316  17D0  00A3               	movwf	print_error@bottom+1
  8317  17D1  3195  25D1  3197   	fcall	_print_error
  8318  17D4                     l5918:	
  8319                           
  8320                           ;newmain1.c: 1493: }
  8321                           ;newmain1.c: 1495: if(!!((Data_Temp_Work_int) & (1<<(6))) != 1)
  8322  17D4  0020               	movlb	0	; select bank0
  8323  17D5  1B4B               	btfsc	_Data_Temp_Work_int,6
  8324  17D6  2FE2               	goto	l5922
  8325                           
  8326                           ;newmain1.c: 1496: {
  8327                           ;newmain1.c: 1497: print_error("Error", "Bt Input");
  8328  17D7  3089               	movlw	low (STR_15| (0+32768))
  8329  17D8  00A0               	movwf	print_error@top
  8330  17D9  3093               	movlw	high (STR_15| (0+32768))
  8331  17DA  00A1               	movwf	print_error@top+1
  8332  17DB  3061               	movlw	low (STR_66| (0+32768))
  8333  17DC  00A2               	movwf	print_error@bottom
  8334  17DD  3093               	movlw	high (STR_66| (0+32768))
  8335  17DE  00A3               	movwf	print_error@bottom+1
  8336  17DF  3195  25D1  3197   	fcall	_print_error
  8337  17E2                     l5922:	
  8338                           
  8339                           ;newmain1.c: 1498: }
  8340                           ;newmain1.c: 1503: LATG0=1;
  8341  17E2  0027               	movlb	7	; select bank7
  8342  17E3  140D               	bsf	13,0	;volatile
  8343                           
  8344                           ;newmain1.c: 1505: _delay((unsigned long)((10)*(16000000/4000.0)));
  8345  17E4  3034               	movlw	52
  8346  17E5  0020               	movlb	0	; select bank0
  8347  17E6  00C7               	movwf	??_main+1
  8348  17E7  30F1               	movlw	241
  8349  17E8  00C6               	movwf	??_main
  8350  17E9                     u6197:	
  8351  17E9  0BC6               	decfsz	??_main,f
  8352  17EA  2FE9               	goto	u6197
  8353  17EB  0BC7               	decfsz	??_main+1,f
  8354  17EC  2FE9               	goto	u6197
  8355  17ED  3200               	nop2
  8356                           
  8357                           ;newmain1.c: 1507: send_usart_packet_manage(148, 148);
  8358  17EE  3094               	movlw	148
  8359  17EF  00F3               	movwf	send_usart_packet_manage@Data_carry
  8360  17F0  3000               	movlw	0
  8361  17F1  00F4               	movwf	send_usart_packet_manage@Data_carry+1
  8362  17F2  3094               	movlw	148
  8363  17F3  3195  2549  3197   	fcall	_send_usart_packet_manage
  8364                           
  8365                           ;newmain1.c: 1508: Data_Temp_Work_int = receive_data_bytes(1000);
  8366  17F6  30E8               	movlw	232
  8367  17F7  0020               	movlb	0	; select bank0
  8368  17F8  00A7               	movwf	receive_data_bytes@time_out_first_byte
  8369  17F9  3003               	movlw	3
  8370  17FA  00A8               	movwf	receive_data_bytes@time_out_first_byte+1
  8371  17FB  3182  221D         	fcall	_receive_data_bytes
  8372  17FD  0020               	movlb	0	; select bank0
  8373  17FE  3196  2EF6         	ljmp	L39
  8374                           
  8375                           	psect	maintext_split_7
  8376  16F6                     L39:	
  8377  16F6  0828               	movf	?_receive_data_bytes+1,w
  8378  16F7  00CC               	movwf	_Data_Temp_Work_int+1
  8379  16F8  0827               	movf	?_receive_data_bytes,w
  8380  16F9  00CB               	movwf	_Data_Temp_Work_int
  8381                           
  8382                           ;newmain1.c: 1513: if(!!((Data_Temp_Work_int) & (1<<(6))) != 0)
  8383  16FA  1F4B               	btfss	_Data_Temp_Work_int,6
  8384  16FB  2F07               	goto	l5934
  8385                           
  8386                           ;newmain1.c: 1514: {
  8387                           ;newmain1.c: 1515: print_error("Error", "Bt Input");
  8388  16FC  3089               	movlw	low (STR_15| (0+32768))
  8389  16FD  00A0               	movwf	print_error@top
  8390  16FE  3093               	movlw	high (STR_15| (0+32768))
  8391  16FF  00A1               	movwf	print_error@top+1
  8392  1700  3061               	movlw	low (STR_66| (0+32768))
  8393  1701  00A2               	movwf	print_error@bottom
  8394  1702  3093               	movlw	high (STR_66| (0+32768))
  8395  1703  00A3               	movwf	print_error@bottom+1
  8396  1704  3195  25D1  3196   	fcall	_print_error
  8397  1707                     l5934:	
  8398                           
  8399                           ;newmain1.c: 1516: }
  8400                           ;newmain1.c: 1518: LATG0=0;
  8401  1707  0027               	movlb	7	; select bank7
  8402  1708  100D               	bcf	13,0	;volatile
  8403                           
  8404                           ;newmain1.c: 1521: LATG3 = 1;
  8405  1709  158D               	bsf	13,3	;volatile
  8406                           
  8407                           ;newmain1.c: 1523: _delay((unsigned long)((10)*(16000000/4000.0)));
  8408  170A  3034               	movlw	52
  8409  170B  0020               	movlb	0	; select bank0
  8410  170C  00C7               	movwf	??_main+1
  8411  170D  30F1               	movlw	241
  8412  170E  00C6               	movwf	??_main
  8413  170F                     u6207:	
  8414  170F  0BC6               	decfsz	??_main,f
  8415  1710  2F0F               	goto	u6207
  8416  1711  0BC7               	decfsz	??_main+1,f
  8417  1712  2F0F               	goto	u6207
  8418  1713  3200               	nop2
  8419                           
  8420                           ;newmain1.c: 1525: send_usart_packet_manage(148, 148);
  8421  1714  3094               	movlw	148
  8422  1715  00F3               	movwf	send_usart_packet_manage@Data_carry
  8423  1716  3000               	movlw	0
  8424  1717  00F4               	movwf	send_usart_packet_manage@Data_carry+1
  8425  1718  3094               	movlw	148
  8426  1719  3195  2549  3196   	fcall	_send_usart_packet_manage
  8427                           
  8428                           ;newmain1.c: 1526: Data_Temp_Work_int = receive_data_bytes(1000);
  8429  171C  30E8               	movlw	232
  8430  171D  0020               	movlb	0	; select bank0
  8431  171E  00A7               	movwf	receive_data_bytes@time_out_first_byte
  8432  171F  3003               	movlw	3
  8433  1720  00A8               	movwf	receive_data_bytes@time_out_first_byte+1
  8434  1721  3182  221D  3196   	fcall	_receive_data_bytes
  8435  1724  0020               	movlb	0	; select bank0
  8436  1725  0828               	movf	?_receive_data_bytes+1,w
  8437  1726  00CC               	movwf	_Data_Temp_Work_int+1
  8438  1727  0827               	movf	?_receive_data_bytes,w
  8439  1728  00CB               	movwf	_Data_Temp_Work_int
  8440                           
  8441                           ;newmain1.c: 1531: if(!!((Data_Temp_Work_int) & (1<<(5))) != 0)
  8442  1729  1ECB               	btfss	_Data_Temp_Work_int,5
  8443  172A  2F36               	goto	l5948
  8444                           
  8445                           ;newmain1.c: 1532: {
  8446                           ;newmain1.c: 1533: print_error("Error", "Limit Input");
  8447  172B  3089               	movlw	low (STR_15| (0+32768))
  8448  172C  00A0               	movwf	print_error@top
  8449  172D  3093               	movlw	high (STR_15| (0+32768))
  8450  172E  00A1               	movwf	print_error@top+1
  8451  172F  30C4               	movlw	low (STR_64| (0+32768))
  8452  1730  00A2               	movwf	print_error@bottom
  8453  1731  3092               	movlw	high (STR_64| (0+32768))
  8454  1732  00A3               	movwf	print_error@bottom+1
  8455  1733  3195  25D1  3196   	fcall	_print_error
  8456  1736                     l5948:	
  8457                           
  8458                           ;newmain1.c: 1534: }
  8459                           ;newmain1.c: 1536: LATG3=0;
  8460  1736  0027               	movlb	7	; select bank7
  8461  1737  118D               	bcf	13,3	;volatile
  8462                           
  8463                           ;newmain1.c: 1539: LATF7 = 1;
  8464  1738  178C               	bsf	12,7	;volatile
  8465                           
  8466                           ;newmain1.c: 1541: _delay((unsigned long)((10)*(16000000/4000.0)));
  8467  1739  3034               	movlw	52
  8468  173A  0020               	movlb	0	; select bank0
  8469  173B  00C7               	movwf	??_main+1
  8470  173C  30F1               	movlw	241
  8471  173D  00C6               	movwf	??_main
  8472  173E                     u6217:	
  8473  173E  0BC6               	decfsz	??_main,f
  8474  173F  2F3E               	goto	u6217
  8475  1740  0BC7               	decfsz	??_main+1,f
  8476  1741  2F3E               	goto	u6217
  8477  1742  3200               	nop2
  8478                           
  8479                           ;newmain1.c: 1543: send_usart_packet_manage(148, 148);
  8480  1743  3094               	movlw	148
  8481  1744  00F3               	movwf	send_usart_packet_manage@Data_carry
  8482  1745  3000               	movlw	0
  8483  1746  00F4               	movwf	send_usart_packet_manage@Data_carry+1
  8484  1747  3094               	movlw	148
  8485  1748  3195  2549  3196   	fcall	_send_usart_packet_manage
  8486                           
  8487                           ;newmain1.c: 1544: Data_Temp_Work_int = receive_data_bytes(1000);
  8488  174B  30E8               	movlw	232
  8489  174C  0020               	movlb	0	; select bank0
  8490  174D  00A7               	movwf	receive_data_bytes@time_out_first_byte
  8491  174E  3003               	movlw	3
  8492  174F  00A8               	movwf	receive_data_bytes@time_out_first_byte+1
  8493  1750  3182  221D  3196   	fcall	_receive_data_bytes
  8494  1753  0020               	movlb	0	; select bank0
  8495  1754  0828               	movf	?_receive_data_bytes+1,w
  8496  1755  00CC               	movwf	_Data_Temp_Work_int+1
  8497  1756  0827               	movf	?_receive_data_bytes,w
  8498  1757  00CB               	movwf	_Data_Temp_Work_int
  8499                           
  8500                           ;newmain1.c: 1549: if(!!((Data_Temp_Work_int) & (1<<(0))) != 0)
  8501  1758  1C4B               	btfss	_Data_Temp_Work_int,0
  8502  1759  2F65               	goto	l5962
  8503                           
  8504                           ;newmain1.c: 1550: {
  8505                           ;newmain1.c: 1551: print_error("Error", "Encoder Input");
  8506  175A  3089               	movlw	low (STR_15| (0+32768))
  8507  175B  00A0               	movwf	print_error@top
  8508  175C  3093               	movlw	high (STR_15| (0+32768))
  8509  175D  00A1               	movwf	print_error@top+1
  8510  175E  30DF               	movlw	low (STR_56| (0+32768))
  8511  175F  00A2               	movwf	print_error@bottom
  8512  1760  3091               	movlw	high (STR_56| (0+32768))
  8513  1761  00A3               	movwf	print_error@bottom+1
  8514  1762  3195  25D1  3196   	fcall	_print_error
  8515  1765                     l5962:	
  8516                           
  8517                           ;newmain1.c: 1552: }
  8518                           ;newmain1.c: 1554: LATF7 = 0;
  8519  1765  0027               	movlb	7	; select bank7
  8520  1766  138C               	bcf	12,7	;volatile
  8521                           
  8522                           ;newmain1.c: 1557: _delay((unsigned long)((10)*(16000000/4000.0)));
  8523  1767  3034               	movlw	52
  8524  1768  0020               	movlb	0	; select bank0
  8525  1769  00C7               	movwf	??_main+1
  8526  176A  30F1               	movlw	241
  8527  176B  00C6               	movwf	??_main
  8528  176C                     u6227:	
  8529  176C  0BC6               	decfsz	??_main,f
  8530  176D  2F6C               	goto	u6227
  8531  176E  0BC7               	decfsz	??_main+1,f
  8532  176F  2F6C               	goto	u6227
  8533  1770  3200               	nop2
  8534                           
  8535                           ;newmain1.c: 1559: send_usart_packet_manage(134, 2);
  8536  1771  3002               	movlw	2
  8537  1772  00F3               	movwf	send_usart_packet_manage@Data_carry
  8538  1773  3000               	movlw	0
  8539  1774  00F4               	movwf	send_usart_packet_manage@Data_carry+1
  8540  1775  3086               	movlw	134
  8541  1776  3195  2549         	fcall	_send_usart_packet_manage
  8542                           
  8543                           ;newmain1.c: 1560: Data_Temp_Work_int = receive_data_bytes(1000);
  8544  1778  30E8               	movlw	232
  8545  1779  3188  2830         	ljmp	L40
  8546                           
  8547                           	psect	maintext_split_8
  8548  0830                     L40:	
  8549  0830  0020               	movlb	0	; select bank0
  8550  0831  00A7               	movwf	receive_data_bytes@time_out_first_byte
  8551  0832  3003               	movlw	3
  8552  0833  00A8               	movwf	receive_data_bytes@time_out_first_byte+1
  8553  0834  3182  221D  3188   	fcall	_receive_data_bytes
  8554  0837  0020               	movlb	0	; select bank0
  8555  0838  0828               	movf	?_receive_data_bytes+1,w
  8556  0839  00CC               	movwf	_Data_Temp_Work_int+1
  8557  083A  0827               	movf	?_receive_data_bytes,w
  8558  083B  00CB               	movwf	_Data_Temp_Work_int
  8559                           
  8560                           ;newmain1.c: 1564: _delay((unsigned long)((10)*(16000000/4000.0)));
  8561  083C  3034               	movlw	52
  8562  083D  00C7               	movwf	??_main+1
  8563  083E  30F1               	movlw	241
  8564  083F  00C6               	movwf	??_main
  8565  0840                     u6237:	
  8566  0840  0BC6               	decfsz	??_main,f
  8567  0841  2840               	goto	u6237
  8568  0842  0BC7               	decfsz	??_main+1,f
  8569  0843  2840               	goto	u6237
  8570  0844  3200               	nop2
  8571                           
  8572                           ;newmain1.c: 1566: send_usart_packet_manage(148, 148);
  8573  0845  3094               	movlw	148
  8574  0846  00F3               	movwf	send_usart_packet_manage@Data_carry
  8575  0847  3000               	movlw	0
  8576  0848  00F4               	movwf	send_usart_packet_manage@Data_carry+1
  8577  0849  3094               	movlw	148
  8578  084A  3195  2549  3188   	fcall	_send_usart_packet_manage
  8579                           
  8580                           ;newmain1.c: 1567: Data_Temp_Work_int = receive_data_bytes(1000);
  8581  084D  30E8               	movlw	232
  8582  084E  0020               	movlb	0	; select bank0
  8583  084F  00A7               	movwf	receive_data_bytes@time_out_first_byte
  8584  0850  3003               	movlw	3
  8585  0851  00A8               	movwf	receive_data_bytes@time_out_first_byte+1
  8586  0852  3182  221D  3188   	fcall	_receive_data_bytes
  8587  0855  0020               	movlb	0	; select bank0
  8588  0856  0828               	movf	?_receive_data_bytes+1,w
  8589  0857  00CC               	movwf	_Data_Temp_Work_int+1
  8590  0858  0827               	movf	?_receive_data_bytes,w
  8591  0859  00CB               	movwf	_Data_Temp_Work_int
  8592                           
  8593                           ;newmain1.c: 1572: if(!!((Data_Temp_Work_int) & (1<<(1))) != 0)
  8594  085A  1CCB               	btfss	_Data_Temp_Work_int,1
  8595  085B  2867               	goto	l5978
  8596                           
  8597                           ;newmain1.c: 1573: {
  8598                           ;newmain1.c: 1574: print_error("Error", "Ecan Rx Input");
  8599  085C  3089               	movlw	low (STR_15| (0+32768))
  8600  085D  00A0               	movwf	print_error@top
  8601  085E  3093               	movlw	high (STR_15| (0+32768))
  8602  085F  00A1               	movwf	print_error@top+1
  8603  0860  30ED               	movlw	low (STR_58| (0+32768))
  8604  0861  00A2               	movwf	print_error@bottom
  8605  0862  3091               	movlw	high (STR_58| (0+32768))
  8606  0863  00A3               	movwf	print_error@bottom+1
  8607  0864  3195  25D1  3188   	fcall	_print_error
  8608  0867                     l5978:	
  8609                           
  8610                           ;newmain1.c: 1575: }
  8611                           ;newmain1.c: 1577: send_usart_packet_manage(134, 1);
  8612  0867  3001               	movlw	1
  8613  0868  00F3               	movwf	send_usart_packet_manage@Data_carry
  8614  0869  3000               	movlw	0
  8615  086A  00F4               	movwf	send_usart_packet_manage@Data_carry+1
  8616  086B  3086               	movlw	134
  8617  086C  3195  2549  3188   	fcall	_send_usart_packet_manage
  8618                           
  8619                           ;newmain1.c: 1578: Data_Temp_Work_int = receive_data_bytes(1000);
  8620  086F  30E8               	movlw	232
  8621  0870  0020               	movlb	0	; select bank0
  8622  0871  00A7               	movwf	receive_data_bytes@time_out_first_byte
  8623  0872  3003               	movlw	3
  8624  0873  00A8               	movwf	receive_data_bytes@time_out_first_byte+1
  8625  0874  3182  221D  3188   	fcall	_receive_data_bytes
  8626  0877  0020               	movlb	0	; select bank0
  8627  0878  0828               	movf	?_receive_data_bytes+1,w
  8628  0879  00CC               	movwf	_Data_Temp_Work_int+1
  8629  087A  0827               	movf	?_receive_data_bytes,w
  8630  087B  00CB               	movwf	_Data_Temp_Work_int
  8631                           
  8632                           ;newmain1.c: 1580: _delay((unsigned long)((10)*(16000000/4000.0)));
  8633  087C  3034               	movlw	52
  8634  087D  00C7               	movwf	??_main+1
  8635  087E  30F1               	movlw	241
  8636  087F  00C6               	movwf	??_main
  8637  0880                     u6247:	
  8638  0880  0BC6               	decfsz	??_main,f
  8639  0881  2880               	goto	u6247
  8640  0882  0BC7               	decfsz	??_main+1,f
  8641  0883  2880               	goto	u6247
  8642  0884  3200               	nop2
  8643                           
  8644                           ;newmain1.c: 1584: print_screen("Press", "Up Button");
  8645  0885  308F               	movlw	low (STR_75| (0+32768))
  8646  0886  00F6               	movwf	print_screen@top
  8647  0887  3093               	movlw	high (STR_75| (0+32768))
  8648  0888  00F7               	movwf	print_screen@top+1
  8649  0889  3004               	movlw	low (STR_76| (0+32768))
  8650  088A  00F8               	movwf	print_screen@bottom
  8651  088B  3093               	movlw	high (STR_76| (0+32768))
  8652  088C  00F9               	movwf	print_screen@bottom+1
  8653  088D  319F  27E9  3188   	fcall	_print_screen
  8654  0890                     l5986:	
  8655                           ;newmain1.c: 1587: while(1)
  8656                           
  8657                           
  8658                           ;newmain1.c: 1588: {
  8659                           ;newmain1.c: 1589: _delay((unsigned long)((10)*(16000000/4000.0)));
  8660  0890  3034               	movlw	52
  8661  0891  0020               	movlb	0	; select bank0
  8662  0892  00C7               	movwf	??_main+1
  8663  0893  30F1               	movlw	241
  8664  0894  00C6               	movwf	??_main
  8665  0895                     u6257:	
  8666  0895  0BC6               	decfsz	??_main,f
  8667  0896  2895               	goto	u6257
  8668  0897  0BC7               	decfsz	??_main+1,f
  8669  0898  2895               	goto	u6257
  8670  0899  3200               	nop2
  8671                           
  8672                           ;newmain1.c: 1590: send_usart_packet_manage(148, 148);
  8673  089A  3094               	movlw	148
  8674  089B  00F3               	movwf	send_usart_packet_manage@Data_carry
  8675  089C  3000               	movlw	0
  8676  089D  00F4               	movwf	send_usart_packet_manage@Data_carry+1
  8677  089E  3094               	movlw	148
  8678  089F  3195  2549  3188   	fcall	_send_usart_packet_manage
  8679                           
  8680                           ;newmain1.c: 1591: Data_Temp_Work_int = receive_data_bytes(1000);
  8681  08A2  30E8               	movlw	232
  8682  08A3  0020               	movlb	0	; select bank0
  8683  08A4  00A7               	movwf	receive_data_bytes@time_out_first_byte
  8684  08A5  3003               	movlw	3
  8685  08A6  00A8               	movwf	receive_data_bytes@time_out_first_byte+1
  8686  08A7  3182  221D  3188   	fcall	_receive_data_bytes
  8687  08AA  0020               	movlb	0	; select bank0
  8688  08AB  0828               	movf	?_receive_data_bytes+1,w
  8689  08AC  00CC               	movwf	_Data_Temp_Work_int+1
  8690  08AD  0827               	movf	?_receive_data_bytes,w
  8691  08AE  00CB               	movwf	_Data_Temp_Work_int
  8692                           
  8693                           ;newmain1.c: 1593: if(!!((Data_Temp_Work_int) & (1<<(2))) == 0)
  8694  08AF  194B               	btfsc	_Data_Temp_Work_int,2
  8695  08B0  2890               	goto	l5986
  8696  08B1                     l5994:	
  8697                           ;newmain1.c: 1596: }
  8698                           ;newmain1.c: 1597: }
  8699                           ;newmain1.c: 1600: while(1)
  8700                           
  8701                           ;newmain1.c: 1594: {
  8702                           ;newmain1.c: 1595: break;
  8703                           
  8704                           
  8705                           ;newmain1.c: 1601: {
  8706                           ;newmain1.c: 1602: _delay((unsigned long)((10)*(16000000/4000.0)));
  8707  08B1  3034               	movlw	52
  8708  08B2  00C7               	movwf	??_main+1
  8709  08B3  30F1               	movlw	241
  8710  08B4  00C6               	movwf	??_main
  8711  08B5                     u6267:	
  8712  08B5  0BC6               	decfsz	??_main,f
  8713  08B6  28B5               	goto	u6267
  8714  08B7  0BC7               	decfsz	??_main+1,f
  8715  08B8  28B5               	goto	u6267
  8716  08B9  3200               	nop2
  8717                           
  8718                           ;newmain1.c: 1603: send_usart_packet_manage(148, 148);
  8719  08BA  3094               	movlw	148
  8720  08BB  00F3               	movwf	send_usart_packet_manage@Data_carry
  8721  08BC  3000               	movlw	0
  8722  08BD  00F4               	movwf	send_usart_packet_manage@Data_carry+1
  8723  08BE  3094               	movlw	148
  8724  08BF  3195  2549  3188   	fcall	_send_usart_packet_manage
  8725                           
  8726                           ;newmain1.c: 1604: Data_Temp_Work_int = receive_data_bytes(1000);
  8727  08C2  30E8               	movlw	232
  8728  08C3  0020               	movlb	0	; select bank0
  8729  08C4  00A7               	movwf	receive_data_bytes@time_out_first_byte
  8730  08C5  3003               	movlw	3
  8731  08C6  00A8               	movwf	receive_data_bytes@time_out_first_byte+1
  8732  08C7  3182  221D  3188   	fcall	_receive_data_bytes
  8733  08CA  0020               	movlb	0	; select bank0
  8734  08CB  0828               	movf	?_receive_data_bytes+1,w
  8735  08CC  00CC               	movwf	_Data_Temp_Work_int+1
  8736  08CD  0827               	movf	?_receive_data_bytes,w
  8737  08CE  00CB               	movwf	_Data_Temp_Work_int
  8738                           
  8739                           ;newmain1.c: 1606: if(!!((Data_Temp_Work_int) & (1<<(2))) == 1)
  8740  08CF  1D4B               	btfss	_Data_Temp_Work_int,2
  8741  08D0  28B1               	goto	l5994
  8742                           
  8743                           ;newmain1.c: 1609: }
  8744                           ;newmain1.c: 1610: }
  8745                           ;newmain1.c: 1613: print_screen("Press", "Down Butt");
  8746                           
  8747                           ;newmain1.c: 1607: {
  8748                           ;newmain1.c: 1608: break;
  8749  08D1  308F               	movlw	low (STR_75| (0+32768))
  8750  08D2  00F6               	movwf	print_screen@top
  8751  08D3  3093               	movlw	high (STR_75| (0+32768))
  8752  08D4  00F7               	movwf	print_screen@top+1
  8753  08D5  30B4               	movlw	low ((STR_80+6)| (0+32768))
  8754  08D6  00F8               	movwf	print_screen@bottom
  8755  08D7  3090               	movlw	high ((STR_80+6)| (0+32768))
  8756  08D8  00F9               	movwf	print_screen@bottom+1
  8757  08D9  319F  27E9  3188   	fcall	_print_screen
  8758  08DC                     l6006:	
  8759                           ;newmain1.c: 1616: while(1)
  8760                           
  8761                           
  8762                           ;newmain1.c: 1617: {
  8763                           ;newmain1.c: 1618: _delay((unsigned long)((10)*(16000000/4000.0)));
  8764  08DC  3034               	movlw	52
  8765  08DD  0020               	movlb	0	; select bank0
  8766  08DE  00C7               	movwf	??_main+1
  8767  08DF  30F1               	movlw	241
  8768  08E0  00C6               	movwf	??_main
  8769  08E1                     u6277:	
  8770  08E1  0BC6               	decfsz	??_main,f
  8771  08E2  28E1               	goto	u6277
  8772  08E3  0BC7               	decfsz	??_main+1,f
  8773  08E4  28E1               	goto	u6277
  8774  08E5  3200               	nop2
  8775                           
  8776                           ;newmain1.c: 1619: send_usart_packet_manage(148, 148);
  8777  08E6  3094               	movlw	148
  8778  08E7  00F3               	movwf	send_usart_packet_manage@Data_carry
  8779  08E8  3000               	movlw	0
  8780  08E9  00F4               	movwf	send_usart_packet_manage@Data_carry+1
  8781  08EA  3094               	movlw	148
  8782  08EB  3195  2549  3188   	fcall	_send_usart_packet_manage
  8783                           
  8784                           ;newmain1.c: 1620: Data_Temp_Work_int = receive_data_bytes(1000);
  8785  08EE  30E8               	movlw	232
  8786  08EF  0020               	movlb	0	; select bank0
  8787  08F0  00A7               	movwf	receive_data_bytes@time_out_first_byte
  8788  08F1  3003               	movlw	3
  8789  08F2  00A8               	movwf	receive_data_bytes@time_out_first_byte+1
  8790  08F3  3182  221D  3188   	fcall	_receive_data_bytes
  8791  08F6  0020               	movlb	0	; select bank0
  8792  08F7  0828               	movf	?_receive_data_bytes+1,w
  8793  08F8  00CC               	movwf	_Data_Temp_Work_int+1
  8794  08F9  0827               	movf	?_receive_data_bytes,w
  8795  08FA  00CB               	movwf	_Data_Temp_Work_int
  8796                           
  8797                           ;newmain1.c: 1622: if(!!((Data_Temp_Work_int) & (1<<(3))) == 0)
  8798  08FB  19CB               	btfsc	_Data_Temp_Work_int,3
  8799  08FC  28DC               	goto	l6006
  8800  08FD                     l6016:	
  8801                           ;newmain1.c: 1625: }
  8802                           ;newmain1.c: 1626: }
  8803                           ;newmain1.c: 1629: while(1)
  8804                           
  8805                           ;newmain1.c: 1623: {
  8806                           ;newmain1.c: 1624: break;
  8807                           
  8808                           
  8809                           ;newmain1.c: 1630: {
  8810                           ;newmain1.c: 1631: _delay((unsigned long)((10)*(16000000/4000.0)));
  8811  08FD  3034               	movlw	52
  8812  08FE  00C7               	movwf	??_main+1
  8813  08FF  30F1               	movlw	241
  8814  0900  00C6               	movwf	??_main
  8815  0901                     u6287:	
  8816  0901  0BC6               	decfsz	??_main,f
  8817  0902  2901               	goto	u6287
  8818  0903  0BC7               	decfsz	??_main+1,f
  8819  0904  2901               	goto	u6287
  8820  0905  3200               	nop2
  8821                           
  8822                           ;newmain1.c: 1632: send_usart_packet_manage(148, 148);
  8823  0906  3094               	movlw	148
  8824  0907  00F3               	movwf	send_usart_packet_manage@Data_carry
  8825  0908  3000               	movlw	0
  8826  0909  00F4               	movwf	send_usart_packet_manage@Data_carry+1
  8827  090A  3094               	movlw	148
  8828  090B  3195  2549  3188   	fcall	_send_usart_packet_manage
  8829                           
  8830                           ;newmain1.c: 1633: Data_Temp_Work_int = receive_data_bytes(1000);
  8831  090E  30E8               	movlw	232
  8832  090F  0020               	movlb	0	; select bank0
  8833  0910  00A7               	movwf	receive_data_bytes@time_out_first_byte
  8834  0911  3003               	movlw	3
  8835  0912  00A8               	movwf	receive_data_bytes@time_out_first_byte+1
  8836  0913  3182  221D  3188   	fcall	_receive_data_bytes
  8837  0916  0020               	movlb	0	; select bank0
  8838  0917  0828               	movf	?_receive_data_bytes+1,w
  8839  0918  00CC               	movwf	_Data_Temp_Work_int+1
  8840  0919  0827               	movf	?_receive_data_bytes,w
  8841  091A  00CB               	movwf	_Data_Temp_Work_int
  8842                           
  8843                           ;newmain1.c: 1635: if(!!((Data_Temp_Work_int) & (1<<(3))) == 1)
  8844  091B  1DCB               	btfss	_Data_Temp_Work_int,3
  8845  091C  28FD               	goto	l6016
  8846                           
  8847                           ;newmain1.c: 1638: }
  8848                           ;newmain1.c: 1639: }
  8849                           ;newmain1.c: 1642: print_screen("All Leds On?", "Press Down Butt");
  8850                           
  8851                           ;newmain1.c: 1636: {
  8852                           ;newmain1.c: 1637: break;
  8853  091D  3008               	movlw	low (STR_79| (0+32768))
  8854  091E  00F6               	movwf	print_screen@top
  8855  091F  3092               	movlw	high (STR_79| (0+32768))
  8856  0920  00F7               	movwf	print_screen@top+1
  8857  0921  30AE               	movlw	low (STR_80| (0+32768))
  8858  0922  00F8               	movwf	print_screen@bottom
  8859  0923  3090               	movlw	high (STR_80| (0+32768))
  8860  0924  00F9               	movwf	print_screen@bottom+1
  8861  0925  319F  27E9  3188   	fcall	_print_screen
  8862                           
  8863                           ;newmain1.c: 1644: _delay((unsigned long)((10)*(16000000/4000.0)));
  8864  0928  3034               	movlw	52
  8865  0929  0020               	movlb	0	; select bank0
  8866  092A  00C7               	movwf	??_main+1
  8867  092B  30F1               	movlw	241
  8868  092C  00C6               	movwf	??_main
  8869  092D                     u6297:	
  8870  092D  0BC6               	decfsz	??_main,f
  8871  092E  292D               	goto	u6297
  8872  092F  0BC7               	decfsz	??_main+1,f
  8873  0930  292D               	goto	u6297
  8874  0931  3200               	nop2
  8875                           
  8876                           ;newmain1.c: 1645: send_usart_packet_manage(135, 2);
  8877  0932  3002               	movlw	2
  8878  0933  00F3               	movwf	send_usart_packet_manage@Data_carry
  8879  0934  3000               	movlw	0
  8880  0935  00F4               	movwf	send_usart_packet_manage@Data_carry+1
  8881  0936  3087               	movlw	135
  8882  0937  3195  2549  3188   	fcall	_send_usart_packet_manage
  8883                           
  8884                           ;newmain1.c: 1646: Data_Temp_Work_int = receive_data_bytes(1000);
  8885  093A  30E8               	movlw	232
  8886  093B  0020               	movlb	0	; select bank0
  8887  093C  00A7               	movwf	receive_data_bytes@time_out_first_byte
  8888  093D  3003               	movlw	3
  8889  093E  00A8               	movwf	receive_data_bytes@time_out_first_byte+1
  8890  093F  3182  221D  3188   	fcall	_receive_data_bytes
  8891  0942  0020               	movlb	0	; select bank0
  8892  0943  0828               	movf	?_receive_data_bytes+1,w
  8893  0944  00CC               	movwf	_Data_Temp_Work_int+1
  8894  0945  0827               	movf	?_receive_data_bytes,w
  8895  0946  00CB               	movwf	_Data_Temp_Work_int
  8896                           
  8897                           ;newmain1.c: 1648: _delay((unsigned long)((10)*(16000000/4000.0)));
  8898  0947  3034               	movlw	52
  8899  0948  00C7               	movwf	??_main+1
  8900  0949  30F1               	movlw	241
  8901  094A  00C6               	movwf	??_main
  8902  094B                     u6307:	
  8903  094B  0BC6               	decfsz	??_main,f
  8904  094C  294B               	goto	u6307
  8905  094D  0BC7               	decfsz	??_main+1,f
  8906  094E  294B               	goto	u6307
  8907  094F  3200               	nop2
  8908                           
  8909                           ;newmain1.c: 1649: send_usart_packet_manage(136, 2);
  8910  0950  3002               	movlw	2
  8911  0951  00F3               	movwf	send_usart_packet_manage@Data_carry
  8912  0952  3000               	movlw	0
  8913  0953  00F4               	movwf	send_usart_packet_manage@Data_carry+1
  8914  0954  3088               	movlw	136
  8915  0955  3195  2549  3188   	fcall	_send_usart_packet_manage
  8916                           
  8917                           ;newmain1.c: 1650: Data_Temp_Work_int = receive_data_bytes(1000);
  8918  0958  30E8               	movlw	232
  8919  0959  0020               	movlb	0	; select bank0
  8920  095A  00A7               	movwf	receive_data_bytes@time_out_first_byte
  8921  095B  3003               	movlw	3
  8922  095C  00A8               	movwf	receive_data_bytes@time_out_first_byte+1
  8923  095D  3182  221D  3188   	fcall	_receive_data_bytes
  8924  0960  0020               	movlb	0	; select bank0
  8925  0961  0828               	movf	?_receive_data_bytes+1,w
  8926  0962  00CC               	movwf	_Data_Temp_Work_int+1
  8927  0963  0827               	movf	?_receive_data_bytes,w
  8928  0964  00CB               	movwf	_Data_Temp_Work_int
  8929                           
  8930                           ;newmain1.c: 1652: _delay((unsigned long)((10)*(16000000/4000.0)));
  8931  0965  3034               	movlw	52
  8932  0966  00C7               	movwf	??_main+1
  8933  0967  30F1               	movlw	241
  8934  0968  00C6               	movwf	??_main
  8935  0969                     u6317:	
  8936  0969  0BC6               	decfsz	??_main,f
  8937  096A  2969               	goto	u6317
  8938  096B  0BC7               	decfsz	??_main+1,f
  8939  096C  2969               	goto	u6317
  8940  096D  3200               	nop2
  8941                           
  8942                           ;newmain1.c: 1653: send_usart_packet_manage(137, 2);
  8943  096E  3002               	movlw	2
  8944  096F  00F3               	movwf	send_usart_packet_manage@Data_carry
  8945  0970  3000               	movlw	0
  8946  0971  00F4               	movwf	send_usart_packet_manage@Data_carry+1
  8947  0972  3089               	movlw	137
  8948  0973  3195  2549  3188   	fcall	_send_usart_packet_manage
  8949                           
  8950                           ;newmain1.c: 1654: Data_Temp_Work_int = receive_data_bytes(1000);
  8951  0976  30E8               	movlw	232
  8952  0977  0020               	movlb	0	; select bank0
  8953  0978  00A7               	movwf	receive_data_bytes@time_out_first_byte
  8954  0979  3003               	movlw	3
  8955  097A  00A8               	movwf	receive_data_bytes@time_out_first_byte+1
  8956  097B  3182  221D  3188   	fcall	_receive_data_bytes
  8957  097E  0020               	movlb	0	; select bank0
  8958  097F  0828               	movf	?_receive_data_bytes+1,w
  8959  0980  00CC               	movwf	_Data_Temp_Work_int+1
  8960  0981  0827               	movf	?_receive_data_bytes,w
  8961  0982  00CB               	movwf	_Data_Temp_Work_int
  8962                           
  8963                           ;newmain1.c: 1656: _delay((unsigned long)((10)*(16000000/4000.0)));
  8964  0983  3034               	movlw	52
  8965  0984  00C7               	movwf	??_main+1
  8966  0985  30F1               	movlw	241
  8967  0986  00C6               	movwf	??_main
  8968  0987                     u6327:	
  8969  0987  0BC6               	decfsz	??_main,f
  8970  0988  2987               	goto	u6327
  8971  0989  0BC7               	decfsz	??_main+1,f
  8972  098A  2987               	goto	u6327
  8973  098B  3200               	nop2
  8974                           
  8975                           ;newmain1.c: 1657: send_usart_packet_manage(138, 2);
  8976  098C  3002               	movlw	2
  8977  098D  00F3               	movwf	send_usart_packet_manage@Data_carry
  8978  098E  3000               	movlw	0
  8979  098F  00F4               	movwf	send_usart_packet_manage@Data_carry+1
  8980  0990  308A               	movlw	138
  8981  0991  3195  2549  3188   	fcall	_send_usart_packet_manage
  8982                           
  8983                           ;newmain1.c: 1658: Data_Temp_Work_int = receive_data_bytes(1000);
  8984  0994  30E8               	movlw	232
  8985  0995  0020               	movlb	0	; select bank0
  8986  0996  00A7               	movwf	receive_data_bytes@time_out_first_byte
  8987  0997  3003               	movlw	3
  8988  0998  00A8               	movwf	receive_data_bytes@time_out_first_byte+1
  8989  0999  3182  221D  3188   	fcall	_receive_data_bytes
  8990  099C  0020               	movlb	0	; select bank0
  8991  099D  0828               	movf	?_receive_data_bytes+1,w
  8992  099E  00CC               	movwf	_Data_Temp_Work_int+1
  8993  099F  0827               	movf	?_receive_data_bytes,w
  8994  09A0  00CB               	movwf	_Data_Temp_Work_int
  8995                           
  8996                           ;newmain1.c: 1660: _delay((unsigned long)((10)*(16000000/4000.0)));
  8997  09A1  3034               	movlw	52
  8998  09A2  00C7               	movwf	??_main+1
  8999  09A3  30F1               	movlw	241
  9000  09A4  00C6               	movwf	??_main
  9001  09A5                     u6337:	
  9002  09A5  0BC6               	decfsz	??_main,f
  9003  09A6  29A5               	goto	u6337
  9004  09A7  0BC7               	decfsz	??_main+1,f
  9005  09A8  29A5               	goto	u6337
  9006  09A9  3200               	nop2
  9007                           
  9008                           ;newmain1.c: 1661: send_usart_packet_manage(143, 2);
  9009  09AA  3002               	movlw	2
  9010  09AB  00F3               	movwf	send_usart_packet_manage@Data_carry
  9011  09AC  3000               	movlw	0
  9012  09AD  00F4               	movwf	send_usart_packet_manage@Data_carry+1
  9013  09AE  308F               	movlw	143
  9014  09AF  3195  2549  3188   	fcall	_send_usart_packet_manage
  9015                           
  9016                           ;newmain1.c: 1662: Data_Temp_Work_int = receive_data_bytes(1000);
  9017  09B2  30E8               	movlw	232
  9018  09B3  0020               	movlb	0	; select bank0
  9019  09B4  00A7               	movwf	receive_data_bytes@time_out_first_byte
  9020  09B5  3003               	movlw	3
  9021  09B6  00A8               	movwf	receive_data_bytes@time_out_first_byte+1
  9022  09B7  3182  221D  3188   	fcall	_receive_data_bytes
  9023  09BA  0020               	movlb	0	; select bank0
  9024  09BB  0828               	movf	?_receive_data_bytes+1,w
  9025  09BC  00CC               	movwf	_Data_Temp_Work_int+1
  9026  09BD  0827               	movf	?_receive_data_bytes,w
  9027  09BE  00CB               	movwf	_Data_Temp_Work_int
  9028                           
  9029                           ;newmain1.c: 1664: _delay((unsigned long)((10)*(16000000/4000.0)));
  9030  09BF  3034               	movlw	52
  9031  09C0  00C7               	movwf	??_main+1
  9032  09C1  30F1               	movlw	241
  9033  09C2  00C6               	movwf	??_main
  9034  09C3                     u6347:	
  9035  09C3  0BC6               	decfsz	??_main,f
  9036  09C4  29C3               	goto	u6347
  9037  09C5  0BC7               	decfsz	??_main+1,f
  9038  09C6  29C3               	goto	u6347
  9039  09C7  3200               	nop2
  9040                           
  9041                           ;newmain1.c: 1665: send_usart_packet_manage(144, 2);
  9042  09C8  3002               	movlw	2
  9043  09C9  00F3               	movwf	send_usart_packet_manage@Data_carry
  9044  09CA  3000               	movlw	0
  9045  09CB  00F4               	movwf	send_usart_packet_manage@Data_carry+1
  9046  09CC  3090               	movlw	144
  9047  09CD  3195  2549  3188   	fcall	_send_usart_packet_manage
  9048                           
  9049                           ;newmain1.c: 1666: Data_Temp_Work_int = receive_data_bytes(1000);
  9050  09D0  30E8               	movlw	232
  9051  09D1  0020               	movlb	0	; select bank0
  9052  09D2  00A7               	movwf	receive_data_bytes@time_out_first_byte
  9053  09D3  3003               	movlw	3
  9054  09D4  00A8               	movwf	receive_data_bytes@time_out_first_byte+1
  9055  09D5  3182  221D  3188   	fcall	_receive_data_bytes
  9056  09D8  0020               	movlb	0	; select bank0
  9057  09D9  0828               	movf	?_receive_data_bytes+1,w
  9058  09DA  00CC               	movwf	_Data_Temp_Work_int+1
  9059  09DB  0827               	movf	?_receive_data_bytes,w
  9060  09DC  00CB               	movwf	_Data_Temp_Work_int
  9061                           
  9062                           ;newmain1.c: 1668: _delay((unsigned long)((10)*(16000000/4000.0)));
  9063  09DD  3034               	movlw	52
  9064  09DE  00C7               	movwf	??_main+1
  9065  09DF  30F1               	movlw	241
  9066  09E0  00C6               	movwf	??_main
  9067  09E1                     u6357:	
  9068  09E1  0BC6               	decfsz	??_main,f
  9069  09E2  29E1               	goto	u6357
  9070  09E3  0BC7               	decfsz	??_main+1,f
  9071  09E4  29E1               	goto	u6357
  9072  09E5  3200               	nop2
  9073                           
  9074                           ;newmain1.c: 1669: send_usart_packet_manage(145, 2);
  9075  09E6  3002               	movlw	2
  9076  09E7  00F3               	movwf	send_usart_packet_manage@Data_carry
  9077  09E8  3000               	movlw	0
  9078  09E9  00F4               	movwf	send_usart_packet_manage@Data_carry+1
  9079  09EA  3091               	movlw	145
  9080  09EB  3195  2549  3188   	fcall	_send_usart_packet_manage
  9081                           
  9082                           ;newmain1.c: 1670: Data_Temp_Work_int = receive_data_bytes(1000);
  9083  09EE  30E8               	movlw	232
  9084  09EF  0020               	movlb	0	; select bank0
  9085  09F0  00A7               	movwf	receive_data_bytes@time_out_first_byte
  9086  09F1  3003               	movlw	3
  9087  09F2  00A8               	movwf	receive_data_bytes@time_out_first_byte+1
  9088  09F3  3182  221D  3188   	fcall	_receive_data_bytes
  9089  09F6  0020               	movlb	0	; select bank0
  9090  09F7  0828               	movf	?_receive_data_bytes+1,w
  9091  09F8  00CC               	movwf	_Data_Temp_Work_int+1
  9092  09F9  0827               	movf	?_receive_data_bytes,w
  9093  09FA  00CB               	movwf	_Data_Temp_Work_int
  9094  09FB                     l6062:	
  9095                           ;newmain1.c: 1674: while(1)
  9096                           
  9097                           
  9098                           ;newmain1.c: 1675: {
  9099                           ;newmain1.c: 1676: _delay((unsigned long)((10)*(16000000/4000.0)));
  9100  09FB  3034               	movlw	52
  9101  09FC  00C7               	movwf	??_main+1
  9102  09FD  30F1               	movlw	241
  9103  09FE  00C6               	movwf	??_main
  9104  09FF                     u6367:	
  9105  09FF  0BC6               	decfsz	??_main,f
  9106  0A00  29FF               	goto	u6367
  9107  0A01  0BC7               	decfsz	??_main+1,f
  9108  0A02  29FF               	goto	u6367
  9109  0A03  3200               	nop2
  9110                           
  9111                           ;newmain1.c: 1677: send_usart_packet_manage(148, 148);
  9112  0A04  3094               	movlw	148
  9113  0A05  00F3               	movwf	send_usart_packet_manage@Data_carry
  9114  0A06  3000               	movlw	0
  9115  0A07  00F4               	movwf	send_usart_packet_manage@Data_carry+1
  9116  0A08  3094               	movlw	148
  9117  0A09  3195  2549  3188   	fcall	_send_usart_packet_manage
  9118                           
  9119                           ;newmain1.c: 1678: Data_Temp_Work_int = receive_data_bytes(1000);
  9120  0A0C  30E8               	movlw	232
  9121  0A0D  0020               	movlb	0	; select bank0
  9122  0A0E  00A7               	movwf	receive_data_bytes@time_out_first_byte
  9123  0A0F  3003               	movlw	3
  9124  0A10  00A8               	movwf	receive_data_bytes@time_out_first_byte+1
  9125  0A11  3182  221D  3188   	fcall	_receive_data_bytes
  9126  0A14  0020               	movlb	0	; select bank0
  9127  0A15  0828               	movf	?_receive_data_bytes+1,w
  9128  0A16  00CC               	movwf	_Data_Temp_Work_int+1
  9129  0A17  0827               	movf	?_receive_data_bytes,w
  9130  0A18  00CB               	movwf	_Data_Temp_Work_int
  9131                           
  9132                           ;newmain1.c: 1680: if(!!((Data_Temp_Work_int) & (1<<(3))) == 0)
  9133  0A19  19CB               	btfsc	_Data_Temp_Work_int,3
  9134  0A1A  29FB               	goto	l6062
  9135  0A1B                     l6072:	
  9136                           ;newmain1.c: 1683: }
  9137                           ;newmain1.c: 1684: }
  9138                           ;newmain1.c: 1687: while(1)
  9139                           
  9140                           ;newmain1.c: 1681: {
  9141                           ;newmain1.c: 1682: break;
  9142                           
  9143                           
  9144                           ;newmain1.c: 1688: {
  9145                           ;newmain1.c: 1689: _delay((unsigned long)((10)*(16000000/4000.0)));
  9146  0A1B  3034               	movlw	52
  9147  0A1C  00C7               	movwf	??_main+1
  9148  0A1D  30F1               	movlw	241
  9149  0A1E  00C6               	movwf	??_main
  9150  0A1F                     u6377:	
  9151  0A1F  0BC6               	decfsz	??_main,f
  9152  0A20  2A1F               	goto	u6377
  9153  0A21  0BC7               	decfsz	??_main+1,f
  9154  0A22  2A1F               	goto	u6377
  9155  0A23  3200               	nop2
  9156                           
  9157                           ;newmain1.c: 1690: send_usart_packet_manage(148, 148);
  9158  0A24  3094               	movlw	148
  9159  0A25  00F3               	movwf	send_usart_packet_manage@Data_carry
  9160  0A26  3000               	movlw	0
  9161  0A27  00F4               	movwf	send_usart_packet_manage@Data_carry+1
  9162  0A28  3094               	movlw	148
  9163  0A29  3195  2549  3188   	fcall	_send_usart_packet_manage
  9164                           
  9165                           ;newmain1.c: 1691: Data_Temp_Work_int = receive_data_bytes(1000);
  9166  0A2C  30E8               	movlw	232
  9167  0A2D  0020               	movlb	0	; select bank0
  9168  0A2E  00A7               	movwf	receive_data_bytes@time_out_first_byte
  9169  0A2F  3003               	movlw	3
  9170  0A30  00A8               	movwf	receive_data_bytes@time_out_first_byte+1
  9171  0A31  3182  221D  3188   	fcall	_receive_data_bytes
  9172  0A34  0020               	movlb	0	; select bank0
  9173  0A35  0828               	movf	?_receive_data_bytes+1,w
  9174  0A36  00CC               	movwf	_Data_Temp_Work_int+1
  9175  0A37  0827               	movf	?_receive_data_bytes,w
  9176  0A38  00CB               	movwf	_Data_Temp_Work_int
  9177                           
  9178                           ;newmain1.c: 1693: if(!!((Data_Temp_Work_int) & (1<<(3))) == 1)
  9179  0A39  1DCB               	btfss	_Data_Temp_Work_int,3
  9180  0A3A  2A1B               	goto	l6072
  9181                           
  9182                           ;newmain1.c: 1696: }
  9183                           ;newmain1.c: 1697: }
  9184                           ;newmain1.c: 1699: print_screen("All Leds Off?", "Press Down Butt");
  9185                           
  9186                           ;newmain1.c: 1694: {
  9187                           ;newmain1.c: 1695: break;
  9188  0A3B  3061               	movlw	low (STR_81| (0+32768))
  9189  0A3C  00F6               	movwf	print_screen@top
  9190  0A3D  3091               	movlw	high (STR_81| (0+32768))
  9191  0A3E  00F7               	movwf	print_screen@top+1
  9192  0A3F  30AE               	movlw	low (STR_80| (0+32768))
  9193  0A40  00F8               	movwf	print_screen@bottom
  9194  0A41  3090               	movlw	high (STR_80| (0+32768))
  9195  0A42  00F9               	movwf	print_screen@bottom+1
  9196  0A43  319F  27E9  3188   	fcall	_print_screen
  9197                           
  9198                           ;newmain1.c: 1701: _delay((unsigned long)((10)*(16000000/4000.0)));
  9199  0A46  3034               	movlw	52
  9200  0A47  0020               	movlb	0	; select bank0
  9201  0A48  00C7               	movwf	??_main+1
  9202  0A49  30F1               	movlw	241
  9203  0A4A  00C6               	movwf	??_main
  9204  0A4B                     u6387:	
  9205  0A4B  0BC6               	decfsz	??_main,f
  9206  0A4C  2A4B               	goto	u6387
  9207  0A4D  0BC7               	decfsz	??_main+1,f
  9208  0A4E  2A4B               	goto	u6387
  9209  0A4F  3200               	nop2
  9210                           
  9211                           ;newmain1.c: 1702: send_usart_packet_manage(135, 1);
  9212  0A50  3001               	movlw	1
  9213  0A51  00F3               	movwf	send_usart_packet_manage@Data_carry
  9214  0A52  3000               	movlw	0
  9215  0A53  00F4               	movwf	send_usart_packet_manage@Data_carry+1
  9216  0A54  3087               	movlw	135
  9217  0A55  3195  2549  3188   	fcall	_send_usart_packet_manage
  9218                           
  9219                           ;newmain1.c: 1703: Data_Temp_Work_int = receive_data_bytes(1000);
  9220  0A58  30E8               	movlw	232
  9221  0A59  0020               	movlb	0	; select bank0
  9222  0A5A  00A7               	movwf	receive_data_bytes@time_out_first_byte
  9223  0A5B  3003               	movlw	3
  9224  0A5C  00A8               	movwf	receive_data_bytes@time_out_first_byte+1
  9225  0A5D  3182  221D  3188   	fcall	_receive_data_bytes
  9226  0A60  0020               	movlb	0	; select bank0
  9227  0A61  0828               	movf	?_receive_data_bytes+1,w
  9228  0A62  00CC               	movwf	_Data_Temp_Work_int+1
  9229  0A63  0827               	movf	?_receive_data_bytes,w
  9230  0A64  00CB               	movwf	_Data_Temp_Work_int
  9231                           
  9232                           ;newmain1.c: 1705: _delay((unsigned long)((10)*(16000000/4000.0)));
  9233  0A65  3034               	movlw	52
  9234  0A66  00C7               	movwf	??_main+1
  9235  0A67  30F1               	movlw	241
  9236  0A68  00C6               	movwf	??_main
  9237  0A69                     u6397:	
  9238  0A69  0BC6               	decfsz	??_main,f
  9239  0A6A  2A69               	goto	u6397
  9240  0A6B  0BC7               	decfsz	??_main+1,f
  9241  0A6C  2A69               	goto	u6397
  9242  0A6D  3200               	nop2
  9243                           
  9244                           ;newmain1.c: 1706: send_usart_packet_manage(136, 1);
  9245  0A6E  3001               	movlw	1
  9246  0A6F  00F3               	movwf	send_usart_packet_manage@Data_carry
  9247  0A70  3000               	movlw	0
  9248  0A71  00F4               	movwf	send_usart_packet_manage@Data_carry+1
  9249  0A72  3088               	movlw	136
  9250  0A73  3195  2549  3188   	fcall	_send_usart_packet_manage
  9251                           
  9252                           ;newmain1.c: 1707: Data_Temp_Work_int = receive_data_bytes(1000);
  9253  0A76  30E8               	movlw	232
  9254  0A77  0020               	movlb	0	; select bank0
  9255  0A78  00A7               	movwf	receive_data_bytes@time_out_first_byte
  9256  0A79  3003               	movlw	3
  9257  0A7A  00A8               	movwf	receive_data_bytes@time_out_first_byte+1
  9258  0A7B  3182  221D  3188   	fcall	_receive_data_bytes
  9259  0A7E  0020               	movlb	0	; select bank0
  9260  0A7F  0828               	movf	?_receive_data_bytes+1,w
  9261  0A80  00CC               	movwf	_Data_Temp_Work_int+1
  9262  0A81  0827               	movf	?_receive_data_bytes,w
  9263  0A82  00CB               	movwf	_Data_Temp_Work_int
  9264                           
  9265                           ;newmain1.c: 1709: _delay((unsigned long)((10)*(16000000/4000.0)));
  9266  0A83  3034               	movlw	52
  9267  0A84  00C7               	movwf	??_main+1
  9268  0A85  30F1               	movlw	241
  9269  0A86  00C6               	movwf	??_main
  9270  0A87                     u6407:	
  9271  0A87  0BC6               	decfsz	??_main,f
  9272  0A88  2A87               	goto	u6407
  9273  0A89  0BC7               	decfsz	??_main+1,f
  9274  0A8A  2A87               	goto	u6407
  9275  0A8B  3200               	nop2
  9276                           
  9277                           ;newmain1.c: 1710: send_usart_packet_manage(137, 1);
  9278  0A8C  3001               	movlw	1
  9279  0A8D  00F3               	movwf	send_usart_packet_manage@Data_carry
  9280  0A8E  3000               	movlw	0
  9281  0A8F  00F4               	movwf	send_usart_packet_manage@Data_carry+1
  9282  0A90  3089               	movlw	137
  9283  0A91  3195  2549  3188   	fcall	_send_usart_packet_manage
  9284                           
  9285                           ;newmain1.c: 1711: Data_Temp_Work_int = receive_data_bytes(1000);
  9286  0A94  30E8               	movlw	232
  9287  0A95  0020               	movlb	0	; select bank0
  9288  0A96  00A7               	movwf	receive_data_bytes@time_out_first_byte
  9289  0A97  3003               	movlw	3
  9290  0A98  00A8               	movwf	receive_data_bytes@time_out_first_byte+1
  9291  0A99  3182  221D  3188   	fcall	_receive_data_bytes
  9292  0A9C  0020               	movlb	0	; select bank0
  9293  0A9D  0828               	movf	?_receive_data_bytes+1,w
  9294  0A9E  00CC               	movwf	_Data_Temp_Work_int+1
  9295  0A9F  0827               	movf	?_receive_data_bytes,w
  9296  0AA0  00CB               	movwf	_Data_Temp_Work_int
  9297                           
  9298                           ;newmain1.c: 1713: _delay((unsigned long)((10)*(16000000/4000.0)));
  9299  0AA1  3034               	movlw	52
  9300  0AA2  00C7               	movwf	??_main+1
  9301  0AA3  30F1               	movlw	241
  9302  0AA4  00C6               	movwf	??_main
  9303  0AA5                     u6417:	
  9304  0AA5  0BC6               	decfsz	??_main,f
  9305  0AA6  2AA5               	goto	u6417
  9306  0AA7  0BC7               	decfsz	??_main+1,f
  9307  0AA8  2AA5               	goto	u6417
  9308  0AA9  3200               	nop2
  9309                           
  9310                           ;newmain1.c: 1714: send_usart_packet_manage(138, 1);
  9311  0AAA  3001               	movlw	1
  9312  0AAB  00F3               	movwf	send_usart_packet_manage@Data_carry
  9313  0AAC  3000               	movlw	0
  9314  0AAD  00F4               	movwf	send_usart_packet_manage@Data_carry+1
  9315  0AAE  308A               	movlw	138
  9316  0AAF  3195  2549  3188   	fcall	_send_usart_packet_manage
  9317                           
  9318                           ;newmain1.c: 1715: Data_Temp_Work_int = receive_data_bytes(1000);
  9319  0AB2  30E8               	movlw	232
  9320  0AB3  0020               	movlb	0	; select bank0
  9321  0AB4  00A7               	movwf	receive_data_bytes@time_out_first_byte
  9322  0AB5  3003               	movlw	3
  9323  0AB6  00A8               	movwf	receive_data_bytes@time_out_first_byte+1
  9324  0AB7  3182  221D  3188   	fcall	_receive_data_bytes
  9325  0ABA  0020               	movlb	0	; select bank0
  9326  0ABB  0828               	movf	?_receive_data_bytes+1,w
  9327  0ABC  00CC               	movwf	_Data_Temp_Work_int+1
  9328  0ABD  0827               	movf	?_receive_data_bytes,w
  9329  0ABE  00CB               	movwf	_Data_Temp_Work_int
  9330                           
  9331                           ;newmain1.c: 1717: _delay((unsigned long)((10)*(16000000/4000.0)));
  9332  0ABF  3034               	movlw	52
  9333  0AC0  00C7               	movwf	??_main+1
  9334  0AC1  30F1               	movlw	241
  9335  0AC2  00C6               	movwf	??_main
  9336  0AC3                     u6427:	
  9337  0AC3  0BC6               	decfsz	??_main,f
  9338  0AC4  2AC3               	goto	u6427
  9339  0AC5  0BC7               	decfsz	??_main+1,f
  9340  0AC6  2AC3               	goto	u6427
  9341  0AC7  3200               	nop2
  9342                           
  9343                           ;newmain1.c: 1718: send_usart_packet_manage(143, 1);
  9344  0AC8  3001               	movlw	1
  9345  0AC9  00F3               	movwf	send_usart_packet_manage@Data_carry
  9346  0ACA  3000               	movlw	0
  9347  0ACB  00F4               	movwf	send_usart_packet_manage@Data_carry+1
  9348  0ACC  308F               	movlw	143
  9349  0ACD  3195  2549  3188   	fcall	_send_usart_packet_manage
  9350                           
  9351                           ;newmain1.c: 1719: Data_Temp_Work_int = receive_data_bytes(1000);
  9352  0AD0  30E8               	movlw	232
  9353  0AD1  0020               	movlb	0	; select bank0
  9354  0AD2  00A7               	movwf	receive_data_bytes@time_out_first_byte
  9355  0AD3  3003               	movlw	3
  9356  0AD4  00A8               	movwf	receive_data_bytes@time_out_first_byte+1
  9357  0AD5  3182  221D  3188   	fcall	_receive_data_bytes
  9358  0AD8  0020               	movlb	0	; select bank0
  9359  0AD9  0828               	movf	?_receive_data_bytes+1,w
  9360  0ADA  00CC               	movwf	_Data_Temp_Work_int+1
  9361  0ADB  0827               	movf	?_receive_data_bytes,w
  9362  0ADC  00CB               	movwf	_Data_Temp_Work_int
  9363                           
  9364                           ;newmain1.c: 1721: _delay((unsigned long)((10)*(16000000/4000.0)));
  9365  0ADD  3034               	movlw	52
  9366  0ADE  00C7               	movwf	??_main+1
  9367  0ADF  30F1               	movlw	241
  9368  0AE0  00C6               	movwf	??_main
  9369  0AE1                     u6437:	
  9370  0AE1  0BC6               	decfsz	??_main,f
  9371  0AE2  2AE1               	goto	u6437
  9372  0AE3  0BC7               	decfsz	??_main+1,f
  9373  0AE4  2AE1               	goto	u6437
  9374  0AE5  3200               	nop2
  9375                           
  9376                           ;newmain1.c: 1722: send_usart_packet_manage(144, 1);
  9377  0AE6  3001               	movlw	1
  9378  0AE7  00F3               	movwf	send_usart_packet_manage@Data_carry
  9379  0AE8  3000               	movlw	0
  9380  0AE9  00F4               	movwf	send_usart_packet_manage@Data_carry+1
  9381  0AEA  3090               	movlw	144
  9382  0AEB  3195  2549  3188   	fcall	_send_usart_packet_manage
  9383                           
  9384                           ;newmain1.c: 1723: Data_Temp_Work_int = receive_data_bytes(1000);
  9385  0AEE  30E8               	movlw	232
  9386  0AEF  0020               	movlb	0	; select bank0
  9387  0AF0  00A7               	movwf	receive_data_bytes@time_out_first_byte
  9388  0AF1  3003               	movlw	3
  9389  0AF2  00A8               	movwf	receive_data_bytes@time_out_first_byte+1
  9390  0AF3  3182  221D  3188   	fcall	_receive_data_bytes
  9391  0AF6  0020               	movlb	0	; select bank0
  9392  0AF7  0828               	movf	?_receive_data_bytes+1,w
  9393  0AF8  00CC               	movwf	_Data_Temp_Work_int+1
  9394  0AF9  0827               	movf	?_receive_data_bytes,w
  9395  0AFA  00CB               	movwf	_Data_Temp_Work_int
  9396                           
  9397                           ;newmain1.c: 1725: _delay((unsigned long)((10)*(16000000/4000.0)));
  9398  0AFB  3034               	movlw	52
  9399  0AFC  00C7               	movwf	??_main+1
  9400  0AFD  30F1               	movlw	241
  9401  0AFE  00C6               	movwf	??_main
  9402  0AFF                     u6447:	
  9403  0AFF  0BC6               	decfsz	??_main,f
  9404  0B00  2AFF               	goto	u6447
  9405  0B01  0BC7               	decfsz	??_main+1,f
  9406  0B02  2AFF               	goto	u6447
  9407  0B03  3200               	nop2
  9408                           
  9409                           ;newmain1.c: 1726: send_usart_packet_manage(145, 1);
  9410  0B04  3001               	movlw	1
  9411  0B05  00F3               	movwf	send_usart_packet_manage@Data_carry
  9412  0B06  3000               	movlw	0
  9413  0B07  00F4               	movwf	send_usart_packet_manage@Data_carry+1
  9414  0B08  3091               	movlw	145
  9415  0B09  3195  2549  3188   	fcall	_send_usart_packet_manage
  9416                           
  9417                           ;newmain1.c: 1727: Data_Temp_Work_int = receive_data_bytes(1000);
  9418  0B0C  30E8               	movlw	232
  9419  0B0D  0020               	movlb	0	; select bank0
  9420  0B0E  00A7               	movwf	receive_data_bytes@time_out_first_byte
  9421  0B0F  3003               	movlw	3
  9422  0B10  00A8               	movwf	receive_data_bytes@time_out_first_byte+1
  9423  0B11  3182  221D  3188   	fcall	_receive_data_bytes
  9424  0B14  0020               	movlb	0	; select bank0
  9425  0B15  0828               	movf	?_receive_data_bytes+1,w
  9426  0B16  00CC               	movwf	_Data_Temp_Work_int+1
  9427  0B17  0827               	movf	?_receive_data_bytes,w
  9428  0B18  00CB               	movwf	_Data_Temp_Work_int
  9429  0B19                     l6118:	
  9430                           ;newmain1.c: 1730: while(1)
  9431                           
  9432                           
  9433                           ;newmain1.c: 1731: {
  9434                           ;newmain1.c: 1732: _delay((unsigned long)((10)*(16000000/4000.0)));
  9435  0B19  3034               	movlw	52
  9436  0B1A  00C7               	movwf	??_main+1
  9437  0B1B  30F1               	movlw	241
  9438  0B1C  00C6               	movwf	??_main
  9439  0B1D                     u6457:	
  9440  0B1D  0BC6               	decfsz	??_main,f
  9441  0B1E  2B1D               	goto	u6457
  9442  0B1F  0BC7               	decfsz	??_main+1,f
  9443  0B20  2B1D               	goto	u6457
  9444  0B21  3200               	nop2
  9445                           
  9446                           ;newmain1.c: 1733: send_usart_packet_manage(148, 148);
  9447  0B22  3094               	movlw	148
  9448  0B23  00F3               	movwf	send_usart_packet_manage@Data_carry
  9449  0B24  3000               	movlw	0
  9450  0B25  00F4               	movwf	send_usart_packet_manage@Data_carry+1
  9451  0B26  3094               	movlw	148
  9452  0B27  3195  2549  3188   	fcall	_send_usart_packet_manage
  9453                           
  9454                           ;newmain1.c: 1734: Data_Temp_Work_int = receive_data_bytes(1000);
  9455  0B2A  30E8               	movlw	232
  9456  0B2B  0020               	movlb	0	; select bank0
  9457  0B2C  00A7               	movwf	receive_data_bytes@time_out_first_byte
  9458  0B2D  3003               	movlw	3
  9459  0B2E  00A8               	movwf	receive_data_bytes@time_out_first_byte+1
  9460  0B2F  3182  221D  3188   	fcall	_receive_data_bytes
  9461  0B32  0020               	movlb	0	; select bank0
  9462  0B33  0828               	movf	?_receive_data_bytes+1,w
  9463  0B34  00CC               	movwf	_Data_Temp_Work_int+1
  9464  0B35  0827               	movf	?_receive_data_bytes,w
  9465  0B36  00CB               	movwf	_Data_Temp_Work_int
  9466                           
  9467                           ;newmain1.c: 1736: if(!!((Data_Temp_Work_int) & (1<<(3))) == 0)
  9468  0B37  19CB               	btfsc	_Data_Temp_Work_int,3
  9469  0B38  2B19               	goto	l6118
  9470  0B39                     l6128:	
  9471                           ;newmain1.c: 1739: }
  9472                           ;newmain1.c: 1740: }
  9473                           ;newmain1.c: 1743: while(1)
  9474                           
  9475                           ;newmain1.c: 1737: {
  9476                           ;newmain1.c: 1738: break;
  9477                           
  9478                           
  9479                           ;newmain1.c: 1744: {
  9480                           ;newmain1.c: 1745: _delay((unsigned long)((10)*(16000000/4000.0)));
  9481  0B39  3034               	movlw	52
  9482  0B3A  00C7               	movwf	??_main+1
  9483  0B3B  30F1               	movlw	241
  9484  0B3C  00C6               	movwf	??_main
  9485  0B3D                     u6467:	
  9486  0B3D  0BC6               	decfsz	??_main,f
  9487  0B3E  2B3D               	goto	u6467
  9488  0B3F  0BC7               	decfsz	??_main+1,f
  9489  0B40  2B3D               	goto	u6467
  9490  0B41  3200               	nop2
  9491                           
  9492                           ;newmain1.c: 1746: send_usart_packet_manage(148, 148);
  9493  0B42  3094               	movlw	148
  9494  0B43  00F3               	movwf	send_usart_packet_manage@Data_carry
  9495  0B44  3000               	movlw	0
  9496  0B45  00F4               	movwf	send_usart_packet_manage@Data_carry+1
  9497  0B46  3094               	movlw	148
  9498  0B47  3195  2549  3188   	fcall	_send_usart_packet_manage
  9499                           
  9500                           ;newmain1.c: 1747: Data_Temp_Work_int = receive_data_bytes(1000);
  9501  0B4A  30E8               	movlw	232
  9502  0B4B  0020               	movlb	0	; select bank0
  9503  0B4C  00A7               	movwf	receive_data_bytes@time_out_first_byte
  9504  0B4D  3003               	movlw	3
  9505  0B4E  00A8               	movwf	receive_data_bytes@time_out_first_byte+1
  9506  0B4F  3182  221D  3188   	fcall	_receive_data_bytes
  9507  0B52  0020               	movlb	0	; select bank0
  9508  0B53  0828               	movf	?_receive_data_bytes+1,w
  9509  0B54  00CC               	movwf	_Data_Temp_Work_int+1
  9510  0B55  0827               	movf	?_receive_data_bytes,w
  9511  0B56  00CB               	movwf	_Data_Temp_Work_int
  9512                           
  9513                           ;newmain1.c: 1749: if(!!((Data_Temp_Work_int) & (1<<(3))) == 1)
  9514  0B57  1DCB               	btfss	_Data_Temp_Work_int,3
  9515  0B58  2B39               	goto	l6128
  9516                           
  9517                           ;newmain1.c: 1752: }
  9518                           ;newmain1.c: 1753: }
  9519                           ;newmain1.c: 1756: print_screen("Buzz On?", "Press Down Butt");
  9520                           
  9521                           ;newmain1.c: 1750: {
  9522                           ;newmain1.c: 1751: break;
  9523  0B59  3022               	movlw	low (STR_83| (0+32768))
  9524  0B5A  00F6               	movwf	print_screen@top
  9525  0B5B  3093               	movlw	high (STR_83| (0+32768))
  9526  0B5C  00F7               	movwf	print_screen@top+1
  9527  0B5D  30AE               	movlw	low (STR_80| (0+32768))
  9528  0B5E  00F8               	movwf	print_screen@bottom
  9529  0B5F  3090               	movlw	high (STR_80| (0+32768))
  9530  0B60  00F9               	movwf	print_screen@bottom+1
  9531  0B61  319F  27E9  3188   	fcall	_print_screen
  9532                           
  9533                           ;newmain1.c: 1758: _delay((unsigned long)((10)*(16000000/4000.0)));
  9534  0B64  3034               	movlw	52
  9535  0B65  0020               	movlb	0	; select bank0
  9536  0B66  00C7               	movwf	??_main+1
  9537  0B67  30F1               	movlw	241
  9538  0B68  00C6               	movwf	??_main
  9539  0B69                     u6477:	
  9540  0B69  0BC6               	decfsz	??_main,f
  9541  0B6A  2B69               	goto	u6477
  9542  0B6B  0BC7               	decfsz	??_main+1,f
  9543  0B6C  2B69               	goto	u6477
  9544  0B6D  3200               	nop2
  9545                           
  9546                           ;newmain1.c: 1759: send_usart_packet_manage(140, 2);
  9547  0B6E  3002               	movlw	2
  9548  0B6F  00F3               	movwf	send_usart_packet_manage@Data_carry
  9549  0B70  3000               	movlw	0
  9550  0B71  00F4               	movwf	send_usart_packet_manage@Data_carry+1
  9551  0B72  308C               	movlw	140
  9552  0B73  3195  2549  3188   	fcall	_send_usart_packet_manage
  9553                           
  9554                           ;newmain1.c: 1760: Data_Temp_Work_int = receive_data_bytes(1000);
  9555  0B76  30E8               	movlw	232
  9556  0B77  0020               	movlb	0	; select bank0
  9557  0B78  00A7               	movwf	receive_data_bytes@time_out_first_byte
  9558  0B79  3003               	movlw	3
  9559  0B7A  00A8               	movwf	receive_data_bytes@time_out_first_byte+1
  9560  0B7B  3182  221D  3188   	fcall	_receive_data_bytes
  9561  0B7E  0020               	movlb	0	; select bank0
  9562  0B7F  0828               	movf	?_receive_data_bytes+1,w
  9563  0B80  00CC               	movwf	_Data_Temp_Work_int+1
  9564  0B81  0827               	movf	?_receive_data_bytes,w
  9565  0B82  00CB               	movwf	_Data_Temp_Work_int
  9566  0B83                     l6146:	
  9567                           ;newmain1.c: 1763: while(1)
  9568                           
  9569                           
  9570                           ;newmain1.c: 1764: {
  9571                           ;newmain1.c: 1765: _delay((unsigned long)((10)*(16000000/4000.0)));
  9572  0B83  3034               	movlw	52
  9573  0B84  00C7               	movwf	??_main+1
  9574  0B85  30F1               	movlw	241
  9575  0B86  00C6               	movwf	??_main
  9576  0B87                     u6487:	
  9577  0B87  0BC6               	decfsz	??_main,f
  9578  0B88  2B87               	goto	u6487
  9579  0B89  0BC7               	decfsz	??_main+1,f
  9580  0B8A  2B87               	goto	u6487
  9581  0B8B  3200               	nop2
  9582                           
  9583                           ;newmain1.c: 1766: send_usart_packet_manage(148, 148);
  9584  0B8C  3094               	movlw	148
  9585  0B8D  00F3               	movwf	send_usart_packet_manage@Data_carry
  9586  0B8E  3000               	movlw	0
  9587  0B8F  00F4               	movwf	send_usart_packet_manage@Data_carry+1
  9588  0B90  3094               	movlw	148
  9589  0B91  3195  2549  3188   	fcall	_send_usart_packet_manage
  9590                           
  9591                           ;newmain1.c: 1767: Data_Temp_Work_int = receive_data_bytes(1000);
  9592  0B94  30E8               	movlw	232
  9593  0B95  0020               	movlb	0	; select bank0
  9594  0B96  00A7               	movwf	receive_data_bytes@time_out_first_byte
  9595  0B97  3003               	movlw	3
  9596  0B98  00A8               	movwf	receive_data_bytes@time_out_first_byte+1
  9597  0B99  3182  221D  3188   	fcall	_receive_data_bytes
  9598  0B9C  0020               	movlb	0	; select bank0
  9599  0B9D  0828               	movf	?_receive_data_bytes+1,w
  9600  0B9E  00CC               	movwf	_Data_Temp_Work_int+1
  9601  0B9F  0827               	movf	?_receive_data_bytes,w
  9602  0BA0  00CB               	movwf	_Data_Temp_Work_int
  9603                           
  9604                           ;newmain1.c: 1769: if(!!((Data_Temp_Work_int) & (1<<(3))) == 0)
  9605  0BA1  19CB               	btfsc	_Data_Temp_Work_int,3
  9606  0BA2  2B83               	goto	l6146
  9607  0BA3                     l6154:	
  9608                           ;newmain1.c: 1772: }
  9609                           ;newmain1.c: 1773: }
  9610                           ;newmain1.c: 1776: while(1)
  9611                           
  9612                           ;newmain1.c: 1770: {
  9613                           ;newmain1.c: 1771: break;
  9614                           
  9615                           
  9616                           ;newmain1.c: 1777: {
  9617                           ;newmain1.c: 1778: _delay((unsigned long)((10)*(16000000/4000.0)));
  9618  0BA3  3034               	movlw	52
  9619  0BA4  00C7               	movwf	??_main+1
  9620  0BA5  30F1               	movlw	241
  9621  0BA6  00C6               	movwf	??_main
  9622  0BA7                     u6497:	
  9623  0BA7  0BC6               	decfsz	??_main,f
  9624  0BA8  2BA7               	goto	u6497
  9625  0BA9  0BC7               	decfsz	??_main+1,f
  9626  0BAA  2BA7               	goto	u6497
  9627  0BAB  3200               	nop2
  9628                           
  9629                           ;newmain1.c: 1779: send_usart_packet_manage(148, 148);
  9630  0BAC  3094               	movlw	148
  9631  0BAD  00F3               	movwf	send_usart_packet_manage@Data_carry
  9632  0BAE  3000               	movlw	0
  9633  0BAF  00F4               	movwf	send_usart_packet_manage@Data_carry+1
  9634  0BB0  3094               	movlw	148
  9635  0BB1  3195  2549  3188   	fcall	_send_usart_packet_manage
  9636                           
  9637                           ;newmain1.c: 1780: Data_Temp_Work_int = receive_data_bytes(1000);
  9638  0BB4  30E8               	movlw	232
  9639  0BB5  0020               	movlb	0	; select bank0
  9640  0BB6  00A7               	movwf	receive_data_bytes@time_out_first_byte
  9641  0BB7  3003               	movlw	3
  9642  0BB8  00A8               	movwf	receive_data_bytes@time_out_first_byte+1
  9643  0BB9  3182  221D  3188   	fcall	_receive_data_bytes
  9644  0BBC  0020               	movlb	0	; select bank0
  9645  0BBD  0828               	movf	?_receive_data_bytes+1,w
  9646  0BBE  00CC               	movwf	_Data_Temp_Work_int+1
  9647  0BBF  0827               	movf	?_receive_data_bytes,w
  9648  0BC0  00CB               	movwf	_Data_Temp_Work_int
  9649                           
  9650                           ;newmain1.c: 1782: if(!!((Data_Temp_Work_int) & (1<<(3))) == 1)
  9651  0BC1  1DCB               	btfss	_Data_Temp_Work_int,3
  9652  0BC2  2BA3               	goto	l6154
  9653                           
  9654                           ;newmain1.c: 1785: }
  9655                           ;newmain1.c: 1786: }
  9656                           ;newmain1.c: 1788: _delay((unsigned long)((10)*(16000000/4000.0)));
  9657                           
  9658                           ;newmain1.c: 1783: {
  9659                           ;newmain1.c: 1784: break;
  9660  0BC3  3034               	movlw	52
  9661  0BC4  00C7               	movwf	??_main+1
  9662  0BC5  30F1               	movlw	241
  9663  0BC6  00C6               	movwf	??_main
  9664  0BC7                     u6507:	
  9665  0BC7  0BC6               	decfsz	??_main,f
  9666  0BC8  2BC7               	goto	u6507
  9667  0BC9  0BC7               	decfsz	??_main+1,f
  9668  0BCA  2BC7               	goto	u6507
  9669  0BCB  3200               	nop2
  9670                           
  9671                           ;newmain1.c: 1789: send_usart_packet_manage(140, 1);
  9672  0BCC  3001               	movlw	1
  9673  0BCD  00F3               	movwf	send_usart_packet_manage@Data_carry
  9674  0BCE  3000               	movlw	0
  9675  0BCF  00F4               	movwf	send_usart_packet_manage@Data_carry+1
  9676  0BD0  308C               	movlw	140
  9677  0BD1  3195  2549  3188   	fcall	_send_usart_packet_manage
  9678                           
  9679                           ;newmain1.c: 1790: Data_Temp_Work_int = receive_data_bytes(1000);
  9680  0BD4  30E8               	movlw	232
  9681  0BD5  0020               	movlb	0	; select bank0
  9682  0BD6  00A7               	movwf	receive_data_bytes@time_out_first_byte
  9683  0BD7  3003               	movlw	3
  9684  0BD8  00A8               	movwf	receive_data_bytes@time_out_first_byte+1
  9685  0BD9  3182  221D  3188   	fcall	_receive_data_bytes
  9686  0BDC  0020               	movlb	0	; select bank0
  9687  0BDD  0828               	movf	?_receive_data_bytes+1,w
  9688  0BDE  00CC               	movwf	_Data_Temp_Work_int+1
  9689  0BDF  0827               	movf	?_receive_data_bytes,w
  9690  0BE0  00CB               	movwf	_Data_Temp_Work_int
  9691                           
  9692                           ;newmain1.c: 1792: print_screen("Buzz Off?", "Press Down Butt");
  9693  0BE1  30E6               	movlw	low (STR_85| (0+32768))
  9694  0BE2  00F6               	movwf	print_screen@top
  9695  0BE3  3092               	movlw	high (STR_85| (0+32768))
  9696  0BE4  00F7               	movwf	print_screen@top+1
  9697  0BE5  30AE               	movlw	low (STR_80| (0+32768))
  9698  0BE6  00F8               	movwf	print_screen@bottom
  9699  0BE7  3090               	movlw	high (STR_80| (0+32768))
  9700  0BE8  00F9               	movwf	print_screen@bottom+1
  9701  0BE9  319F  27E9  3188   	fcall	_print_screen
  9702  0BEC                     l6172:	
  9703                           ;newmain1.c: 1795: while(1)
  9704                           
  9705                           
  9706                           ;newmain1.c: 1796: {
  9707                           ;newmain1.c: 1797: _delay((unsigned long)((10)*(16000000/4000.0)));
  9708  0BEC  3034               	movlw	52
  9709  0BED  0020               	movlb	0	; select bank0
  9710  0BEE  00C7               	movwf	??_main+1
  9711  0BEF  30F1               	movlw	241
  9712  0BF0  00C6               	movwf	??_main
  9713  0BF1                     u6517:	
  9714  0BF1  0BC6               	decfsz	??_main,f
  9715  0BF2  2BF1               	goto	u6517
  9716  0BF3  0BC7               	decfsz	??_main+1,f
  9717  0BF4  2BF1               	goto	u6517
  9718  0BF5  3200               	nop2
  9719                           
  9720                           ;newmain1.c: 1798: send_usart_packet_manage(148, 148);
  9721  0BF6  3094               	movlw	148
  9722  0BF7  00F3               	movwf	send_usart_packet_manage@Data_carry
  9723  0BF8  3000               	movlw	0
  9724  0BF9  00F4               	movwf	send_usart_packet_manage@Data_carry+1
  9725  0BFA  3094               	movlw	148
  9726  0BFB  3195  2549  3188   	fcall	_send_usart_packet_manage
  9727                           
  9728                           ;newmain1.c: 1799: Data_Temp_Work_int = receive_data_bytes(1000);
  9729  0BFE  30E8               	movlw	232
  9730  0BFF  0020               	movlb	0	; select bank0
  9731  0C00  00A7               	movwf	receive_data_bytes@time_out_first_byte
  9732  0C01  3003               	movlw	3
  9733  0C02  00A8               	movwf	receive_data_bytes@time_out_first_byte+1
  9734  0C03  3182  221D  3188   	fcall	_receive_data_bytes
  9735  0C06  0020               	movlb	0	; select bank0
  9736  0C07  0828               	movf	?_receive_data_bytes+1,w
  9737  0C08  00CC               	movwf	_Data_Temp_Work_int+1
  9738  0C09  0827               	movf	?_receive_data_bytes,w
  9739  0C0A  00CB               	movwf	_Data_Temp_Work_int
  9740                           
  9741                           ;newmain1.c: 1801: if(!!((Data_Temp_Work_int) & (1<<(3))) == 0)
  9742  0C0B  19CB               	btfsc	_Data_Temp_Work_int,3
  9743  0C0C  2BEC               	goto	l6172
  9744  0C0D                     l6180:	
  9745                           ;newmain1.c: 1804: }
  9746                           ;newmain1.c: 1805: }
  9747                           ;newmain1.c: 1808: while(1)
  9748                           
  9749                           ;newmain1.c: 1802: {
  9750                           ;newmain1.c: 1803: break;
  9751                           
  9752                           
  9753                           ;newmain1.c: 1809: {
  9754                           ;newmain1.c: 1810: _delay((unsigned long)((10)*(16000000/4000.0)));
  9755  0C0D  3034               	movlw	52
  9756  0C0E  00C7               	movwf	??_main+1
  9757  0C0F  30F1               	movlw	241
  9758  0C10  00C6               	movwf	??_main
  9759  0C11                     u6527:	
  9760  0C11  0BC6               	decfsz	??_main,f
  9761  0C12  2C11               	goto	u6527
  9762  0C13  0BC7               	decfsz	??_main+1,f
  9763  0C14  2C11               	goto	u6527
  9764  0C15  3200               	nop2
  9765                           
  9766                           ;newmain1.c: 1811: send_usart_packet_manage(148, 148);
  9767  0C16  3094               	movlw	148
  9768  0C17  00F3               	movwf	send_usart_packet_manage@Data_carry
  9769  0C18  3000               	movlw	0
  9770  0C19  00F4               	movwf	send_usart_packet_manage@Data_carry+1
  9771  0C1A  3094               	movlw	148
  9772  0C1B  3195  2549  3188   	fcall	_send_usart_packet_manage
  9773                           
  9774                           ;newmain1.c: 1812: Data_Temp_Work_int = receive_data_bytes(1000);
  9775  0C1E  30E8               	movlw	232
  9776  0C1F  0020               	movlb	0	; select bank0
  9777  0C20  00A7               	movwf	receive_data_bytes@time_out_first_byte
  9778  0C21  3003               	movlw	3
  9779  0C22  00A8               	movwf	receive_data_bytes@time_out_first_byte+1
  9780  0C23  3182  221D  3188   	fcall	_receive_data_bytes
  9781  0C26  0020               	movlb	0	; select bank0
  9782  0C27  0828               	movf	?_receive_data_bytes+1,w
  9783  0C28  00CC               	movwf	_Data_Temp_Work_int+1
  9784  0C29  0827               	movf	?_receive_data_bytes,w
  9785  0C2A  00CB               	movwf	_Data_Temp_Work_int
  9786                           
  9787                           ;newmain1.c: 1814: if(!!((Data_Temp_Work_int) & (1<<(3))) == 1)
  9788  0C2B  1DCB               	btfss	_Data_Temp_Work_int,3
  9789  0C2C  2C0D               	goto	l6180
  9790                           
  9791                           ;newmain1.c: 1817: }
  9792                           ;newmain1.c: 1818: }
  9793                           ;newmain1.c: 1821: print_screen("Testing", "Battery Disc");
  9794                           
  9795                           ;newmain1.c: 1815: {
  9796                           ;newmain1.c: 1816: break;
  9797  0C2D  3072               	movlw	low (STR_53| (0+32768))
  9798  0C2E  00F6               	movwf	print_screen@top
  9799  0C2F  3093               	movlw	high (STR_53| (0+32768))
  9800  0C30  00F7               	movwf	print_screen@top+1
  9801  0C31  3022               	movlw	low (STR_88| (0+32768))
  9802  0C32  00F8               	movwf	print_screen@bottom
  9803  0C33  3092               	movlw	high (STR_88| (0+32768))
  9804  0C34  00F9               	movwf	print_screen@bottom+1
  9805  0C35  319F  27E9  3188   	fcall	_print_screen
  9806                           
  9807                           ;newmain1.c: 1822: _delay((unsigned long)((10)*(16000000/4000.0)));
  9808  0C38  3034               	movlw	52
  9809  0C39  0020               	movlb	0	; select bank0
  9810  0C3A  00C7               	movwf	??_main+1
  9811  0C3B  30F1               	movlw	241
  9812  0C3C  00C6               	movwf	??_main
  9813  0C3D                     u6537:	
  9814  0C3D  0BC6               	decfsz	??_main,f
  9815  0C3E  2C3D               	goto	u6537
  9816  0C3F  0BC7               	decfsz	??_main+1,f
  9817  0C40  2C3D               	goto	u6537
  9818  0C41  3200               	nop2
  9819                           
  9820                           ;newmain1.c: 1823: send_usart_packet_manage(141, 2);
  9821  0C42  3002               	movlw	2
  9822  0C43  00F3               	movwf	send_usart_packet_manage@Data_carry
  9823  0C44  3000               	movlw	0
  9824  0C45  00F4               	movwf	send_usart_packet_manage@Data_carry+1
  9825  0C46  308D               	movlw	141
  9826  0C47  3195  2549  3188   	fcall	_send_usart_packet_manage
  9827                           
  9828                           ;newmain1.c: 1824: Data_Temp_Work_int = receive_data_bytes(1000);
  9829  0C4A  30E8               	movlw	232
  9830  0C4B  0020               	movlb	0	; select bank0
  9831  0C4C  00A7               	movwf	receive_data_bytes@time_out_first_byte
  9832  0C4D  3003               	movlw	3
  9833  0C4E  00A8               	movwf	receive_data_bytes@time_out_first_byte+1
  9834  0C4F  3182  221D  3188   	fcall	_receive_data_bytes
  9835  0C52  0020               	movlb	0	; select bank0
  9836  0C53  0828               	movf	?_receive_data_bytes+1,w
  9837  0C54  00CC               	movwf	_Data_Temp_Work_int+1
  9838  0C55  0827               	movf	?_receive_data_bytes,w
  9839  0C56  00CB               	movwf	_Data_Temp_Work_int
  9840                           
  9841                           ;newmain1.c: 1826: _delay((unsigned long)((2000)*(16000000/4000.0)));
  9842  0C57  3029               	movlw	41
  9843  0C58  00C8               	movwf	??_main+2
  9844  0C59  3096               	movlw	150
  9845  0C5A  00C7               	movwf	??_main+1
  9846  0C5B  30A6               	movlw	166
  9847  0C5C  00C6               	movwf	??_main
  9848  0C5D                     u6547:	
  9849  0C5D  0BC6               	decfsz	??_main,f
  9850  0C5E  2C5D               	goto	u6547
  9851  0C5F  0BC7               	decfsz	??_main+1,f
  9852  0C60  2C5D               	goto	u6547
  9853  0C61  0BC8               	decfsz	??_main+2,f
  9854  0C62  2C5D               	goto	u6547
  9855                           
  9856                           ;newmain1.c: 1830: send_usart_packet_manage(129, 129);
  9857  0C63  3081               	movlw	129
  9858  0C64  00F3               	movwf	send_usart_packet_manage@Data_carry
  9859  0C65  3000               	movlw	0
  9860  0C66  00F4               	movwf	send_usart_packet_manage@Data_carry+1
  9861  0C67  3081               	movlw	129
  9862  0C68  3195  2549  3188   	fcall	_send_usart_packet_manage
  9863                           
  9864                           ;newmain1.c: 1831: Data_Temp_Work_int = receive_data_bytes(1000);
  9865  0C6B  30E8               	movlw	232
  9866  0C6C  0020               	movlb	0	; select bank0
  9867  0C6D  00A7               	movwf	receive_data_bytes@time_out_first_byte
  9868  0C6E  3003               	movlw	3
  9869  0C6F  00A8               	movwf	receive_data_bytes@time_out_first_byte+1
  9870  0C70  3182  221D  3188   	fcall	_receive_data_bytes
  9871  0C73  0020               	movlb	0	; select bank0
  9872  0C74  0828               	movf	?_receive_data_bytes+1,w
  9873  0C75  00CC               	movwf	_Data_Temp_Work_int+1
  9874  0C76  0827               	movf	?_receive_data_bytes,w
  9875  0C77  00CB               	movwf	_Data_Temp_Work_int
  9876                           
  9877                           ;newmain1.c: 1833: _delay((unsigned long)((2000)*(16000000/4000.0)));
  9878  0C78  3029               	movlw	41
  9879  0C79  00C8               	movwf	??_main+2
  9880  0C7A  3096               	movlw	150
  9881  0C7B  00C7               	movwf	??_main+1
  9882  0C7C  30A6               	movlw	166
  9883  0C7D  00C6               	movwf	??_main
  9884  0C7E                     u6557:	
  9885  0C7E  0BC6               	decfsz	??_main,f
  9886  0C7F  2C7E               	goto	u6557
  9887  0C80  0BC7               	decfsz	??_main+1,f
  9888  0C81  2C7E               	goto	u6557
  9889  0C82  0BC8               	decfsz	??_main+2,f
  9890  0C83  2C7E               	goto	u6557
  9891                           
  9892                           ;newmain1.c: 1835: if(Data_Temp_Work_int > 350)
  9893  0C84  3001               	movlw	1
  9894  0C85  0020               	movlb	0	; select bank0
  9895  0C86  024C               	subwf	_Data_Temp_Work_int+1,w
  9896  0C87  305F               	movlw	95
  9897  0C88  1903               	skipnz
  9898  0C89  024B               	subwf	_Data_Temp_Work_int,w
  9899  0C8A  1C03               	skipc
  9900  0C8B  2C97               	goto	l6208
  9901                           
  9902                           ;newmain1.c: 1836: {
  9903                           ;newmain1.c: 1837: print_error("Error", "Charge Disable");
  9904  0C8C  3089               	movlw	low (STR_15| (0+32768))
  9905  0C8D  00A0               	movwf	print_error@top
  9906  0C8E  3093               	movlw	high (STR_15| (0+32768))
  9907  0C8F  00A1               	movwf	print_error@top+1
  9908  0C90  30DD               	movlw	low (STR_90| (0+32768))
  9909  0C91  00A2               	movwf	print_error@bottom
  9910  0C92  3090               	movlw	high (STR_90| (0+32768))
  9911  0C93  00A3               	movwf	print_error@bottom+1
  9912  0C94  3195  25D1  3188   	fcall	_print_error
  9913  0C97                     l6208:	
  9914                           
  9915                           ;newmain1.c: 1838: }
  9916                           ;newmain1.c: 1840: _delay((unsigned long)((10)*(16000000/4000.0)));
  9917  0C97  3034               	movlw	52
  9918  0C98  0020               	movlb	0	; select bank0
  9919  0C99  00C7               	movwf	??_main+1
  9920  0C9A  30F1               	movlw	241
  9921  0C9B  00C6               	movwf	??_main
  9922  0C9C                     u6567:	
  9923  0C9C  0BC6               	decfsz	??_main,f
  9924  0C9D  2C9C               	goto	u6567
  9925  0C9E  0BC7               	decfsz	??_main+1,f
  9926  0C9F  2C9C               	goto	u6567
  9927  0CA0  3200               	nop2
  9928                           
  9929                           ;newmain1.c: 1841: send_usart_packet_manage(141, 1);
  9930  0CA1  3001               	movlw	1
  9931  0CA2  00F3               	movwf	send_usart_packet_manage@Data_carry
  9932  0CA3  3000               	movlw	0
  9933  0CA4  00F4               	movwf	send_usart_packet_manage@Data_carry+1
  9934  0CA5  308D               	movlw	141
  9935  0CA6  3195  2549  3188   	fcall	_send_usart_packet_manage
  9936                           
  9937                           ;newmain1.c: 1842: Data_Temp_Work_int = receive_data_bytes(1000);
  9938  0CA9  30E8               	movlw	232
  9939  0CAA  0020               	movlb	0	; select bank0
  9940  0CAB  00A7               	movwf	receive_data_bytes@time_out_first_byte
  9941  0CAC  3003               	movlw	3
  9942  0CAD  00A8               	movwf	receive_data_bytes@time_out_first_byte+1
  9943  0CAE  3182  221D  3188   	fcall	_receive_data_bytes
  9944  0CB1  0020               	movlb	0	; select bank0
  9945  0CB2  0828               	movf	?_receive_data_bytes+1,w
  9946  0CB3  00CC               	movwf	_Data_Temp_Work_int+1
  9947  0CB4  0827               	movf	?_receive_data_bytes,w
  9948  0CB5  00CB               	movwf	_Data_Temp_Work_int
  9949                           
  9950                           ;newmain1.c: 1845: print_screen("Testing", "Motor Circuit");
  9951  0CB6  3072               	movlw	low (STR_53| (0+32768))
  9952  0CB7  00F6               	movwf	print_screen@top
  9953  0CB8  3093               	movlw	high (STR_53| (0+32768))
  9954  0CB9  00F7               	movwf	print_screen@top+1
  9955  0CBA  30A7               	movlw	low (STR_92| (0+32768))
  9956  0CBB  00F8               	movwf	print_screen@bottom
  9957  0CBC  3091               	movlw	high (STR_92| (0+32768))
  9958  0CBD  00F9               	movwf	print_screen@bottom+1
  9959  0CBE  319F  27E9  3188   	fcall	_print_screen
  9960                           
  9961                           ;newmain1.c: 1847: _delay((unsigned long)((10)*(16000000/4000.0)));
  9962  0CC1  3034               	movlw	52
  9963  0CC2  0020               	movlb	0	; select bank0
  9964  0CC3  00C7               	movwf	??_main+1
  9965  0CC4  30F1               	movlw	241
  9966  0CC5  00C6               	movwf	??_main
  9967  0CC6                     u6577:	
  9968  0CC6  0BC6               	decfsz	??_main,f
  9969  0CC7  2CC6               	goto	u6577
  9970  0CC8  0BC7               	decfsz	??_main+1,f
  9971  0CC9  2CC6               	goto	u6577
  9972  0CCA  3200               	nop2
  9973                           
  9974                           ;newmain1.c: 1850: send_usart_packet_manage(132, 132);
  9975  0CCB  3084               	movlw	132
  9976  0CCC  00F3               	movwf	send_usart_packet_manage@Data_carry
  9977  0CCD  3000               	movlw	0
  9978  0CCE  00F4               	movwf	send_usart_packet_manage@Data_carry+1
  9979  0CCF  3084               	movlw	132
  9980  0CD0  3195  2549  3188   	fcall	_send_usart_packet_manage
  9981                           
  9982                           ;newmain1.c: 1851: Data_Temp_Work_int = receive_data_bytes(1000);
  9983  0CD3  30E8               	movlw	232
  9984  0CD4  0020               	movlb	0	; select bank0
  9985  0CD5  00A7               	movwf	receive_data_bytes@time_out_first_byte
  9986  0CD6  3003               	movlw	3
  9987  0CD7  00A8               	movwf	receive_data_bytes@time_out_first_byte+1
  9988  0CD8  3182  221D  3188   	fcall	_receive_data_bytes
  9989  0CDB  0020               	movlb	0	; select bank0
  9990  0CDC  0828               	movf	?_receive_data_bytes+1,w
  9991  0CDD  00CC               	movwf	_Data_Temp_Work_int+1
  9992  0CDE  0827               	movf	?_receive_data_bytes,w
  9993  0CDF  00CB               	movwf	_Data_Temp_Work_int
  9994                           
  9995                           ;newmain1.c: 1853: if(Data_Temp_Work_int > 3)
  9996  0CE0  3000               	movlw	0
  9997  0CE1  024C               	subwf	_Data_Temp_Work_int+1,w
  9998  0CE2  3004               	movlw	4
  9999  0CE3  1903               	skipnz
 10000  0CE4  024B               	subwf	_Data_Temp_Work_int,w
 10001  0CE5  1C03               	skipc
 10002  0CE6  2CF2               	goto	l6224
 10003                           
 10004                           ;newmain1.c: 1854: {
 10005                           ;newmain1.c: 1855: print_error("Error Motor", "Circuit Short");
 10006  0CE7  3094               	movlw	low (STR_93| (0+32768))
 10007  0CE8  00A0               	movwf	print_error@top
 10008  0CE9  3092               	movlw	high (STR_93| (0+32768))
 10009  0CEA  00A1               	movwf	print_error@top+1
 10010  0CEB  30B5               	movlw	low (STR_94| (0+32768))
 10011  0CEC  00A2               	movwf	print_error@bottom
 10012  0CED  3091               	movlw	high (STR_94| (0+32768))
 10013  0CEE  00A3               	movwf	print_error@bottom+1
 10014  0CEF  3195  25D1  3188   	fcall	_print_error
 10015  0CF2                     l6224:	
 10016                           
 10017                           ;newmain1.c: 1856: }
 10018                           ;newmain1.c: 1859: _delay((unsigned long)((10)*(16000000/4000.0)));
 10019  0CF2  3034               	movlw	52
 10020  0CF3  0020               	movlb	0	; select bank0
 10021  0CF4  00C7               	movwf	??_main+1
 10022  0CF5  30F1               	movlw	241
 10023  0CF6  00C6               	movwf	??_main
 10024  0CF7                     u6587:	
 10025  0CF7  0BC6               	decfsz	??_main,f
 10026  0CF8  2CF7               	goto	u6587
 10027  0CF9  0BC7               	decfsz	??_main+1,f
 10028  0CFA  2CF7               	goto	u6587
 10029  0CFB  3200               	nop2
 10030                           
 10031                           ;newmain1.c: 1860: send_usart_packet_manage(146, 2);
 10032  0CFC  3002               	movlw	2
 10033  0CFD  00F3               	movwf	send_usart_packet_manage@Data_carry
 10034  0CFE  3000               	movlw	0
 10035  0CFF  00F4               	movwf	send_usart_packet_manage@Data_carry+1
 10036  0D00  3092               	movlw	146
 10037  0D01  3195  2549  3188   	fcall	_send_usart_packet_manage
 10038                           
 10039                           ;newmain1.c: 1861: Data_Temp_Work_int = receive_data_bytes(1000);
 10040  0D04  30E8               	movlw	232
 10041  0D05  0020               	movlb	0	; select bank0
 10042  0D06  00A7               	movwf	receive_data_bytes@time_out_first_byte
 10043  0D07  3003               	movlw	3
 10044  0D08  00A8               	movwf	receive_data_bytes@time_out_first_byte+1
 10045  0D09  3182  221D  3188   	fcall	_receive_data_bytes
 10046  0D0C  0020               	movlb	0	; select bank0
 10047  0D0D  0828               	movf	?_receive_data_bytes+1,w
 10048  0D0E  00CC               	movwf	_Data_Temp_Work_int+1
 10049  0D0F  0827               	movf	?_receive_data_bytes,w
 10050  0D10  00CB               	movwf	_Data_Temp_Work_int
 10051                           
 10052                           ;newmain1.c: 1863: _delay((unsigned long)((500)*(16000000/4000.0)));
 10053  0D11  300B               	movlw	11
 10054  0D12  00C8               	movwf	??_main+2
 10055  0D13  3026               	movlw	38
 10056  0D14  00C7               	movwf	??_main+1
 10057  0D15  3066               	movlw	102
 10058  0D16  00C6               	movwf	??_main
 10059  0D17                     u6597:	
 10060  0D17  0BC6               	decfsz	??_main,f
 10061  0D18  2D17               	goto	u6597
 10062  0D19  0BC7               	decfsz	??_main+1,f
 10063  0D1A  2D17               	goto	u6597
 10064  0D1B  0BC8               	decfsz	??_main+2,f
 10065  0D1C  2D17               	goto	u6597
 10066  0D1D  3200               	nop2
 10067                           
 10068                           ;newmain1.c: 1866: send_usart_packet_manage(132, 132);
 10069  0D1E  3084               	movlw	132
 10070  0D1F  00F3               	movwf	send_usart_packet_manage@Data_carry
 10071  0D20  3000               	movlw	0
 10072  0D21  00F4               	movwf	send_usart_packet_manage@Data_carry+1
 10073  0D22  3084               	movlw	132
 10074  0D23  3195  2549  3188   	fcall	_send_usart_packet_manage
 10075                           
 10076                           ;newmain1.c: 1867: Data_Temp_Work_int = receive_data_bytes(1000);
 10077  0D26  30E8               	movlw	232
 10078  0D27  0020               	movlb	0	; select bank0
 10079  0D28  00A7               	movwf	receive_data_bytes@time_out_first_byte
 10080  0D29  3003               	movlw	3
 10081  0D2A  00A8               	movwf	receive_data_bytes@time_out_first_byte+1
 10082  0D2B  3182  221D  3188   	fcall	_receive_data_bytes
 10083  0D2E  0020               	movlb	0	; select bank0
 10084  0D2F  0828               	movf	?_receive_data_bytes+1,w
 10085  0D30  00CC               	movwf	_Data_Temp_Work_int+1
 10086  0D31  0827               	movf	?_receive_data_bytes,w
 10087  0D32  00CB               	movwf	_Data_Temp_Work_int
 10088                           
 10089                           ;newmain1.c: 1869: if(Data_Temp_Work_int > 2)
 10090  0D33  3000               	movlw	0
 10091  0D34  024C               	subwf	_Data_Temp_Work_int+1,w
 10092  0D35  3003               	movlw	3
 10093  0D36  1903               	skipnz
 10094  0D37  024B               	subwf	_Data_Temp_Work_int,w
 10095  0D38  1C03               	skipc
 10096  0D39  2D45               	goto	l6238
 10097                           
 10098                           ;newmain1.c: 1870: {
 10099                           ;newmain1.c: 1871: print_error("Error Motor", "Circuit Short");
 10100  0D3A  3094               	movlw	low (STR_93| (0+32768))
 10101  0D3B  00A0               	movwf	print_error@top
 10102  0D3C  3092               	movlw	high (STR_93| (0+32768))
 10103  0D3D  00A1               	movwf	print_error@top+1
 10104  0D3E  30B5               	movlw	low (STR_94| (0+32768))
 10105  0D3F  00A2               	movwf	print_error@bottom
 10106  0D40  3091               	movlw	high (STR_94| (0+32768))
 10107  0D41  00A3               	movwf	print_error@bottom+1
 10108  0D42  3195  25D1  3188   	fcall	_print_error
 10109  0D45                     l6238:	
 10110                           
 10111                           ;newmain1.c: 1872: }
 10112                           ;newmain1.c: 1875: _delay((unsigned long)((10)*(16000000/4000.0)));
 10113  0D45  3034               	movlw	52
 10114  0D46  0020               	movlb	0	; select bank0
 10115  0D47  00C7               	movwf	??_main+1
 10116  0D48  30F1               	movlw	241
 10117  0D49  00C6               	movwf	??_main
 10118  0D4A                     u6607:	
 10119  0D4A  0BC6               	decfsz	??_main,f
 10120  0D4B  2D4A               	goto	u6607
 10121  0D4C  0BC7               	decfsz	??_main+1,f
 10122  0D4D  2D4A               	goto	u6607
 10123  0D4E  3200               	nop2
 10124                           
 10125                           ;newmain1.c: 1876: send_usart_packet_manage(142, 254);
 10126  0D4F  30FE               	movlw	254
 10127  0D50  00F3               	movwf	send_usart_packet_manage@Data_carry
 10128  0D51  3000               	movlw	0
 10129  0D52  00F4               	movwf	send_usart_packet_manage@Data_carry+1
 10130  0D53  308E               	movlw	142
 10131  0D54  3195  2549  3188   	fcall	_send_usart_packet_manage
 10132                           
 10133                           ;newmain1.c: 1877: Data_Temp_Work_int = receive_data_bytes(1000);
 10134  0D57  30E8               	movlw	232
 10135  0D58  0020               	movlb	0	; select bank0
 10136  0D59  00A7               	movwf	receive_data_bytes@time_out_first_byte
 10137  0D5A  3003               	movlw	3
 10138  0D5B  00A8               	movwf	receive_data_bytes@time_out_first_byte+1
 10139  0D5C  3182  221D  3188   	fcall	_receive_data_bytes
 10140  0D5F  0020               	movlb	0	; select bank0
 10141  0D60  0828               	movf	?_receive_data_bytes+1,w
 10142  0D61  00CC               	movwf	_Data_Temp_Work_int+1
 10143  0D62  0827               	movf	?_receive_data_bytes,w
 10144  0D63  00CB               	movwf	_Data_Temp_Work_int
 10145                           
 10146                           ;newmain1.c: 1880: _delay((unsigned long)((1000)*(16000000/4000.0)));
 10147  0D64  3015               	movlw	21
 10148  0D65  00C8               	movwf	??_main+2
 10149  0D66  304B               	movlw	75
 10150  0D67  00C7               	movwf	??_main+1
 10151  0D68  30D1               	movlw	209
 10152  0D69  00C6               	movwf	??_main
 10153  0D6A                     u6617:	
 10154  0D6A  0BC6               	decfsz	??_main,f
 10155  0D6B  2D6A               	goto	u6617
 10156  0D6C  0BC7               	decfsz	??_main+1,f
 10157  0D6D  2D6A               	goto	u6617
 10158  0D6E  0BC8               	decfsz	??_main+2,f
 10159  0D6F  2D6A               	goto	u6617
 10160  0D70  0000               	nop
 10161                           
 10162                           ;newmain1.c: 1883: send_usart_packet_manage(132, 132);
 10163  0D71  3084               	movlw	132
 10164  0D72  00F3               	movwf	send_usart_packet_manage@Data_carry
 10165  0D73  3000               	movlw	0
 10166  0D74  00F4               	movwf	send_usart_packet_manage@Data_carry+1
 10167  0D75  3084               	movlw	132
 10168  0D76  3195  2549  3188   	fcall	_send_usart_packet_manage
 10169                           
 10170                           ;newmain1.c: 1884: Data_Temp_Work_int = receive_data_bytes(1000);
 10171  0D79  30E8               	movlw	232
 10172  0D7A  0020               	movlb	0	; select bank0
 10173  0D7B  00A7               	movwf	receive_data_bytes@time_out_first_byte
 10174  0D7C  3003               	movlw	3
 10175  0D7D  00A8               	movwf	receive_data_bytes@time_out_first_byte+1
 10176  0D7E  3182  221D  3188   	fcall	_receive_data_bytes
 10177  0D81  0020               	movlb	0	; select bank0
 10178  0D82  0828               	movf	?_receive_data_bytes+1,w
 10179  0D83  00CC               	movwf	_Data_Temp_Work_int+1
 10180  0D84  0827               	movf	?_receive_data_bytes,w
 10181  0D85  00CB               	movwf	_Data_Temp_Work_int
 10182                           
 10183                           ;newmain1.c: 1890: if(Data_Temp_Work_int < 1)
 10184  0D86  084B               	movf	_Data_Temp_Work_int,w
 10185  0D87  044C               	iorwf	_Data_Temp_Work_int+1,w
 10186  0D88  1D03               	btfss	3,2
 10187  0D89  2D95               	goto	l6252
 10188                           
 10189                           ;newmain1.c: 1891: {
 10190                           ;newmain1.c: 1892: print_error("Error Motor", "Circuit Open");
 10191  0D8A  3094               	movlw	low (STR_93| (0+32768))
 10192  0D8B  00A0               	movwf	print_error@top
 10193  0D8C  3092               	movlw	high (STR_93| (0+32768))
 10194  0D8D  00A1               	movwf	print_error@top+1
 10195  0D8E  303C               	movlw	low (STR_98| (0+32768))
 10196  0D8F  00A2               	movwf	print_error@bottom
 10197  0D90  3092               	movlw	high (STR_98| (0+32768))
 10198  0D91  00A3               	movwf	print_error@bottom+1
 10199  0D92  3195  25D1  3188   	fcall	_print_error
 10200  0D95                     l6252:	
 10201                           
 10202                           ;newmain1.c: 1893: }
 10203                           ;newmain1.c: 1897: if((RA0 == 0) && (RA1 == 0))
 10204  0D95  0020               	movlb	0	; select bank0
 10205  0D96  1C0C               	btfss	12,0	;volatile
 10206  0D97  188C               	btfsc	12,1	;volatile
 10207  0D98  2DA4               	goto	l6258
 10208                           
 10209                           ;newmain1.c: 1898: {
 10210                           ;newmain1.c: 1899: print_error("Error Motor", "Circuit Err 1");
 10211  0D99  3094               	movlw	low (STR_93| (0+32768))
 10212  0D9A  00A0               	movwf	print_error@top
 10213  0D9B  3092               	movlw	high (STR_93| (0+32768))
 10214  0D9C  00A1               	movwf	print_error@top+1
 10215  0D9D  3037               	movlw	low (STR_100| (0+32768))
 10216  0D9E  00A2               	movwf	print_error@bottom
 10217  0D9F  3091               	movlw	high (STR_100| (0+32768))
 10218  0DA0  00A3               	movwf	print_error@bottom+1
 10219  0DA1  3195  25D1  3188   	fcall	_print_error
 10220  0DA4                     l6258:	
 10221                           
 10222                           ;newmain1.c: 1900: }
 10223                           ;newmain1.c: 1902: if((RA0 == 0) && (RA1 == 1))
 10224  0DA4  0020               	movlb	0	; select bank0
 10225  0DA5  1C0C               	btfss	12,0	;volatile
 10226  0DA6  1C8C               	btfss	12,1	;volatile
 10227  0DA7  2DB3               	goto	l6264
 10228                           
 10229                           ;newmain1.c: 1903: {
 10230                           ;newmain1.c: 1904: print_error("Error Motor", "Circuit Err 2");
 10231  0DA8  3094               	movlw	low (STR_93| (0+32768))
 10232  0DA9  00A0               	movwf	print_error@top
 10233  0DAA  3092               	movlw	high (STR_93| (0+32768))
 10234  0DAB  00A1               	movwf	print_error@top+1
 10235  0DAC  3045               	movlw	low (STR_102| (0+32768))
 10236  0DAD  00A2               	movwf	print_error@bottom
 10237  0DAE  3091               	movlw	high (STR_102| (0+32768))
 10238  0DAF  00A3               	movwf	print_error@bottom+1
 10239  0DB0  3195  25D1  3188   	fcall	_print_error
 10240  0DB3                     l6264:	
 10241                           
 10242                           ;newmain1.c: 1905: }
 10243                           ;newmain1.c: 1907: if((RA0 == 1) && (RA1 == 1))
 10244  0DB3  0020               	movlb	0	; select bank0
 10245  0DB4  180C               	btfsc	12,0	;volatile
 10246  0DB5  1C8C               	btfss	12,1	;volatile
 10247  0DB6  2DC2               	goto	l6270
 10248                           
 10249                           ;newmain1.c: 1908: {
 10250                           ;newmain1.c: 1909: print_error("Error Motor", "Circuit Err 3");
 10251  0DB7  3094               	movlw	low (STR_93| (0+32768))
 10252  0DB8  00A0               	movwf	print_error@top
 10253  0DB9  3092               	movlw	high (STR_93| (0+32768))
 10254  0DBA  00A1               	movwf	print_error@top+1
 10255  0DBB  3053               	movlw	low (STR_104| (0+32768))
 10256  0DBC  00A2               	movwf	print_error@bottom
 10257  0DBD  3091               	movlw	high (STR_104| (0+32768))
 10258  0DBE  00A3               	movwf	print_error@bottom+1
 10259  0DBF  3195  25D1  3188   	fcall	_print_error
 10260  0DC2                     l6270:	
 10261                           
 10262                           ;newmain1.c: 1910: }
 10263                           ;newmain1.c: 1913: _delay((unsigned long)((10)*(16000000/4000.0)));
 10264  0DC2  3034               	movlw	52
 10265  0DC3  0020               	movlb	0	; select bank0
 10266  0DC4  00C7               	movwf	??_main+1
 10267  0DC5  30F1               	movlw	241
 10268  0DC6  00C6               	movwf	??_main
 10269  0DC7                     u6627:	
 10270  0DC7  0BC6               	decfsz	??_main,f
 10271  0DC8  2DC7               	goto	u6627
 10272  0DC9  0BC7               	decfsz	??_main+1,f
 10273  0DCA  2DC7               	goto	u6627
 10274  0DCB  3200               	nop2
 10275                           
 10276                           ;newmain1.c: 1914: send_usart_packet_manage(146, 1);
 10277  0DCC  3001               	movlw	1
 10278  0DCD  00F3               	movwf	send_usart_packet_manage@Data_carry
 10279  0DCE  3000               	movlw	0
 10280  0DCF  00F4               	movwf	send_usart_packet_manage@Data_carry+1
 10281  0DD0  3092               	movlw	146
 10282  0DD1  3195  2549  3188   	fcall	_send_usart_packet_manage
 10283                           
 10284                           ;newmain1.c: 1915: Data_Temp_Work_int = receive_data_bytes(1000);
 10285  0DD4  30E8               	movlw	232
 10286  0DD5  0020               	movlb	0	; select bank0
 10287  0DD6  00A7               	movwf	receive_data_bytes@time_out_first_byte
 10288  0DD7  3003               	movlw	3
 10289  0DD8  00A8               	movwf	receive_data_bytes@time_out_first_byte+1
 10290  0DD9  3182  221D  3188   	fcall	_receive_data_bytes
 10291  0DDC  0020               	movlb	0	; select bank0
 10292  0DDD  0828               	movf	?_receive_data_bytes+1,w
 10293  0DDE  00CC               	movwf	_Data_Temp_Work_int+1
 10294  0DDF  0827               	movf	?_receive_data_bytes,w
 10295  0DE0  00CB               	movwf	_Data_Temp_Work_int
 10296                           
 10297                           ;newmain1.c: 1917: _delay((unsigned long)((100)*(16000000/4000.0)));
 10298  0DE1  3003               	movlw	3
 10299  0DE2  00C8               	movwf	??_main+2
 10300  0DE3  3008               	movlw	8
 10301  0DE4  00C7               	movwf	??_main+1
 10302  0DE5  3078               	movlw	120
 10303  0DE6  00C6               	movwf	??_main
 10304  0DE7                     u6637:	
 10305  0DE7  0BC6               	decfsz	??_main,f
 10306  0DE8  2DE7               	goto	u6637
 10307  0DE9  0BC7               	decfsz	??_main+1,f
 10308  0DEA  2DE7               	goto	u6637
 10309  0DEB  0BC8               	decfsz	??_main+2,f
 10310  0DEC  2DE7               	goto	u6637
 10311                           
 10312                           ;newmain1.c: 1918: send_usart_packet_manage(147, 2);
 10313  0DED  3002               	movlw	2
 10314  0DEE  00F3               	movwf	send_usart_packet_manage@Data_carry
 10315  0DEF  3000               	movlw	0
 10316  0DF0  00F4               	movwf	send_usart_packet_manage@Data_carry+1
 10317  0DF1  3093               	movlw	147
 10318  0DF2  3195  2549  3188   	fcall	_send_usart_packet_manage
 10319                           
 10320                           ;newmain1.c: 1919: Data_Temp_Work_int = receive_data_bytes(1000);
 10321  0DF5  30E8               	movlw	232
 10322  0DF6  0020               	movlb	0	; select bank0
 10323  0DF7  00A7               	movwf	receive_data_bytes@time_out_first_byte
 10324  0DF8  3003               	movlw	3
 10325  0DF9  00A8               	movwf	receive_data_bytes@time_out_first_byte+1
 10326  0DFA  3182  221D  3188   	fcall	_receive_data_bytes
 10327  0DFD  0020               	movlb	0	; select bank0
 10328  0DFE  0828               	movf	?_receive_data_bytes+1,w
 10329  0DFF  00CC               	movwf	_Data_Temp_Work_int+1
 10330  0E00  0827               	movf	?_receive_data_bytes,w
 10331  0E01  00CB               	movwf	_Data_Temp_Work_int
 10332                           
 10333                           ;newmain1.c: 1920: _delay((unsigned long)((250)*(16000000/4000.0)));
 10334  0E02  3006               	movlw	6
 10335  0E03  00C8               	movwf	??_main+2
 10336  0E04  3013               	movlw	19
 10337  0E05  00C7               	movwf	??_main+1
 10338  0E06  30B1               	movlw	177
 10339  0E07  00C6               	movwf	??_main
 10340  0E08                     u6647:	
 10341  0E08  0BC6               	decfsz	??_main,f
 10342  0E09  2E08               	goto	u6647
 10343  0E0A  0BC7               	decfsz	??_main+1,f
 10344  0E0B  2E08               	goto	u6647
 10345  0E0C  0BC8               	decfsz	??_main+2,f
 10346  0E0D  2E08               	goto	u6647
 10347  0E0E  3200               	nop2
 10348                           
 10349                           ;newmain1.c: 1924: if((RA0 == 0) && (RA1 == 0))
 10350  0E0F  0020               	movlb	0	; select bank0
 10351  0E10  1C0C               	btfss	12,0	;volatile
 10352  0E11  188C               	btfsc	12,1	;volatile
 10353  0E12  2E1E               	goto	l6288
 10354                           
 10355                           ;newmain1.c: 1925: {
 10356                           ;newmain1.c: 1926: print_error("Error Motor", "Circuit Err 1");
 10357  0E13  3094               	movlw	low (STR_93| (0+32768))
 10358  0E14  00A0               	movwf	print_error@top
 10359  0E15  3092               	movlw	high (STR_93| (0+32768))
 10360  0E16  00A1               	movwf	print_error@top+1
 10361  0E17  3037               	movlw	low (STR_100| (0+32768))
 10362  0E18  00A2               	movwf	print_error@bottom
 10363  0E19  3091               	movlw	high (STR_100| (0+32768))
 10364  0E1A  00A3               	movwf	print_error@bottom+1
 10365  0E1B  3195  25D1  3188   	fcall	_print_error
 10366  0E1E                     l6288:	
 10367                           
 10368                           ;newmain1.c: 1927: }
 10369                           ;newmain1.c: 1929: if((RA0 == 1) && (RA1 == 0))
 10370  0E1E  0020               	movlb	0	; select bank0
 10371  0E1F  180C               	btfsc	12,0	;volatile
 10372  0E20  188C               	btfsc	12,1	;volatile
 10373  0E21  2E2D               	goto	l6294
 10374                           
 10375                           ;newmain1.c: 1930: {
 10376                           ;newmain1.c: 1931: print_error("Error Motor", "Circuit Err 2");
 10377  0E22  3094               	movlw	low (STR_93| (0+32768))
 10378  0E23  00A0               	movwf	print_error@top
 10379  0E24  3092               	movlw	high (STR_93| (0+32768))
 10380  0E25  00A1               	movwf	print_error@top+1
 10381  0E26  3045               	movlw	low (STR_102| (0+32768))
 10382  0E27  00A2               	movwf	print_error@bottom
 10383  0E28  3091               	movlw	high (STR_102| (0+32768))
 10384  0E29  00A3               	movwf	print_error@bottom+1
 10385  0E2A  3195  25D1  3188   	fcall	_print_error
 10386  0E2D                     l6294:	
 10387                           
 10388                           ;newmain1.c: 1932: }
 10389                           ;newmain1.c: 1934: if((RA0 == 1) && (RA1 == 1))
 10390  0E2D  0020               	movlb	0	; select bank0
 10391  0E2E  180C               	btfsc	12,0	;volatile
 10392  0E2F  1C8C               	btfss	12,1	;volatile
 10393  0E30  2E3C               	goto	l6300
 10394                           
 10395                           ;newmain1.c: 1935: {
 10396                           ;newmain1.c: 1936: print_error("Error Motor", "Circuit Err 3");
 10397  0E31  3094               	movlw	low (STR_93| (0+32768))
 10398  0E32  00A0               	movwf	print_error@top
 10399  0E33  3092               	movlw	high (STR_93| (0+32768))
 10400  0E34  00A1               	movwf	print_error@top+1
 10401  0E35  3053               	movlw	low (STR_104| (0+32768))
 10402  0E36  00A2               	movwf	print_error@bottom
 10403  0E37  3091               	movlw	high (STR_104| (0+32768))
 10404  0E38  00A3               	movwf	print_error@bottom+1
 10405  0E39  3195  25D1  3188   	fcall	_print_error
 10406  0E3C                     l6300:	
 10407                           
 10408                           ;newmain1.c: 1937: }
 10409                           ;newmain1.c: 1940: _delay((unsigned long)((10)*(16000000/4000.0)));
 10410  0E3C  3034               	movlw	52
 10411  0E3D  0020               	movlb	0	; select bank0
 10412  0E3E  00C7               	movwf	??_main+1
 10413  0E3F  30F1               	movlw	241
 10414  0E40  00C6               	movwf	??_main
 10415  0E41                     u6657:	
 10416  0E41  0BC6               	decfsz	??_main,f
 10417  0E42  2E41               	goto	u6657
 10418  0E43  0BC7               	decfsz	??_main+1,f
 10419  0E44  2E41               	goto	u6657
 10420  0E45  3200               	nop2
 10421                           
 10422                           ;newmain1.c: 1941: send_usart_packet_manage(142, 0);
 10423  0E46  3000               	movlw	0
 10424  0E47  00F3               	movwf	send_usart_packet_manage@Data_carry
 10425  0E48  00F4               	movwf	send_usart_packet_manage@Data_carry+1
 10426  0E49  308E               	movlw	142
 10427  0E4A  3195  2549  3188   	fcall	_send_usart_packet_manage
 10428                           
 10429                           ;newmain1.c: 1942: Data_Temp_Work_int = receive_data_bytes(1000);
 10430  0E4D  30E8               	movlw	232
 10431  0E4E  0020               	movlb	0	; select bank0
 10432  0E4F  00A7               	movwf	receive_data_bytes@time_out_first_byte
 10433  0E50  3003               	movlw	3
 10434  0E51  00A8               	movwf	receive_data_bytes@time_out_first_byte+1
 10435  0E52  3182  221D  3188   	fcall	_receive_data_bytes
 10436  0E55  0020               	movlb	0	; select bank0
 10437  0E56  0828               	movf	?_receive_data_bytes+1,w
 10438  0E57  00CC               	movwf	_Data_Temp_Work_int+1
 10439  0E58  0827               	movf	?_receive_data_bytes,w
 10440  0E59  00CB               	movwf	_Data_Temp_Work_int
 10441                           
 10442                           ;newmain1.c: 1945: _delay((unsigned long)((100)*(16000000/4000.0)));
 10443  0E5A  3003               	movlw	3
 10444  0E5B  00C8               	movwf	??_main+2
 10445  0E5C  3008               	movlw	8
 10446  0E5D  00C7               	movwf	??_main+1
 10447  0E5E  3078               	movlw	120
 10448  0E5F  00C6               	movwf	??_main
 10449  0E60                     u6667:	
 10450  0E60  0BC6               	decfsz	??_main,f
 10451  0E61  2E60               	goto	u6667
 10452  0E62  0BC7               	decfsz	??_main+1,f
 10453  0E63  2E60               	goto	u6667
 10454  0E64  0BC8               	decfsz	??_main+2,f
 10455  0E65  2E60               	goto	u6667
 10456                           
 10457                           ;newmain1.c: 1946: send_usart_packet_manage(146, 1);
 10458  0E66  3001               	movlw	1
 10459  0E67  00F3               	movwf	send_usart_packet_manage@Data_carry
 10460  0E68  3000               	movlw	0
 10461  0E69  00F4               	movwf	send_usart_packet_manage@Data_carry+1
 10462  0E6A  3092               	movlw	146
 10463  0E6B  3195  2549  3188   	fcall	_send_usart_packet_manage
 10464                           
 10465                           ;newmain1.c: 1947: Data_Temp_Work_int = receive_data_bytes(1000);
 10466  0E6E  30E8               	movlw	232
 10467  0E6F  0020               	movlb	0	; select bank0
 10468  0E70  00A7               	movwf	receive_data_bytes@time_out_first_byte
 10469  0E71  3003               	movlw	3
 10470  0E72  00A8               	movwf	receive_data_bytes@time_out_first_byte+1
 10471  0E73  3182  221D  3188   	fcall	_receive_data_bytes
 10472  0E76  0020               	movlb	0	; select bank0
 10473  0E77  0828               	movf	?_receive_data_bytes+1,w
 10474  0E78  00CC               	movwf	_Data_Temp_Work_int+1
 10475  0E79  0827               	movf	?_receive_data_bytes,w
 10476  0E7A  00CB               	movwf	_Data_Temp_Work_int
 10477                           
 10478                           ;newmain1.c: 1950: print_screen("Testing", "Rx System");
 10479  0E7B  3072               	movlw	low (STR_53| (0+32768))
 10480  0E7C  00F6               	movwf	print_screen@top
 10481  0E7D  3093               	movlw	high (STR_53| (0+32768))
 10482  0E7E  00F7               	movwf	print_screen@top+1
 10483  0E7F  30FA               	movlw	low (STR_112| (0+32768))
 10484  0E80  00F8               	movwf	print_screen@bottom
 10485  0E81  3092               	movlw	high (STR_112| (0+32768))
 10486  0E82  00F9               	movwf	print_screen@bottom+1
 10487  0E83  319F  27E9  3188   	fcall	_print_screen
 10488                           
 10489                           ;newmain1.c: 1952: LATF4 = 1;
 10490  0E86  0027               	movlb	7	; select bank7
 10491  0E87  160C               	bsf	12,4	;volatile
 10492                           
 10493                           ;newmain1.c: 1953: _delay((unsigned long)((500)*(16000000/4000.0)));
 10494  0E88  300B               	movlw	11
 10495  0E89  0020               	movlb	0	; select bank0
 10496  0E8A  00C8               	movwf	??_main+2
 10497  0E8B  3026               	movlw	38
 10498  0E8C  00C7               	movwf	??_main+1
 10499  0E8D  3066               	movlw	102
 10500  0E8E  00C6               	movwf	??_main
 10501  0E8F                     u6677:	
 10502  0E8F  0BC6               	decfsz	??_main,f
 10503  0E90  2E8F               	goto	u6677
 10504  0E91  0BC7               	decfsz	??_main+1,f
 10505  0E92  2E8F               	goto	u6677
 10506  0E93  0BC8               	decfsz	??_main+2,f
 10507  0E94  2E8F               	goto	u6677
 10508  0E95  3200               	nop2
 10509                           
 10510                           ;newmain1.c: 1957: send_usart_packet_manage(252, 252);
 10511  0E96  30FC               	movlw	252
 10512  0E97  00F3               	movwf	send_usart_packet_manage@Data_carry
 10513  0E98  3000               	movlw	0
 10514  0E99  00F4               	movwf	send_usart_packet_manage@Data_carry+1
 10515  0E9A  30FC               	movlw	252
 10516  0E9B  3195  2549  3188   	fcall	_send_usart_packet_manage
 10517                           
 10518                           ;newmain1.c: 1958: Data_Temp_Work_int = receive_data_bytes(2000);
 10519  0E9E  30D0               	movlw	208
 10520  0E9F  0020               	movlb	0	; select bank0
 10521  0EA0  00A7               	movwf	receive_data_bytes@time_out_first_byte
 10522  0EA1  3007               	movlw	7
 10523  0EA2  00A8               	movwf	receive_data_bytes@time_out_first_byte+1
 10524  0EA3  3182  221D  3188   	fcall	_receive_data_bytes
 10525  0EA6  0020               	movlb	0	; select bank0
 10526  0EA7  0828               	movf	?_receive_data_bytes+1,w
 10527  0EA8  00CC               	movwf	_Data_Temp_Work_int+1
 10528  0EA9  0827               	movf	?_receive_data_bytes,w
 10529  0EAA  00CB               	movwf	_Data_Temp_Work_int
 10530                           
 10531                           ;newmain1.c: 1960: if(Data_Temp_Work_int == 1)
 10532  0EAB  034B               	decf	_Data_Temp_Work_int,w
 10533  0EAC  044C               	iorwf	_Data_Temp_Work_int+1,w
 10534  0EAD  1D03               	btfss	3,2
 10535  0EAE  2EBA               	goto	l6324
 10536                           
 10537                           ;newmain1.c: 1961: {
 10538                           ;newmain1.c: 1962: print_error("Error RF", "Timeout");
 10539  0EAF  3034               	movlw	low (STR_113| (0+32768))
 10540  0EB0  00A0               	movwf	print_error@top
 10541  0EB1  3093               	movlw	high (STR_113| (0+32768))
 10542  0EB2  00A1               	movwf	print_error@top+1
 10543  0EB3  30C9               	movlw	low ((STR_1+6)| (0+32768))
 10544  0EB4  00A2               	movwf	print_error@bottom
 10545  0EB5  3091               	movlw	high ((STR_1+6)| (0+32768))
 10546  0EB6  00A3               	movwf	print_error@bottom+1
 10547  0EB7  3195  25D1  3188   	fcall	_print_error
 10548  0EBA                     l6324:	
 10549                           
 10550                           ;newmain1.c: 1963: }
 10551                           ;newmain1.c: 1965: LATF4 = 0;
 10552  0EBA  0027               	movlb	7	; select bank7
 10553  0EBB  120C               	bcf	12,4	;volatile
 10554                           
 10555                           ;newmain1.c: 1968: print_screen("Testing Charger", "");
 10556  0EBC  308E               	movlw	low (STR_115| (0+32768))
 10557  0EBD  00F6               	movwf	print_screen@top
 10558  0EBE  3090               	movlw	high (STR_115| (0+32768))
 10559  0EBF  00F7               	movwf	print_screen@top+1
 10560  0EC0  309F               	movlw	low ((STR_143+4)| (0+32768))
 10561  0EC1  00F8               	movwf	print_screen@bottom
 10562  0EC2  3093               	movlw	high ((STR_143+4)| (0+32768))
 10563  0EC3  00F9               	movwf	print_screen@bottom+1
 10564  0EC4  319F  27E9  3188   	fcall	_print_screen
 10565                           
 10566                           ;newmain1.c: 1976: LATB6 = 1;
 10567  0EC7  0022               	movlb	2	; select bank2
 10568  0EC8  170D               	bsf	13,6	;volatile
 10569                           
 10570                           ;newmain1.c: 1977: LATB4 = 1;
 10571  0EC9  160D               	bsf	13,4	;volatile
 10572                           
 10573                           ;newmain1.c: 1980: _delay((unsigned long)((150)*(16000000/4000.0)));
 10574  0ECA  3004               	movlw	4
 10575  0ECB  0020               	movlb	0	; select bank0
 10576  0ECC  00C8               	movwf	??_main+2
 10577  0ECD  300C               	movlw	12
 10578  0ECE  00C7               	movwf	??_main+1
 10579  0ECF  3035               	movlw	53
 10580  0ED0  00C6               	movwf	??_main
 10581  0ED1                     u6687:	
 10582  0ED1  0BC6               	decfsz	??_main,f
 10583  0ED2  2ED1               	goto	u6687
 10584  0ED3  0BC7               	decfsz	??_main+1,f
 10585  0ED4  2ED1               	goto	u6687
 10586  0ED5  0BC8               	decfsz	??_main+2,f
 10587  0ED6  2ED1               	goto	u6687
 10588  0ED7  3200               	nop2
 10589                           
 10590                           ;newmain1.c: 1982: ADC_val = ADC_get_val(0b01110101);
 10591  0ED8  3075               	movlw	117
 10592  0ED9  3194  2408  3188   	fcall	_ADC_get_val
 10593  0EDC  0873               	movf	?_ADC_get_val+1,w
 10594  0EDD  0020               	movlb	0	; select bank0
 10595  0EDE  00CA               	movwf	_ADC_val+1
 10596  0EDF  0872               	movf	?_ADC_get_val,w
 10597  0EE0  00C9               	movwf	_ADC_val
 10598                           
 10599                           ;newmain1.c: 1985: if(ADC_val > 641)
 10600  0EE1  3002               	movlw	2
 10601  0EE2  024A               	subwf	_ADC_val+1,w
 10602  0EE3  3082               	movlw	130
 10603  0EE4  1903               	skipnz
 10604  0EE5  0249               	subwf	_ADC_val,w
 10605  0EE6  1C03               	skipc
 10606  0EE7  2EF3               	goto	l6338
 10607                           
 10608                           ;newmain1.c: 1986: {
 10609                           ;newmain1.c: 1987: print_error("Charge Err", "Voltage to High");
 10610  0EE8  30DB               	movlw	low (STR_39| (0+32768))
 10611  0EE9  00A0               	movwf	print_error@top
 10612  0EEA  3092               	movlw	high (STR_39| (0+32768))
 10613  0EEB  00A1               	movwf	print_error@top+1
 10614  0EEC  307E               	movlw	low (STR_40| (0+32768))
 10615  0EED  00A2               	movwf	print_error@bottom
 10616  0EEE  3090               	movlw	high (STR_40| (0+32768))
 10617  0EEF  00A3               	movwf	print_error@bottom+1
 10618  0EF0  3195  25D1  3188   	fcall	_print_error
 10619  0EF3                     l6338:	
 10620                           
 10621                           ;newmain1.c: 1988: }
 10622                           ;newmain1.c: 1990: if(ADC_val < 618)
 10623  0EF3  3002               	movlw	2
 10624  0EF4  0020               	movlb	0	; select bank0
 10625  0EF5  024A               	subwf	_ADC_val+1,w
 10626  0EF6  306A               	movlw	106
 10627  0EF7  1903               	skipnz
 10628  0EF8  0249               	subwf	_ADC_val,w
 10629  0EF9  1803               	skipnc
 10630  0EFA  2F06               	goto	l6342
 10631                           
 10632                           ;newmain1.c: 1991: {
 10633                           ;newmain1.c: 1992: print_error("Charge Err", "Voltage to Low");
 10634  0EFB  30DB               	movlw	low (STR_39| (0+32768))
 10635  0EFC  00A0               	movwf	print_error@top
 10636  0EFD  3092               	movlw	high (STR_39| (0+32768))
 10637  0EFE  00A1               	movwf	print_error@top+1
 10638  0EFF  3028               	movlw	low (STR_42| (0+32768))
 10639  0F00  00A2               	movwf	print_error@bottom
 10640  0F01  3091               	movlw	high (STR_42| (0+32768))
 10641  0F02  00A3               	movwf	print_error@bottom+1
 10642  0F03  3195  25D1  3188   	fcall	_print_error
 10643  0F06                     l6342:	
 10644                           
 10645                           ;newmain1.c: 2003: }
 10646                           ;newmain1.c: 2006: CCPR9L = 254;
 10647  0F06  30FE               	movlw	254
 10648  0F07  002C               	movlb	12	; select bank12
 10649  0F08  009A               	movwf	26	;volatile
 10650                           
 10651                           ;newmain1.c: 2008: testjig_timer = 3000;
 10652  0F09  30B8               	movlw	184
 10653  0F0A  0020               	movlb	0	; select bank0
 10654  0F0B  00D9               	movwf	_testjig_timer	;volatile
 10655  0F0C  300B               	movlw	11
 10656  0F0D  00DA               	movwf	_testjig_timer+1	;volatile
 10657  0F0E                     l6358:	
 10658                           ;newmain1.c: 2010: while(testjig_timer)
 10659                           
 10660  0F0E  0020               	movlb	0	; select bank0
 10661  0F0F  0859               	movf	_testjig_timer,w	;volatile
 10662  0F10  045A               	iorwf	_testjig_timer+1,w	;volatile
 10663  0F11  1903               	btfsc	3,2
 10664  0F12  2F4E               	goto	l6360
 10665                           
 10666                           ;newmain1.c: 2011: {
 10667                           ;newmain1.c: 2012: ADC_val = get_current();
 10668  0F13  3194  24A7  3188   	fcall	_get_current
 10669  0F16  0020               	movlb	0	; select bank0
 10670  0F17  0843               	movf	?_get_current+1,w
 10671  0F18  00CA               	movwf	_ADC_val+1
 10672  0F19  0842               	movf	?_get_current,w
 10673  0F1A  00C9               	movwf	_ADC_val
 10674                           
 10675                           ;newmain1.c: 2014: if(ADC_val > 60)
 10676  0F1B  3000               	movlw	0
 10677  0F1C  024A               	subwf	_ADC_val+1,w
 10678  0F1D  303D               	movlw	61
 10679  0F1E  1903               	skipnz
 10680  0F1F  0249               	subwf	_ADC_val,w
 10681  0F20  1C03               	skipc
 10682  0F21  2F30               	goto	l6354
 10683                           
 10684                           ;newmain1.c: 2015: {
 10685                           ;newmain1.c: 2016: CCPR9L = 0;
 10686  0F22  002C               	movlb	12	; select bank12
 10687  0F23  019A               	clrf	26	;volatile
 10688                           
 10689                           ;newmain1.c: 2017: print_error("Charger Err", "Curr too high");
 10690  0F24  30A0               	movlw	low (STR_121| (0+32768))
 10691  0F25  0020               	movlb	0	; select bank0
 10692  0F26  00A0               	movwf	print_error@top
 10693  0F27  3092               	movlw	high (STR_121| (0+32768))
 10694  0F28  00A1               	movwf	print_error@top+1
 10695  0F29  308B               	movlw	low (STR_122| (0+32768))
 10696  0F2A  00A2               	movwf	print_error@bottom
 10697  0F2B  3091               	movlw	high (STR_122| (0+32768))
 10698  0F2C  00A3               	movwf	print_error@bottom+1
 10699  0F2D  3195  25D1  3188   	fcall	_print_error
 10700  0F30                     l6354:	
 10701                           
 10702                           ;newmain1.c: 2018: }
 10703                           ;newmain1.c: 2020: lcd_print_int(ADC_val, 1, 1, 1);
 10704  0F30  0020               	movlb	0	; select bank0
 10705  0F31  084A               	movf	_ADC_val+1,w
 10706  0F32  00A7               	movwf	lcd_print_int@number+1
 10707  0F33  0849               	movf	_ADC_val,w
 10708  0F34  00A6               	movwf	lcd_print_int@number
 10709  0F35  3001               	movlw	1
 10710  0F36  00A8               	movwf	lcd_print_int@pos
 10711  0F37  3000               	movlw	0
 10712  0F38  00A9               	movwf	lcd_print_int@pos+1
 10713  0F39  01AA               	clrf	lcd_print_int@decimal
 10714  0F3A  0AAA               	incf	lcd_print_int@decimal,f
 10715  0F3B  01AB               	clrf	lcd_print_int@ten_thou_digit
 10716  0F3C  0AAB               	incf	lcd_print_int@ten_thou_digit,f
 10717  0F3D  3187  2773  3188   	fcall	_lcd_print_int
 10718                           
 10719                           ;newmain1.c: 2022: _delay((unsigned long)((100)*(16000000/4000.0)));
 10720  0F40  3003               	movlw	3
 10721  0F41  0020               	movlb	0	; select bank0
 10722  0F42  00C8               	movwf	??_main+2
 10723  0F43  3008               	movlw	8
 10724  0F44  00C7               	movwf	??_main+1
 10725  0F45  3078               	movlw	120
 10726  0F46  00C6               	movwf	??_main
 10727  0F47                     u6697:	
 10728  0F47  0BC6               	decfsz	??_main,f
 10729  0F48  2F47               	goto	u6697
 10730  0F49  0BC7               	decfsz	??_main+1,f
 10731  0F4A  2F47               	goto	u6697
 10732  0F4B  0BC8               	decfsz	??_main+2,f
 10733  0F4C  2F47               	goto	u6697
 10734  0F4D  2F0E               	goto	l6358
 10735  0F4E                     l6360:	
 10736                           
 10737                           ;newmain1.c: 2023: }
 10738                           ;newmain1.c: 2025: if(ADC_val < 40)
 10739  0F4E  3000               	movlw	0
 10740  0F4F  024A               	subwf	_ADC_val+1,w
 10741  0F50  3028               	movlw	40
 10742  0F51  1903               	skipnz
 10743  0F52  0249               	subwf	_ADC_val,w
 10744  0F53  1803               	skipnc
 10745  0F54  2F63               	goto	l6366
 10746                           
 10747                           ;newmain1.c: 2026: {
 10748                           ;newmain1.c: 2027: CCPR9L = 0;
 10749  0F55  002C               	movlb	12	; select bank12
 10750  0F56  019A               	clrf	26	;volatile
 10751                           
 10752                           ;newmain1.c: 2028: print_error("Charger Err", "Curr too low");
 10753  0F57  30A0               	movlw	low (STR_121| (0+32768))
 10754  0F58  0020               	movlb	0	; select bank0
 10755  0F59  00A0               	movwf	print_error@top
 10756  0F5A  3092               	movlw	high (STR_121| (0+32768))
 10757  0F5B  00A1               	movwf	print_error@top+1
 10758  0F5C  3063               	movlw	low (STR_124| (0+32768))
 10759  0F5D  00A2               	movwf	print_error@bottom
 10760  0F5E  3092               	movlw	high (STR_124| (0+32768))
 10761  0F5F  00A3               	movwf	print_error@bottom+1
 10762  0F60  3195  25D1  3188   	fcall	_print_error
 10763  0F63                     l6366:	
 10764                           
 10765                           ;newmain1.c: 2029: }
 10766                           ;newmain1.c: 2031: CCPR9L = 0;
 10767  0F63  002C               	movlb	12	; select bank12
 10768  0F64  019A               	clrf	26	;volatile
 10769                           
 10770                           ;newmain1.c: 2032: _delay((unsigned long)((100)*(16000000/4000.0)));
 10771  0F65  3003               	movlw	3
 10772  0F66  0020               	movlb	0	; select bank0
 10773  0F67  00C8               	movwf	??_main+2
 10774  0F68  3008               	movlw	8
 10775  0F69  00C7               	movwf	??_main+1
 10776  0F6A  3078               	movlw	120
 10777  0F6B  00C6               	movwf	??_main
 10778  0F6C                     u6707:	
 10779  0F6C  0BC6               	decfsz	??_main,f
 10780  0F6D  2F6C               	goto	u6707
 10781  0F6E  0BC7               	decfsz	??_main+1,f
 10782  0F6F  2F6C               	goto	u6707
 10783  0F70  0BC8               	decfsz	??_main+2,f
 10784  0F71  2F6C               	goto	u6707
 10785                           
 10786                           ;newmain1.c: 2033: LATB4 = 0;
 10787  0F72  0022               	movlb	2	; select bank2
 10788  0F73  120D               	bcf	13,4	;volatile
 10789                           
 10790                           ;newmain1.c: 2034: LATB6 = 0;
 10791  0F74  130D               	bcf	13,6	;volatile
 10792                           
 10793                           ;newmain1.c: 2035: _delay((unsigned long)((400)*(16000000/4000.0)));
 10794  0F75  3009               	movlw	9
 10795  0F76  0020               	movlb	0	; select bank0
 10796  0F77  00C8               	movwf	??_main+2
 10797  0F78  301E               	movlw	30
 10798  0F79  00C7               	movwf	??_main+1
 10799  0F7A  30EB               	movlw	235
 10800  0F7B  00C6               	movwf	??_main
 10801  0F7C                     u6717:	
 10802  0F7C  0BC6               	decfsz	??_main,f
 10803  0F7D  2F7C               	goto	u6717
 10804  0F7E  0BC7               	decfsz	??_main+1,f
 10805  0F7F  2F7C               	goto	u6717
 10806  0F80  0BC8               	decfsz	??_main+2,f
 10807  0F81  2F7C               	goto	u6717
 10808  0F82  0000               	nop
 10809                           
 10810                           ;newmain1.c: 2038: _delay((unsigned long)((10)*(16000000/4000.0)));
 10811  0F83  3034               	movlw	52
 10812  0F84  0020               	movlb	0	; select bank0
 10813  0F85  00C7               	movwf	??_main+1
 10814  0F86  30F1               	movlw	241
 10815  0F87  00C6               	movwf	??_main
 10816  0F88                     u6727:	
 10817  0F88  0BC6               	decfsz	??_main,f
 10818  0F89  2F88               	goto	u6727
 10819  0F8A  0BC7               	decfsz	??_main+1,f
 10820  0F8B  2F88               	goto	u6727
 10821  0F8C  3200               	nop2
 10822                           
 10823                           ;newmain1.c: 2040: RC2STAbits.SPEN = 0;
 10824  0F8D  0029               	movlb	9	; select bank9
 10825  0F8E  1395               	bcf	21,7	;volatile
 10826                           
 10827                           ;newmain1.c: 2041: _delay((unsigned long)((1)*(16000000/4000.0)));
 10828  0F8F  3006               	movlw	6
 10829  0F90  0020               	movlb	0	; select bank0
 10830  0F91  00C7               	movwf	??_main+1
 10831  0F92  3030               	movlw	48
 10832  0F93  00C6               	movwf	??_main
 10833  0F94                     u6737:	
 10834  0F94  0BC6               	decfsz	??_main,f
 10835  0F95  2F94               	goto	u6737
 10836  0F96  0BC7               	decfsz	??_main+1,f
 10837  0F97  2F94               	goto	u6737
 10838  0F98  0000               	nop
 10839                           
 10840                           ;newmain1.c: 2042: RC2STAbits.SPEN = 1;
 10841  0F99  0029               	movlb	9	; select bank9
 10842  0F9A  1795               	bsf	21,7	;volatile
 10843                           
 10844                           ;newmain1.c: 2044: send_usart_packet_manage(253, 253);
 10845  0F9B  30FD               	movlw	253
 10846  0F9C  00F3               	movwf	send_usart_packet_manage@Data_carry
 10847  0F9D  3000               	movlw	0
 10848  0F9E  00F4               	movwf	send_usart_packet_manage@Data_carry+1
 10849  0F9F  30FD               	movlw	253
 10850  0FA0  3195  2549  3188   	fcall	_send_usart_packet_manage
 10851                           
 10852                           ;newmain1.c: 2045: Data_Temp_Work_int = receive_data_bytes(1000);
 10853  0FA3  30E8               	movlw	232
 10854  0FA4  0020               	movlb	0	; select bank0
 10855  0FA5  00A7               	movwf	receive_data_bytes@time_out_first_byte
 10856  0FA6  3003               	movlw	3
 10857  0FA7  00A8               	movwf	receive_data_bytes@time_out_first_byte+1
 10858  0FA8  3182  221D  3188   	fcall	_receive_data_bytes
 10859  0FAB  0020               	movlb	0	; select bank0
 10860  0FAC  0828               	movf	?_receive_data_bytes+1,w
 10861  0FAD  00CC               	movwf	_Data_Temp_Work_int+1
 10862  0FAE  0827               	movf	?_receive_data_bytes,w
 10863  0FAF  00CB               	movwf	_Data_Temp_Work_int
 10864                           
 10865                           ;newmain1.c: 2046: _delay((unsigned long)((500)*(16000000/4000.0)));
 10866  0FB0  300B               	movlw	11
 10867  0FB1  00C8               	movwf	??_main+2
 10868  0FB2  3026               	movlw	38
 10869  0FB3  00C7               	movwf	??_main+1
 10870  0FB4  3066               	movlw	102
 10871  0FB5  00C6               	movwf	??_main
 10872  0FB6                     u6747:	
 10873  0FB6  0BC6               	decfsz	??_main,f
 10874  0FB7  2FB6               	goto	u6747
 10875  0FB8  0BC7               	decfsz	??_main+1,f
 10876  0FB9  2FB6               	goto	u6747
 10877  0FBA  0BC8               	decfsz	??_main+2,f
 10878  0FBB  2FB6               	goto	u6747
 10879  0FBC  3200               	nop2
 10880                           
 10881                           ;newmain1.c: 2048: print_screen("Test Pass", "");
 10882  0FBD  300E               	movlw	low (STR_125| (0+32768))
 10883  0FBE  00F6               	movwf	print_screen@top
 10884  0FBF  3093               	movlw	high (STR_125| (0+32768))
 10885  0FC0  00F7               	movwf	print_screen@top+1
 10886  0FC1  309F               	movlw	low ((STR_143+4)| (0+32768))
 10887  0FC2  00F8               	movwf	print_screen@bottom
 10888  0FC3  3093               	movlw	high ((STR_143+4)| (0+32768))
 10889  0FC4  00F9               	movwf	print_screen@bottom+1
 10890  0FC5  319F  27E9  3188   	fcall	_print_screen
 10891                           
 10892                           ;newmain1.c: 2049: power_supply_set(4);
 10893  0FC8  3004               	movlw	4
 10894  0FC9  3194  24DA  3188   	fcall	_power_supply_set
 10895                           
 10896                           ;newmain1.c: 2051: buzz_timer = 500 ; LATC5 = 1;
 10897  0FCC  30F4               	movlw	244
 10898  0FCD  0020               	movlb	0	; select bank0
 10899  0FCE  00CD               	movwf	_buzz_timer	;volatile
 10900  0FCF  3001               	movlw	1
 10901  0FD0  00CE               	movwf	_buzz_timer+1	;volatile
 10902  0FD1  0022               	movlb	2	; select bank2
 10903  0FD2  168E               	bsf	14,5	;volatile
 10904  0FD3                     l517:	
 10905                           ;newmain1.c: 2052: while(LATC5 == 1);
 10906                           
 10907  0FD3  1A8E               	btfsc	14,5	;volatile
 10908  0FD4  2FD3               	goto	l517
 10909                           
 10910                           ;newmain1.c: 2053: _delay((unsigned long)((200)*(16000000/4000.0)));
 10911  0FD5  3005               	movlw	5
 10912  0FD6  0020               	movlb	0	; select bank0
 10913  0FD7  00C8               	movwf	??_main+2
 10914  0FD8  300F               	movlw	15
 10915  0FD9  00C7               	movwf	??_main+1
 10916  0FDA  30F4               	movlw	244
 10917  0FDB  00C6               	movwf	??_main
 10918  0FDC                     u6757:	
 10919  0FDC  0BC6               	decfsz	??_main,f
 10920  0FDD  2FDC               	goto	u6757
 10921  0FDE  0BC7               	decfsz	??_main+1,f
 10922  0FDF  2FDC               	goto	u6757
 10923  0FE0  0BC8               	decfsz	??_main+2,f
 10924  0FE1  2FDC               	goto	u6757
 10925                           
 10926                           ;newmain1.c: 2054: buzz_timer = 500 ; LATC5 = 1;
 10927  0FE2  30F4               	movlw	244
 10928  0FE3  0020               	movlb	0	; select bank0
 10929  0FE4  00CD               	movwf	_buzz_timer	;volatile
 10930  0FE5  3001               	movlw	1
 10931  0FE6  00CE               	movwf	_buzz_timer+1	;volatile
 10932  0FE7  0022               	movlb	2	; select bank2
 10933  0FE8  168E               	bsf	14,5	;volatile
 10934  0FE9                     l520:	
 10935                           ;newmain1.c: 2055: while(LATC5 == 1);
 10936                           
 10937  0FE9  1A8E               	btfsc	14,5	;volatile
 10938  0FEA  2FE9               	goto	l520
 10939                           
 10940                           ;newmain1.c: 2056: _delay((unsigned long)((200)*(16000000/4000.0)));
 10941  0FEB  3005               	movlw	5
 10942  0FEC  0020               	movlb	0	; select bank0
 10943  0FED  00C8               	movwf	??_main+2
 10944  0FEE  300F               	movlw	15
 10945  0FEF  00C7               	movwf	??_main+1
 10946  0FF0  30F4               	movlw	244
 10947  0FF1  00C6               	movwf	??_main
 10948  0FF2                     u6767:	
 10949  0FF2  0BC6               	decfsz	??_main,f
 10950  0FF3  2FF2               	goto	u6767
 10951  0FF4  0BC7               	decfsz	??_main+1,f
 10952  0FF5  2FF2               	goto	u6767
 10953  0FF6  0BC8               	decfsz	??_main+2,f
 10954  0FF7  2FF2               	goto	u6767
 10955                           
 10956                           ;newmain1.c: 2057: buzz_timer = 1000 ; LATC5 = 1;
 10957  0FF8  30E8               	movlw	232
 10958  0FF9  0020               	movlb	0	; select bank0
 10959  0FFA  00CD               	movwf	_buzz_timer	;volatile
 10960  0FFB  3003               	movlw	3
 10961  0FFC  00CE               	movwf	_buzz_timer+1	;volatile
 10962  0FFD  0022               	movlb	2	; select bank2
 10963  0FFE  168E               	bsf	14,5	;volatile
 10964  0FFF                     l523:	
 10965                           ;newmain1.c: 2059: while(1)
 10966                           
 10967                           
 10968                           ;newmain1.c: 2060: {}
 10969  0FFF  2FFF               	goto	l523
 10970  1000                     __end_of_main:	


Data Sizes:
    Strings     926
    Constant    2
    Data        67
    BSS         75
    Persistent  0
    Stack       0

Auto Spaces:
    Space          Size  Autos    Used
    COMMON           14     10      12
    BANK0            80     41      80
    BANK1            80      0      78
    BANK2            80      0      24
    BANK3            80      0       0
    BANK4            80      0       0
    BANK5            80      0       0
    BANK6            80      0       0
    BANK7            80      0       0
    BANK8            80      0       0
    BANK9            80      0       0
    BANK10           80      0       0
    BANK11           80      0       0
    BANK12           80      0       0
    BANK13           80      0       0
    BANK14           80      0       0
    BANK15           80      0       0
    BANK16           80      0       0
    BANK17           80      0       0
    BANK18           80      0       0

Pointer List with Targets:

    print_screen@bottom	PTR const unsigned char  size(2) Largest target is 22
		 -> STR_158(CODE[17]), STR_156(CODE[14]), STR_154(CODE[14]), STR_152(CODE[14]), 
		 -> STR_150(CODE[14]), STR_148(CODE[8]), STR_146(CODE[9]), STR_144(CODE[9]), 
		 -> STR_142(CODE[9]), STR_140(CODE[17]), STR_136(CODE[14]), STR_134(CODE[14]), 
		 -> STR_132(CODE[14]), STR_130(CODE[14]), STR_128(CODE[14]), STR_126(CODE[1]), 
		 -> STR_116(CODE[1]), STR_112(CODE[10]), STR_92(CODE[14]), STR_88(CODE[13]), 
		 -> STR_86(CODE[16]), STR_84(CODE[16]), STR_82(CODE[16]), STR_80(CODE[16]), 
		 -> STR_78(CODE[10]), STR_76(CODE[10]), STR_54(CODE[14]), STR_34(CODE[9]), 
		 -> STR_28(CODE[1]), STR_26(CODE[1]), STR_22(CODE[1]), STR_18(CODE[10]), 
		 -> STR_14(CODE[2]), STR_12(CODE[22]), STR_10(CODE[9]), STR_8(CODE[22]), 
		 -> STR_6(CODE[17]), 

    print_screen@top	PTR const unsigned char  size(2) Largest target is 18
		 -> STR_157(CODE[12]), STR_155(CODE[16]), STR_153(CODE[16]), STR_151(CODE[12]), 
		 -> STR_149(CODE[15]), STR_147(CODE[13]), STR_145(CODE[16]), STR_143(CODE[5]), 
		 -> STR_141(CODE[8]), STR_139(CODE[17]), STR_135(CODE[10]), STR_133(CODE[18]), 
		 -> STR_131(CODE[16]), STR_129(CODE[9]), STR_127(CODE[12]), STR_125(CODE[10]), 
		 -> STR_115(CODE[16]), STR_111(CODE[8]), STR_91(CODE[8]), STR_87(CODE[8]), 
		 -> STR_85(CODE[10]), STR_83(CODE[9]), STR_81(CODE[14]), STR_79(CODE[13]), 
		 -> STR_77(CODE[6]), STR_75(CODE[6]), STR_53(CODE[8]), STR_33(CODE[12]), 
		 -> STR_27(CODE[3]), STR_25(CODE[13]), STR_21(CODE[13]), STR_17(CODE[10]), 
		 -> STR_13(CODE[15]), STR_11(CODE[16]), STR_9(CODE[6]), STR_7(CODE[16]), 
		 -> STR_5(CODE[13]), 

    print_error@bottom	PTR const unsigned char  size(2) Largest target is 17
		 -> STR_138(CODE[17]), STR_124(CODE[13]), STR_122(CODE[14]), STR_120(CODE[15]), 
		 -> STR_118(CODE[16]), STR_114(CODE[8]), STR_110(CODE[14]), STR_108(CODE[14]), 
		 -> STR_106(CODE[14]), STR_104(CODE[14]), STR_102(CODE[14]), STR_100(CODE[14]), 
		 -> STR_98(CODE[13]), STR_96(CODE[14]), STR_94(CODE[14]), STR_90(CODE[15]), 
		 -> STR_74(CODE[14]), STR_72(CODE[14]), STR_70(CODE[12]), STR_68(CODE[9]), 
		 -> STR_66(CODE[9]), STR_64(CODE[12]), STR_62(CODE[16]), STR_60(CODE[14]), 
		 -> STR_58(CODE[14]), STR_56(CODE[14]), STR_52(CODE[6]), STR_50(CODE[7]), 
		 -> STR_48(CODE[13]), STR_46(CODE[8]), STR_44(CODE[9]), STR_42(CODE[15]), 
		 -> STR_40(CODE[16]), STR_38(CODE[8]), STR_36(CODE[9]), STR_32(CODE[9]), 
		 -> STR_30(CODE[8]), STR_24(CODE[8]), STR_20(CODE[9]), STR_16(CODE[12]), 
		 -> STR_4(CODE[1]), STR_2(CODE[1]), 

    print_error@top	PTR const unsigned char  size(2) Largest target is 17
		 -> STR_137(CODE[17]), STR_123(CODE[12]), STR_121(CODE[12]), STR_119(CODE[11]), 
		 -> STR_117(CODE[11]), STR_113(CODE[9]), STR_109(CODE[12]), STR_107(CODE[12]), 
		 -> STR_105(CODE[12]), STR_103(CODE[12]), STR_101(CODE[12]), STR_99(CODE[12]), 
		 -> STR_97(CODE[12]), STR_95(CODE[12]), STR_93(CODE[12]), STR_89(CODE[6]), 
		 -> STR_73(CODE[6]), STR_71(CODE[6]), STR_69(CODE[6]), STR_67(CODE[6]), 
		 -> STR_65(CODE[6]), STR_63(CODE[6]), STR_61(CODE[6]), STR_59(CODE[6]), 
		 -> STR_57(CODE[6]), STR_55(CODE[6]), STR_51(CODE[15]), STR_49(CODE[15]), 
		 -> STR_47(CODE[15]), STR_45(CODE[9]), STR_43(CODE[9]), STR_41(CODE[11]), 
		 -> STR_39(CODE[11]), STR_37(CODE[13]), STR_35(CODE[13]), STR_31(CODE[11]), 
		 -> STR_29(CODE[11]), STR_23(CODE[15]), STR_19(CODE[10]), STR_15(CODE[6]), 
		 -> STR_3(CODE[15]), STR_1(CODE[14]), 

    i2c_Write_string@data	PTR const unsigned char  size(2) Largest target is 22
		 -> STR_158(CODE[17]), STR_157(CODE[12]), STR_156(CODE[14]), STR_155(CODE[16]), 
		 -> STR_154(CODE[14]), STR_153(CODE[16]), STR_152(CODE[14]), STR_151(CODE[12]), 
		 -> STR_150(CODE[14]), STR_149(CODE[15]), STR_148(CODE[8]), STR_147(CODE[13]), 
		 -> STR_146(CODE[9]), STR_145(CODE[16]), STR_144(CODE[9]), STR_143(CODE[5]), 
		 -> STR_142(CODE[9]), STR_141(CODE[8]), STR_140(CODE[17]), STR_139(CODE[17]), 
		 -> STR_138(CODE[17]), STR_137(CODE[17]), STR_136(CODE[14]), STR_135(CODE[10]), 
		 -> STR_134(CODE[14]), STR_133(CODE[18]), STR_132(CODE[14]), STR_131(CODE[16]), 
		 -> STR_130(CODE[14]), STR_129(CODE[9]), STR_128(CODE[14]), STR_127(CODE[12]), 
		 -> STR_126(CODE[1]), STR_125(CODE[10]), STR_124(CODE[13]), STR_123(CODE[12]), 
		 -> STR_122(CODE[14]), STR_121(CODE[12]), STR_120(CODE[15]), STR_119(CODE[11]), 
		 -> STR_118(CODE[16]), STR_117(CODE[11]), STR_116(CODE[1]), STR_115(CODE[16]), 
		 -> STR_114(CODE[8]), STR_113(CODE[9]), STR_112(CODE[10]), STR_111(CODE[8]), 
		 -> STR_110(CODE[14]), STR_109(CODE[12]), STR_108(CODE[14]), STR_107(CODE[12]), 
		 -> STR_106(CODE[14]), STR_105(CODE[12]), STR_104(CODE[14]), STR_103(CODE[12]), 
		 -> STR_102(CODE[14]), STR_101(CODE[12]), STR_100(CODE[14]), STR_99(CODE[12]), 
		 -> STR_98(CODE[13]), STR_97(CODE[12]), STR_96(CODE[14]), STR_95(CODE[12]), 
		 -> STR_94(CODE[14]), STR_93(CODE[12]), STR_92(CODE[14]), STR_91(CODE[8]), 
		 -> STR_90(CODE[15]), STR_89(CODE[6]), STR_88(CODE[13]), STR_87(CODE[8]), 
		 -> STR_86(CODE[16]), STR_85(CODE[10]), STR_84(CODE[16]), STR_83(CODE[9]), 
		 -> STR_82(CODE[16]), STR_81(CODE[14]), STR_80(CODE[16]), STR_79(CODE[13]), 
		 -> STR_78(CODE[10]), STR_77(CODE[6]), STR_76(CODE[10]), STR_75(CODE[6]), 
		 -> STR_74(CODE[14]), STR_73(CODE[6]), STR_72(CODE[14]), STR_71(CODE[6]), 
		 -> STR_70(CODE[12]), STR_69(CODE[6]), STR_68(CODE[9]), STR_67(CODE[6]), 
		 -> STR_66(CODE[9]), STR_65(CODE[6]), STR_64(CODE[12]), STR_63(CODE[6]), 
		 -> STR_62(CODE[16]), STR_61(CODE[6]), STR_60(CODE[14]), STR_59(CODE[6]), 
		 -> STR_58(CODE[14]), STR_57(CODE[6]), STR_56(CODE[14]), STR_55(CODE[6]), 
		 -> STR_54(CODE[14]), STR_53(CODE[8]), STR_52(CODE[6]), STR_51(CODE[15]), 
		 -> STR_50(CODE[7]), STR_49(CODE[15]), STR_48(CODE[13]), STR_47(CODE[15]), 
		 -> STR_46(CODE[8]), STR_45(CODE[9]), STR_44(CODE[9]), STR_43(CODE[9]), 
		 -> STR_42(CODE[15]), STR_41(CODE[11]), STR_40(CODE[16]), STR_39(CODE[11]), 
		 -> STR_38(CODE[8]), STR_37(CODE[13]), STR_36(CODE[9]), STR_35(CODE[13]), 
		 -> STR_34(CODE[9]), STR_33(CODE[12]), STR_32(CODE[9]), STR_31(CODE[11]), 
		 -> STR_30(CODE[8]), STR_29(CODE[11]), STR_28(CODE[1]), STR_27(CODE[3]), 
		 -> STR_26(CODE[1]), STR_25(CODE[13]), STR_24(CODE[8]), STR_23(CODE[15]), 
		 -> STR_22(CODE[1]), STR_21(CODE[13]), STR_20(CODE[9]), STR_19(CODE[10]), 
		 -> STR_18(CODE[10]), STR_17(CODE[10]), STR_16(CODE[12]), STR_15(CODE[6]), 
		 -> STR_14(CODE[2]), STR_13(CODE[15]), STR_12(CODE[22]), STR_11(CODE[16]), 
		 -> STR_10(CODE[9]), STR_9(CODE[6]), STR_8(CODE[22]), STR_7(CODE[16]), 
		 -> STR_6(CODE[17]), STR_5(CODE[13]), STR_4(CODE[1]), STR_3(CODE[15]), 
		 -> STR_2(CODE[1]), STR_1(CODE[14]), 


Critical Paths under _main in COMMON

    _main->_print_screen
    _send_usart_packet_manage->_EUSART1_Write
    _print_error->_print_screen
    _print_screen->_i2c_Write_string
    _i2c_second_line->_i2c_Write
    _i2c_first_line->_i2c_Write
    _i2c_Write_string->_i2c_Write
    _clear_lcd->_i2c_Write
    _lcd_print_int->_ten_thou_conv
    _ten_thou_conv->___wmul
    _lcd_set_cursor->_i2c_Write
    _i2c_write_char->_i2c_Write
    _init_i2c_lcd_5v->_i2c_Write
    ___lwtoft->___ftpack
    ___ftmul->___ftpack
    _Vout_set->_digitalpot
    _digitalpot->_i2c_Write

Critical Paths under _isr in COMMON

    None.

Critical Paths under _main in BANK0

    _main->_get_current
    _receive_data_bytes->_print_error
    _lcd_print_int->_ten_thou_conv
    _get_current->___fttol
    ___fttol->___ftmul
    ___ftmul->___lwtoft

Critical Paths under _isr in BANK0

    None.

Critical Paths under _main in BANK1

    None.

Critical Paths under _isr in BANK1

    None.

Critical Paths under _main in BANK2

    None.

Critical Paths under _isr in BANK2

    None.

Critical Paths under _main in BANK3

    None.

Critical Paths under _isr in BANK3

    None.

Critical Paths under _main in BANK4

    None.

Critical Paths under _isr in BANK4

    None.

Critical Paths under _main in BANK5

    None.

Critical Paths under _isr in BANK5

    None.

Critical Paths under _main in BANK6

    None.

Critical Paths under _isr in BANK6

    None.

Critical Paths under _main in BANK7

    None.

Critical Paths under _isr in BANK7

    None.

Critical Paths under _main in BANK8

    None.

Critical Paths under _isr in BANK8

    None.

Critical Paths under _main in BANK9

    None.

Critical Paths under _isr in BANK9

    None.

Critical Paths under _main in BANK10

    None.

Critical Paths under _isr in BANK10

    None.

Critical Paths under _main in BANK11

    None.

Critical Paths under _isr in BANK11

    None.

Critical Paths under _main in BANK12

    None.

Critical Paths under _isr in BANK12

    None.

Critical Paths under _main in BANK13

    None.

Critical Paths under _isr in BANK13

    None.

Critical Paths under _main in BANK14

    None.

Critical Paths under _isr in BANK14

    None.

Critical Paths under _main in BANK15

    None.

Critical Paths under _isr in BANK15

    None.

Critical Paths under _main in BANK16

    None.

Critical Paths under _isr in BANK16

    None.

Critical Paths under _main in BANK17

    None.

Critical Paths under _isr in BANK17

    None.

Critical Paths under _main in BANK18

    None.

Critical Paths under _isr in BANK18

    None.

Call Graph Tables:

 ---------------------------------------------------------------------------------
 (Depth) Function   	        Calls       Base Space   Used Autos Params    Refs
 ---------------------------------------------------------------------------------
 (0) _main                                                 3     3      0   47218
                                             38 BANK0      3     3      0
                        _ADC_get_val
                           _Vout_set
                           _buzz_one
                      _debug_fast_tx
                        _get_current
                           _init_ADC
                  _init_current_sink
                           _init_i2c
                    _init_i2c_lcd_5v
                         _init_uart1
                         _init_uart2
                      _lcd_print_int
                   _power_supply_set
                        _print_error
                       _print_screen
                 _receive_data_bytes
           _send_usart_packet_manage
 ---------------------------------------------------------------------------------
 (1) _send_usart_packet_manage                            15    13      2    3888
                                              3 COMMON     2     0      2
                                              0 BANK0     13    13      0
                      _EUSART1_Write
 ---------------------------------------------------------------------------------
 (2) _EUSART1_Write                                        1     1      0      22
                                              2 COMMON     1     1      0
 ---------------------------------------------------------------------------------
 (1) _receive_data_bytes                                  21    19      2   15910
                                              7 BANK0     19    17      2
                   _manage_read_byte
                        _print_error
 ---------------------------------------------------------------------------------
 (2) _print_error                                          7     3      4   12041
                                              0 BANK0      7     3      4
                           _buzz_one
                          _clear_lcd
                      _debug_fast_tx
                   _i2c_Write_string
                     _i2c_first_line
                    _i2c_second_line
                   _power_supply_set
                       _print_screen
 ---------------------------------------------------------------------------------
 (3) _print_screen                                         4     0      4    5321
                                              6 COMMON     4     0      4
                          _clear_lcd
                   _i2c_Write_string
                     _i2c_first_line
                    _i2c_second_line
 ---------------------------------------------------------------------------------
 (4) _i2c_second_line                                      1     1      0      31
                                              3 COMMON     1     1      0
                          _i2c_Start
                           _i2c_Stop
                          _i2c_Write
 ---------------------------------------------------------------------------------
 (4) _i2c_first_line                                       1     1      0      31
                                              3 COMMON     1     1      0
                          _i2c_Start
                           _i2c_Stop
                          _i2c_Write
 ---------------------------------------------------------------------------------
 (4) _i2c_Write_string                                     3     1      2     356
                                              3 COMMON     3     1      2
                          _i2c_Start
                           _i2c_Stop
                          _i2c_Write
 ---------------------------------------------------------------------------------
 (4) _clear_lcd                                            2     2      0      31
                                              3 COMMON     2     2      0
                          _i2c_Start
                           _i2c_Stop
                          _i2c_Write
 ---------------------------------------------------------------------------------
 (3) _power_supply_set                                     1     1      0      22
                                              2 COMMON     1     1      0
 ---------------------------------------------------------------------------------
 (3) _debug_fast_tx                                        5     3      2     515
                                              2 COMMON     5     3      2
 ---------------------------------------------------------------------------------
 (3) _buzz_one                                             2     0      2     212
                                              2 COMMON     2     0      2
 ---------------------------------------------------------------------------------
 (2) _manage_read_byte                                     1     1      0      22
                                              2 COMMON     1     1      0
 ---------------------------------------------------------------------------------
 (1) _lcd_print_int                                        7     1      6    4484
                                              6 BANK0      7     1      6
                     _i2c_write_char
                     _lcd_set_cursor
                      _ten_thou_conv
 ---------------------------------------------------------------------------------
 (2) _ten_thou_conv                                        8     6      2    2286
                                              8 COMMON     2     0      2
                                              0 BANK0      6     6      0
                             ___bmul
                             ___wmul
 ---------------------------------------------------------------------------------
 (3) ___wmul                                               6     2      4    1364
                                              2 COMMON     6     2      4
 ---------------------------------------------------------------------------------
 (3) ___bmul                                               4     3      1     781
                                              2 COMMON     4     3      1
 ---------------------------------------------------------------------------------
 (2) _lcd_set_cursor                                       4     3      1     204
                                              3 COMMON     4     3      1
                          _i2c_Start
                           _i2c_Stop
                          _i2c_Write
 ---------------------------------------------------------------------------------
 (2) _i2c_write_char                                       1     1      0      62
                                              3 COMMON     1     1      0
                          _i2c_Start
                           _i2c_Stop
                          _i2c_Write
 ---------------------------------------------------------------------------------
 (1) _init_uart2                                           0     0      0       0
 ---------------------------------------------------------------------------------
 (1) _init_uart1                                           0     0      0       0
 ---------------------------------------------------------------------------------
 (1) _init_i2c_lcd_5v                                      4     3      1     189
                                              3 COMMON     4     3      1
                          _i2c_Start
                           _i2c_Stop
                          _i2c_Write
 ---------------------------------------------------------------------------------
 (1) _init_i2c                                             3     3      0       0
                                              2 COMMON     3     3      0
 ---------------------------------------------------------------------------------
 (1) _init_current_sink                                    0     0      0       0
 ---------------------------------------------------------------------------------
 (1) _init_ADC                                             0     0      0       0
 ---------------------------------------------------------------------------------
 (1) _get_current                                          4     2      2    4375
                                             34 BANK0      4     2      2
                        _ADC_get_val
                            ___ftmul
                            ___fttol
                           ___lwtoft
 ---------------------------------------------------------------------------------
 (2) ___lwtoft                                             4     1      3    1790
                                              0 BANK0      4     1      3
                           ___ftpack
 ---------------------------------------------------------------------------------
 (2) ___fttol                                             14    10      4     305
                                             20 BANK0     14    10      4
                            ___ftmul (ARG)
                           ___lwtoft (ARG)
 ---------------------------------------------------------------------------------
 (2) ___ftmul                                             16    10      6    2167
                                              4 BANK0     16    10      6
                           ___ftpack
                           ___lwtoft (ARG)
 ---------------------------------------------------------------------------------
 (3) ___ftpack                                             8     3      5    1629
                                              2 COMMON     8     3      5
 ---------------------------------------------------------------------------------
 (2) _ADC_get_val                                          7     5      2      45
                                              2 COMMON     7     5      2
 ---------------------------------------------------------------------------------
 (1) _Vout_set                                             6     4      2     216
                                              6 COMMON     2     0      2
                                              0 BANK0      4     4      0
                         _digitalpot
 ---------------------------------------------------------------------------------
 (2) _digitalpot                                           3     3      0      62
                                              3 COMMON     3     3      0
                          _i2c_Start
                           _i2c_Stop
                          _i2c_Write
 ---------------------------------------------------------------------------------
 (5) _i2c_Write                                            1     1      0      31
                                              2 COMMON     1     1      0
 ---------------------------------------------------------------------------------
 (5) _i2c_Stop                                             0     0      0       0
 ---------------------------------------------------------------------------------
 (5) _i2c_Start                                            0     0      0       0
 ---------------------------------------------------------------------------------
 Estimated maximum stack depth 5
 ---------------------------------------------------------------------------------
 (Depth) Function   	        Calls       Base Space   Used Autos Params    Refs
 ---------------------------------------------------------------------------------
 (6) _isr                                                  2     2      0       0
                                              0 COMMON     2     2      0
 ---------------------------------------------------------------------------------
 Estimated maximum stack depth 6
 ---------------------------------------------------------------------------------

 Call Graph Graphs:

 _main (ROOT)
   _ADC_get_val
   _Vout_set
     _digitalpot
       _i2c_Start
       _i2c_Stop
       _i2c_Write
   _buzz_one
   _debug_fast_tx
   _get_current
     _ADC_get_val
     ___ftmul
       ___ftpack
       ___lwtoft (ARG)
         ___ftpack
     ___fttol
       ___ftmul (ARG)
         ___ftpack
         ___lwtoft (ARG)
           ___ftpack
       ___lwtoft (ARG)
         ___ftpack
     ___lwtoft
       ___ftpack
   _init_ADC
   _init_current_sink
   _init_i2c
   _init_i2c_lcd_5v
     _i2c_Start
     _i2c_Stop
     _i2c_Write
   _init_uart1
   _init_uart2
   _lcd_print_int
     _i2c_write_char
       _i2c_Start
       _i2c_Stop
       _i2c_Write
     _lcd_set_cursor
       _i2c_Start
       _i2c_Stop
       _i2c_Write
     _ten_thou_conv
       ___bmul
       ___wmul
   _power_supply_set
   _print_error
     _buzz_one
     _clear_lcd
       _i2c_Start
       _i2c_Stop
       _i2c_Write
     _debug_fast_tx
     _i2c_Write_string
       _i2c_Start
       _i2c_Stop
       _i2c_Write
     _i2c_first_line
       _i2c_Start
       _i2c_Stop
       _i2c_Write
     _i2c_second_line
       _i2c_Start
       _i2c_Stop
       _i2c_Write
     _power_supply_set
     _print_screen
       _clear_lcd
         _i2c_Start
         _i2c_Stop
         _i2c_Write
       _i2c_Write_string
         _i2c_Start
         _i2c_Stop
         _i2c_Write
       _i2c_first_line
         _i2c_Start
         _i2c_Stop
         _i2c_Write
       _i2c_second_line
         _i2c_Start
         _i2c_Stop
         _i2c_Write
   _print_screen
     _clear_lcd
       _i2c_Start
       _i2c_Stop
       _i2c_Write
     _i2c_Write_string
       _i2c_Start
       _i2c_Stop
       _i2c_Write
     _i2c_first_line
       _i2c_Start
       _i2c_Stop
       _i2c_Write
     _i2c_second_line
       _i2c_Start
       _i2c_Stop
       _i2c_Write
   _receive_data_bytes
     _manage_read_byte
     _print_error
       _buzz_one
       _clear_lcd
         _i2c_Start
         _i2c_Stop
         _i2c_Write
       _debug_fast_tx
       _i2c_Write_string
         _i2c_Start
         _i2c_Stop
         _i2c_Write
       _i2c_first_line
         _i2c_Start
         _i2c_Stop
         _i2c_Write
       _i2c_second_line
         _i2c_Start
         _i2c_Stop
         _i2c_Write
       _power_supply_set
       _print_screen
         _clear_lcd
           _i2c_Start
           _i2c_Stop
           _i2c_Write
         _i2c_Write_string
           _i2c_Start
           _i2c_Stop
           _i2c_Write
         _i2c_first_line
           _i2c_Start
           _i2c_Stop
           _i2c_Write
         _i2c_second_line
           _i2c_Start
           _i2c_Stop
           _i2c_Write
   _send_usart_packet_manage
     _EUSART1_Write

 _isr (ROOT)

 Address spaces:
Name               Size   Autos  Total    Cost      Usage
BIGRAM             5F0      0       0       0        0.0%
NULL                 0      0       0       0        0.0%
CODE                 0      0       0       0        0.0%
BITCOMMON            E      0       1       1        7.1%
BITSFR0              0      0       0       1        0.0%
SFR0                 0      0       0       1        0.0%
COMMON               E      A       C       2       85.7%
BITSFR1              0      0       0       2        0.0%
SFR1                 0      0       0       2        0.0%
BITSFR2              0      0       0       3        0.0%
SFR2                 0      0       0       3        0.0%
STACK                0      0       0       3        0.0%
BITBANK0            50      0       0       4        0.0%
BITSFR3              0      0       0       4        0.0%
SFR3                 0      0       0       4        0.0%
BANK0               50     29      50       5      100.0%
BITSFR4              0      0       0       5        0.0%
SFR4                 0      0       0       5        0.0%
BITBANK1            50      0       0       6        0.0%
BITSFR5              0      0       0       6        0.0%
SFR5                 0      0       0       6        0.0%
BANK1               50      0      4E       7       97.5%
BITSFR6              0      0       0       7        0.0%
SFR6                 0      0       0       7        0.0%
BITBANK2            50      0       0       8        0.0%
BITSFR7              0      0       0       8        0.0%
SFR7                 0      0       0       8        0.0%
BANK2               50      0      18       9       30.0%
BITSFR8              0      0       0       9        0.0%
SFR8                 0      0       0       9        0.0%
BITBANK3            50      0       0      10        0.0%
BITSFR9              0      0       0      10        0.0%
SFR9                 0      0       0      10        0.0%
BANK3               50      0       0      11        0.0%
BITSFR10             0      0       0      11        0.0%
SFR10                0      0       0      11        0.0%
BITBANK4            50      0       0      12        0.0%
BITSFR11             0      0       0      12        0.0%
SFR11                0      0       0      12        0.0%
BANK4               50      0       0      13        0.0%
BITSFR12             0      0       0      13        0.0%
SFR12                0      0       0      13        0.0%
BITBANK5            50      0       0      14        0.0%
BITSFR13             0      0       0      14        0.0%
SFR13                0      0       0      14        0.0%
BANK5               50      0       0      15        0.0%
BITSFR14             0      0       0      15        0.0%
SFR14                0      0       0      15        0.0%
BITSFR15             0      0       0      16        0.0%
SFR15                0      0       0      16        0.0%
ABS                  0      0      C2      16        0.0%
BITBANK6            50      0       0      17        0.0%
BITSFR16             0      0       0      17        0.0%
SFR16                0      0       0      17        0.0%
BANK6               50      0       0      18        0.0%
BITSFR17             0      0       0      18        0.0%
SFR17                0      0       0      18        0.0%
BITBANK7            50      0       0      19        0.0%
BITSFR18             0      0       0      19        0.0%
SFR18                0      0       0      19        0.0%
BANK7               50      0       0      20        0.0%
BITSFR19             0      0       0      20        0.0%
SFR19                0      0       0      20        0.0%
BITBANK8            50      0       0      21        0.0%
BITSFR20             0      0       0      21        0.0%
SFR20                0      0       0      21        0.0%
BANK8               50      0       0      22        0.0%
BITSFR21             0      0       0      22        0.0%
SFR21                0      0       0      22        0.0%
BITBANK9            50      0       0      23        0.0%
BITSFR22             0      0       0      23        0.0%
SFR22                0      0       0      23        0.0%
BANK9               50      0       0      24        0.0%
BITSFR23             0      0       0      24        0.0%
SFR23                0      0       0      24        0.0%
BITBANK10           50      0       0      25        0.0%
BITSFR24             0      0       0      25        0.0%
SFR24                0      0       0      25        0.0%
BANK10              50      0       0      26        0.0%
BITSFR25             0      0       0      26        0.0%
SFR25                0      0       0      26        0.0%
BITBANK11           50      0       0      27        0.0%
BITSFR26             0      0       0      27        0.0%
SFR26                0      0       0      27        0.0%
BITSFR27             0      0       0      28        0.0%
SFR27                0      0       0      28        0.0%
DATA                 0      0      C2      28        0.0%
BANK11              50      0       0      29        0.0%
BITSFR28             0      0       0      29        0.0%
SFR28                0      0       0      29        0.0%
BITBANK12           50      0       0      30        0.0%
BITSFR29             0      0       0      30        0.0%
SFR29                0      0       0      30        0.0%
BANK12              50      0       0      31        0.0%
BITSFR30             0      0       0      31        0.0%
SFR30                0      0       0      31        0.0%
BITBANK13           50      0       0      32        0.0%
BITSFR31             0      0       0      32        0.0%
SFR31                0      0       0      32        0.0%
BANK13              50      0       0      33        0.0%
BITBANK14           50      0       0      34        0.0%
BANK14              50      0       0      35        0.0%
BITBANK15           50      0       0      36        0.0%
BANK15              50      0       0      37        0.0%
BITBANK16           50      0       0      38        0.0%
BANK16              50      0       0      39        0.0%
BITBANK17           50      0       0      40        0.0%
BANK17              50      0       0      41        0.0%
BITBANK18           50      0       0      42        0.0%
BANK18              50      0       0      43        0.0%


Microchip Technology PIC Macro Assembler V1.35 build -356382666 
Symbol Table                                                                                   Thu Mar 26 20:15:11 2020

                       _motor_direction_timer 0051                                    __CFG_CP$ON 0000  
             receive_data_bytes@data_low_byte 0037                           ??_init_current_sink 0072  
                                           pc 0002                                ___bmul@product 0074  
                            _power_supply_set 14DA                           ___wmul@multiplicand 0074  
                                         l422 03D6                                           l335 07F9  
                                         l431 044C                                           l600 15B9  
                                         l344 1443                                           l520 0FE9  
                                         l425 0437                                           l523 0FFF  
                                         l428 0683                                           l349 1456  
                                         l517 0FD3                                           l429 06A9  
                                         l810 14F8                                           l805 14DC  
                                         l575 1F64                                           l807 14E0  
                                         l584 1F36                                           l808 14E8  
                                         l569 1F31                                           l833 151E  
                                         l809 14F0                                           l834 1537  
                                         l784 1418                                           l696 07F2  
                                         l866 13DA                                           _GIE 005F  
                                         _RA0 0060                                           _RA1 0061  
                                         _RB0 0068                                           _RA4 0064  
                                         _RA5 0065                             ??_i2c_second_line 0073  
                                         _RE0 0080                                           _RF2 1462  
                                         _RG3 146B                                           _RE7 0087  
                                         _PR2 001B                                           _PR8 0596  
                                         _isr 0004                                           _ten 006A  
                                __CFG_BORV$HI 0000                                           wreg 0009  
                              ?_lcd_print_int 0026                            _receive_data_bytes 021D  
                     __size_of_i2c_write_char 0013                                          S6720 1820  
                                        S6718 1800                               ?_lcd_set_cursor 0073  
                                __CFG_LVP$OFF 0000                     __end_of_init_current_sink 1FBB  
                                        l1034 166C                                          l1035 1674  
                                        l1027 1659                                          l1118 064B  
                                        l3324 1502                                          l3350 13D4  
                                        l3432 145E                                          l3344 1525  
                                        l3418 144E                                          l3380 162F  
                                        l3612 05F7                                          l3364 1F6F  
                                        l3630 0627                                          l6006 08DC  
                                        l3384 1636                                          l3640 064E  
                                        l3632 0635                                          l3368 1F75  
                                        l6016 08FD                                          l3394 165E  
                                        l3386 1640                                          l3562 0305  
                                        l5252 1F66                                          l3396 1666  
                                        l3388 1645                                          l3580 0356  
                                        l3644 065C                                          l5412 022C  
                                        l5404 0220                                          l5500 02E2  
                                        l6300 0E3C                                          l3638 0642  
                                        l5270 147F                                          l5318 15E7  
                                        l5406 0226                                          l6118 0B19  
                                        l6062 09FB                                          l3592 0372  
                                        l3584 035E                                          l3568 031B  
                                        l5360 149C                                          l5600 07C8  
                                        l5424 023C                                          l6224 0CF2  
                                        l6208 0C97                                          l6128 0B39  
                                        l6072 0A1B                                          l5362 14A0  
                                        l6154 0BA3                                          l6146 0B83  
                                        l5540 16AD                                          l3596 037A  
                                        l5268 146B                                          l5460 026C  
                                        l5436 024C                                          l6324 0EBA  
                                        l6252 0D95                                          l6180 0C0D  
                                        l6172 0BEC                                          l5542 16B5  
                                        l5534 1695                                          l5526 15B1  
                                        l5606 07D3                                          l5470 027D  
                                        l6342 0F06                                          l6270 0DC2  
                                        l6238 0D45                                          l5544 16BD  
                                        l5536 169D                                          l5552 16D6  
                                        l5616 07E4                                          l5472 027F  
                                        l5448 025C                                          l6360 0F4E  
                                        l6264 0DB3                                          l5546 16C5  
                                        l5538 16A5                                          l5554 16F2  
                                        l5618 07E7                                          l5570 0793  
                                        l5490 02CB                                          l5482 02AE  
                                        l6354 0F30                                          l6338 0EF3  
                                        l6258 0DA4                                          l5548 16CD  
                                        l5572 0797                                          l5484 02B7  
                                        l5590 07B7                                          l5582 07A9  
                                        l5494 02D2                                          l6366 0F63  
                                        l6358 0F0E                                          l6294 0E2D  
                                        l5910 17B8                                          l5902 179C  
                                        l5830 04B3                                          l5806 06EA  
                                        l5584 07AC                                          l5576 079E  
                                        l5568 0790                                          l6288 0E1E  
                                        l6722 16DB                                          l5922 17E2  
                                        l5914 17C6                                          l5906 17AA  
                                        l5842 04DF                                          l5826 04A0  
                                        l5860 0529                                          l5764 03CB  
                                        ?_isr 0070                                          l5598 07C5  
                                        l5934 1707                                          l5918 17D4  
                                        l5846 04F2                                          l5766 03D7  
                                        l5864 053C                                          l5784 042D  
                                        l5962 1765                                          l5948 1736  
                                        l5892 0764                                          l5876 070A  
                                        l5888 0751                                          l5994 08B1  
                                        l5986 0890                                          l5978 0867  
                                        STR_1 11C3                                          STR_2 139F  
                                        STR_3 1119                                          STR_4 139F  
                                        STR_5 1249                                          STR_6 103B  
                                        STR_7 106E                                          STR_8 1002  
                                        STR_9 10D7                                          u3015 0643  
                                        u2505 13DB                                          u2515 13E0  
                                        u2460 1523                                          u2615 1661  
                                        u2805 01F2                                          u2655 167B  
                                        u2575 163B                                          u2745 010F  
                                        u2595 1654                                          u2915 037B  
                                        u2755 011F                                          u6107 03FB  
                                        u2925 0381                                          u2845 0327  
                                        u2765 012F                                          u6117 040C  
                                        u2855 0337                                          u2775 0156  
                                        u6207 170F                                          u6127 0421  
                                        u2785 019C                                          u6217 173E  
                                        u6137 045E                                          u2875 035F  
                                        u2955 05FE                                          u2795 01D7  
                                        u6307 094B                                          u6227 176C  
                                        u6147 0472                                          u6067 05C3  
                                        u2885 0365                                          u6317 0969  
                                        u6237 0840                                          u6157 04BD  
                                        u6077 05D3                                          u6407 0A87  
                                        u6327 0987                                          u6247 0880  
                                        u6167 04FC                                          u6087 03A4  
                                        u2985 0628                                          u6417 0AA5  
                                        u6337 09A5                                          u6257 0895  
                                        u6177 0545                                          u6097 03EB  
                                        u4835 02AA                                          u6507 0BC7  
                                        u6427 0AC3                                          u6347 09C3  
                                        u6267 08B5                                          u6187 0713  
                                        u6517 0BF1                                          u6437 0AE1  
                                        u6357 09E1                                          u6277 08E1  
                                        u6197 17E9                                          u6607 0D4A  
                                        u6527 0C11                                          u6447 0AFF  
                                        u6367 09FF                                          u6287 0901  
                                        u6617 0D6A                                          u6537 0C3D  
                                        u6457 0B1D                                          u6377 0A1F  
                                        u6297 092D                                          u6707 0F6C  
                                        u6627 0DC7                                          u6547 0C5D  
                                        u6467 0B3D                                          u6387 0A4B  
                                        u6717 0F7C                                          u6637 0DE7  
                                        u6557 0C7E                                          u6477 0B69  
                                        u6397 0A69                                          u6807 1FCC  
                                        u6727 0F88                                          u6647 0E08  
                                        u6567 0C9C                                          u6487 0B87  
                                        u6817 1400                                          u6737 0F94  
                                        u6657 0E41                                          u6577 0CC6  
                                        u6497 0BA7                                          u6827 15C9  
                                        u6747 0FB6                                          u6667 0E60  
                                        u6587 0CF7                                          u6837 13AA  
                                        u6757 0FDC                                          u6677 0E8F  
                                        u6597 0D17                                          u6847 1411  
                                        u6767 0FF2                                          u6687 0ED1  
                                        u6857 143B                                          u6777 1607  
                                        u6697 0F47                                          u6787 161F  
                                        u6797 1FE3                                          _TMR0 0015  
                                        _WPUB 020D                                          _WPUD 020F  
                                        _WPUE 0210                                 _EUSART1_Write 07F8  
                                __CFG_WRT$OFF 0000                           ?_receive_data_bytes 0027  
                                        _main 0556                                  ___ftpack@arg 0072  
                                 _usart_timer 005F                             _button_beep_delay 006F  
                                        _hund 0069                                  ___ftpack@exp 0075  
                                        _thou 006B                                          fsr0h 0005  
                                        fsr1h 0007                                          fsr0l 0004  
                                        indf0 0000                                          fsr1l 0006  
                                        _unit 006C                                          btemp 007E  
                               __CFG_BOREN$ON 0000                                          ltemp 007E  
                                        start 00C8                                          ttemp 007E  
                                        wtemp 007E                                 __CFG_IESO$OFF 0000  
                     i2c_write_char@char_data 0073                             ___bmul@multiplier 0075  
                               __CFG_MCLRE$ON 0000                                   _voltage_req 00EC  
                                ___ftmul@cntr 0032                                  ___ftmul@sign 0033  
                             _voltage_outcome 00EA                               digitalpot@value 0075  
                        __size_of_ADC_get_val 001C                       __end_of_init_i2c_lcd_5v 15D1  
                                ___fttol@exp1 0041                                  ___fttol@lval 003D  
                                       ??_isr 0070                                  _trip_current 00E4  
                              _i2c_first_line 1FBB                        _uart_buff_work_recieve 00C8  
                        ??_receive_data_bytes 0029                                         ?_main 0070  
                                       STR_10 1346                                         STR_11 106E  
                                       STR_12 1002                                         STR_20 134F  
                                       STR_21 11FB                                         STR_13 10CE  
                                       STR_22 139F                                         STR_14 139E  
                                       STR_30 137A                                         STR_31 12D0  
                                       STR_15 1389                                         STR_23 10EC  
                                       STR_32 134F                                         STR_24 137A  
                                       STR_16 12B8                                         STR_40 107E  
                                       STR_41 12DB                                         STR_17 12F0  
                                       STR_33 1288                                         STR_25 1256  
                                       STR_26 139F                                         STR_50 1382  
                                       STR_34 133D                                         STR_18 1318  
                                       STR_42 1128                                         STR_51 110A  
                                       STR_19 1318                                         STR_27 1260  
                                       STR_43 132B                                         STR_35 1215  
                                       STR_28 139F                                         STR_44 134F  
                                       STR_36 134F                                         STR_52 1395  
                                       STR_60 11D1                                         STR_45 132B  
                                       STR_37 1215                                         STR_61 1389  
                                       STR_53 1372                                         STR_29 12D0  
                                       STR_70 12C4                                         STR_46 137A  
                                       STR_38 137A                                         STR_54 1199  
                                       STR_62 10BE                                         STR_71 1389  
                                       STR_63 1389                                         STR_55 1389  
                                       STR_39 12DB                                         STR_47 110A  
                                       STR_72 11DF                                         STR_64 12C4  
                                       STR_48 122F                                         STR_56 11DF  
                                       STR_80 10AE                                         STR_73 1389  
                                       STR_65 1389                                         STR_57 1389  
                                       STR_49 110A                                         STR_81 1161  
                                       STR_82 10AE                                         STR_74 11ED  
                                       STR_66 1361                                         STR_58 11ED  
                                       STR_90 10DD                                         STR_91 1372  
                                       STR_67 1389                                         STR_59 1389  
                                       STR_75 138F                                         STR_83 1322  
                                       STR_84 10AE                                         STR_68 1361  
                                       STR_76 1304                                         STR_92 11A7  
                                       STR_69 1389                                         STR_77 138F  
                                       STR_85 12E6                                         STR_93 1294  
                                       STR_78 10B4                                         STR_86 10AE  
                                       STR_94 11B5                                         STR_87 1372  
                                       STR_95 1294                                         STR_79 1208  
                                       STR_96 11B5                                         STR_88 1222  
                                       STR_89 1389                                         STR_97 1294  
                                       STR_98 123C                                         STR_99 1294  
                             __end_of___ftmul 03A2                               __end_of___fttol 0665  
                                       _T2CON 001C                                         _LATC2 0872  
                                       _LATB4 086C                                         _LATA6 0866  
                                       _LATB5 086D                                         _LATD2 087A  
                                       _LATB6 086E                                         _LATC5 0875  
                                       _LATD4 087C                                         _LATC6 0876  
                                       _LATD5 087D                                         _LATC7 0877  
                                       _LATG0 1C68                                         _LATD6 087E  
                                       _LATD7 087F                                         _LATF4 1C64  
                                       _RC2IF 00A5                                         _LATG3 1C6B  
                                       _LATG4 1C6C                                         _LATF7 1C67  
                       __end_of_debug_fast_tx 1549                                         _T8CON 0597  
                                       i1l400 0049                                         i1l412 00AB  
                                       i1l408 008A                                         i1l409 008E  
                                       i1l417 00C4                                         i1l395 00A1  
                                       i1l397 0037                                         _PORTA 000C  
                                       _PORTB 000D                                         _PORTC 000E  
                                       _PORTD 000F                                         _PORTE 0010  
                                       _PORTF 028C                                         _PORTG 028D  
                                       _TRISA 008C                                         _TRISB 008D  
                                       _TRISC 008E                                         _TRISD 008F  
                                       _TRISE 0090                                         _TRISF 030C  
                                       _TRISG 030D                                 __CFG_PWRTE$ON 0000  
                              __CFG_FCMEN$OFF 0000                            _current_sink_timer 00DA  
                          _current_sink_state 0063                      __end_of_i2c_Write_string 1482  
                                       _lower 004F                             ?_manage_read_byte 0070  
                               ___ftpack@sign 0076                                ?_EUSART1_Write 0070  
                              __pbitbssCOMMON 03D0                                         ltemp0 007E  
                                       ltemp1 0082                                         ltemp2 0086  
                                       ltemp3 0080                            ??_manage_read_byte 0072  
                                       ttemp0 007E                                         ttemp1 0081  
                                       ttemp2 0084                                         ttemp3 0087  
                                       ttemp4 007F                                         status 0003  
                                       wtemp0 007E                                         wtemp1 0080  
                                       wtemp2 0082                                         wtemp3 0084  
                                       wtemp4 0086                                         wtemp5 0088  
                                       wtemp6 007F                               __initialization 00CA  
                  lcd_set_cursor@LCD_position 0076                                  __end_of_main 1000  
                      __end_of_i2c_first_line 1FD2                                  _volt_reading 0068  
                            __end_of_i2c_Stop 1F39                                __CFG_LPBOR$OFF 0000  
                                      ??_main 0046                                 ___fttol@sign1 003C  
                             ??_lcd_print_int 002C                           lcd_print_int@number 0026  
                           _usart_fault_state 0066                                        _ADCON0 009D  
                                      _ADCON1 009E                                        STR_100 1137  
                                      STR_101 1294                                        STR_110 1153  
                                      STR_102 1145                                        STR_111 1372  
                                      STR_103 1294                                        STR_120 1128  
                                      STR_112 12FA                                        STR_104 1153  
                                      STR_105 1294                                        STR_113 1334  
                                      STR_121 12A0                                        STR_106 1137  
                                      STR_114 11C9                                        STR_122 118B  
                                      _ADRESH 009C                                        STR_107 1294  
                                      STR_123 12A0                                        STR_131 109E  
                                      STR_115 108E                                        i1S6724 1812  
                                      STR_116 139F                                        STR_108 1145  
                                      STR_124 1263                                        STR_109 1294  
                                      STR_117 12DB                                        STR_141 136A  
                                      STR_125 130E                                        STR_133 1018  
                                      STR_126 139F                                        STR_118 107E  
                                      STR_150 116F                                        _ADRESL 009B  
                                      STR_119 12DB                                        STR_143 139B  
                                      STR_127 12AC                                        STR_151 127C  
                                      STR_128 117D                                        STR_129 1358  
                                      STR_137 102A                                        STR_138 104C  
                                      STR_157 1270                                        STR_149 10FB  
                                      STR_158 105D                    __size_of_init_current_sink 0015  
                                      _CCPR9L 061A                                        _ANSELA 018C  
                                      _ANSELB 018D                                        _ANSELD 018F  
                                      _ANSELE 0190                                        _ANSELF 040C  
                            __end_of___ftpack 168B                                        _ANSELG 040D  
                                      _RC2REG 0491                            __size_of_i2c_Start 0005  
                                      _RC1STA 019D                                        _RC2STA 0495  
                                      i1l4000 001C                                        i1l4010 002E  
                                      i1l4006 0026                                        i1l4016 0041  
                                      i1l4026 0056                                        i1l4060 00AD  
                                      i1l4036 006F                                        i1l4070 00C3  
                                      i1l4046 0083                                        i1l4038 0072  
                                      i1l4054 0097                                        i1l4064 00B7  
                                      i1l4056 00A1                                        i1l4048 0085  
                                      i1l4066 00BB                            __size_of_i2c_Write 000D  
                                      i1l3994 0013                                        i1l3998 001B  
                                      _FVRCON 0117                              __end_of_Vout_set 16F6  
                            __end_of___lwtoft 1FA6                                        _OSCCON 0099  
                                      _TMR0IE 005D                                        _TMR0IF 005A  
                                      _TX1REG 019A                                        _TX2REG 0492  
                                      _TX1STA 019E                                        _TX2STA 0496  
                                      _TRISC3 0473                                        _TRISC4 0474  
                                      _TRISG0 1868                             print_error@bottom 0022  
                         _current_sink_stable 00D8                                        ___bmul 1F6D  
                             ?_i2c_first_line 0070                                        ___wmul 13D2  
                              __CFG_STVREN$ON 0000                          __size_of_get_current 0033  
                                   ??___ftmul 002A                                     ??___fttol 0038  
                            __end_of_init_ADC 1F4A                                        _detect 00DC  
                                      _device 00DE                              ?_init_i2c_lcd_5v 0073  
                                      _higher 00E0                              __end_of_init_i2c 13BA  
                            __end_of_buzz_one 0800                              _ADC_cur_sink_val 00D0  
                       ___ftmul@f3_as_product 002F                                 i2c_Write@data 0072  
                              _i2c_write_char 1F7E                             debug_fast_tx@data 0072  
                             ??_EUSART1_Write 0072                      __end_of_power_supply_set 150D  
                                ?_print_error 0020                       __end_of__initialization 00FF  
                         ___bmul@multiplicand 0072                                    ___ftmul@f1 0024  
                                  ___ftmul@f2 0027                               _i2c_second_line 1FD2  
                                  ___fttol@f1 0034                                __pcstackCOMMON 0070  
                    _send_usart_packet_manage 1549                                  __pidataBANK0 1F2C  
                                __pidataBANK1 0808                                  __pidataBANK2 13BA  
                              print_error@top 0020                         __end_of_ten_thou_conv 021D  
                           __end_of_i2c_Start 1F34                             __end_of_i2c_Write 1F6D  
                          __size_of_clear_lcd 001B                                    ___lwtoft@c 0020  
                            ??_lcd_set_cursor 0074                        __end_of_i2c_write_char 1F91  
                        i2c_Write_string@data 0073                          lcd_print_int@decimal 002A  
                            _one_second_timer 006D                                    __pbssBANK0 0049  
                                  __pbssBANK1 00C8                                     ?_i2c_Stop 0070  
                 lcd_print_int@ten_thou_digit 002B                            ADC_get_val@channel 0078  
                                  __pmaintext 0556                                       ?___bmul 0072  
                                     ?___wmul 0072                                    __pintentry 0004  
                                  _digitalpot 1424                                       _CCP9CON 061C  
                                   ?___ftpack 0072                                       _ADC_val 0049  
                                   ?_Vout_set 0076                                     ?___lwtoft 0020  
                             ?_i2c_write_char 0070                                       _SP1BRGH 019C  
                                     _SP1BRGL 019B                                       _SP2BRGH 0494  
                                     _SP2BRGL 0493                                       _SSP1ADD 0212  
        receive_data_bytes@checksum_high_byte 0033                                       _SSP1BUF 0211  
                           ?_i2c_Write_string 0073                            ??_i2c_Write_string 0075  
                                  ??_i2c_Stop 0072                                     ?_init_ADC 0070  
                     __end_of_i2c_second_line 1FE9                                     ?_init_i2c 0070  
                           __end_of_clear_lcd 1408         receive_data_bytes@time_out_first_byte 0027  
                                   ?_buzz_one 0072                                 _RelayVsDiodes 0062  
                               ??_ADC_get_val 0074                     __size_of_manage_read_byte 001F  
                             __size_of___bmul 0011                               __size_of___wmul 001B  
                                     ___ftmul 02EE                                       ___fttol 05DE  
         receive_data_bytes@checksum_low_byte 0034                                    _init_uart1 1F4A  
                                  _init_uart2 1F55                                    ??___ftpack 0077  
                 __size_of_receive_data_bytes 00D1                                       __ptext1 1549  
                                     __ptext2 07F8                                       __ptext3 021D  
                                     __ptext4 15D1                                       __ptext5 1FE9  
                                     __ptext6 1FD2                                       __ptext7 1FBB  
                                     __ptext8 1460                                       __ptext9 13ED  
                                  ??_Vout_set 0078                                    ??___lwtoft 0023  
                                __size_of_isr 00C4                                    _buzz_timer 004D  
              init_i2c_lcd_5v@single1_double2 0073       receive_data_bytes@usart_validation_work 0038  
          send_usart_packet_manage@Data_carry 0073                            _pickit_all_counter 00E2  
                                     clrloop0 0803                          end_of_initialization 00FF  
                                  ??_init_ADC 0072                                    ??_init_i2c 0072  
                                     init_ram 1F39                                       initloop 1F3A  
                                  ??_buzz_one 0074                              ??_i2c_first_line 0073  
                        __size_of_print_error 0056                        __size_of_debug_fast_tx 003C  
                                     psplit$0 12003B                                       psplit$1 3B003C  
                                     psplit$2 3C003D                                       psplit$3 3D003E  
                                     psplit$4 3E003F                                       psplit$5 3F0040  
                                     psplit$6 400041                                       psplit$7 410042  
                                __pstringtext 1000                                   ?_digitalpot 0070  
                         __end_of_ADC_get_val 1424                              __CFG_FOSC$INTOSC 0000  
                       __end_of_lcd_print_int 07F8                                 ?_print_screen 0076  
                        pnum$maintext_split_1 003B                          pnum$maintext_split_2 003C  
                        pnum$maintext_split_3 003D                          pnum$maintext_split_4 003E  
                        pnum$maintext_split_5 003F                          pnum$maintext_split_6 0040  
                        pnum$maintext_split_7 0041                          pnum$maintext_split_8 0042  
                             get_current@temp 0044                           EUSART1_Write@txData 0072  
                           ?_power_supply_set 0070                    ??_send_usart_packet_manage 0020  
                            ?_i2c_second_line 0070                                _voltage_actual 00E6  
                          ??_power_supply_set 0072                                 ??_get_current 007A  
                              ten_thou_conv@n 0078                                   ___ftmul@exp 002E  
                              __end_of___bmul 1F7E                                __end_of___wmul 13ED  
                                buzz_one@time 0072                                   ?_init_uart1 0070  
                                 ?_init_uart2 0070              receive_data_bytes@data_high_byte 0036  
                               _debug_fast_tx 150D                                     _i2c_Start 1F2F  
                                   _i2c_Write 1F60                           start_initialization 00CA  
                    __size_of_init_i2c_lcd_5v 0048                                ??_print_screen 007A  
                                 __end_of_isr 00C8                         __end_of_EUSART1_Write 07FF  
  send_usart_packet_manage@checksum_send_work 002B                           __size_of_digitalpot 001D  
                            _usart_fault_flag 03D0                           _Data_Temp_Work_char 0061  
            receive_data_bytes@data_int_value 0031                             __size_of_i2c_Stop 0005  
                             print_screen@top 0076                                   _ADC_get_val 1408  
                                    ??___bmul 0073                              _manage_read_byte 1441  
                                    ??___wmul 0076                                   __pdataBANK0 006D  
                                 __pdataBANK1 00A0                                   __pdataBANK2 0120  
                            ??_i2c_write_char 0073                           __end_of_get_current 14DA  
                              _current_actual 00D6                                ?_debug_fast_tx 0072  
                           __size_of___ftpack 0064                                    ?_i2c_Start 0070  
                                  ?_i2c_Write 0070                                   __pbssCOMMON 007B  
                           __size_of_Vout_set 006B                                     ___latbits 0003  
                           __size_of___lwtoft 0015                                 __pcstackBANK0 0020  
                          _pickit_red_counter 0055                              lcd_print_int@pos 0028  
                      __size_of_ten_thou_conv 011A                           __size_of_init_uart1 000B  
                         __size_of_init_uart2 000B                             __size_of_init_ADC 000B  
                           __size_of_init_i2c 0018                                     _clear_lcd 13ED  
                           __size_of_buzz_one 0001                            _pickit_pgm_timeout 0053  
                   __size_of_i2c_Write_string 0022                                      ?___ftmul 0024  
                                    ?___fttol 0034                                     __pswtext1 1800  
                                   __pswtext2 1820                                     __pswtext3 1812  
                                    _BAUD1CON 019F                                      _BAUD2CON 0497  
                                    _CCPTMRS2 029F                              __CFG_WDTE$SWDTEN 0000  
            __end_of_send_usart_packet_manage 1589                             ??_init_i2c_lcd_5v 0074  
                     __size_of_lcd_set_cursor 0025      send_usart_packet_manage@data_high_byte_2 0029  
                              ___wmul@product 0076                                     clear_ram0 0802  
                                    _PIE1bits 0091                                      _PIR1bits 0011  
                                 _get_current 14A7                                    ?_clear_lcd 0070  
                        __end_of_print_screen 2000        send_usart_packet_manage@command_byte_1 0028  
                          print_screen@bottom 0078                                      _SSP1CON1 0215  
                                    _SSP1CON2 0216                                  ??_digitalpot 0073  
                                    _SSP1STAT 0214                    __end_of_receive_data_bytes 02EE  
 send_usart_packet_manage@checksum_low_byte_5 0027                                  _pickit_timer 0057  
                                _pickit_state 0064                                 _ten_thou_conv 0103  
                             ??_debug_fast_tx 0074                                    _ADCON0bits 009D  
                           ___wmul@multiplier 0072                                   ??_i2c_Start 0072  
                                 ??_i2c_Write 0072                                     _voltage_f 00CD  
                                   _voltage_i 00E8                                debug_fast_tx@i 0076  
                                    _i2c_Stop 1F34                                 ??_print_error 0024  
                          __end_of_digitalpot 1441                         ADC_get_val@return_val 0076  
                          _Data_Temp_Work_int 004B                                 Vout_set@Volts 0076  
                                pnum$maintext 0012                                ?_ten_thou_conv 0078  
                            __size_of___ftmul 00B4                              __size_of___fttol 0087  
                                ??_init_uart1 0072                                  ??_init_uart2 0072  
                   __size_of_power_supply_set 0033                                      ___ftpack 1627  
                                    _Vout_set 168B                                      ___lwtoft 1F91  
                     init_i2c_lcd_5v@contrast 0076                           lcd_bar_create@F3911 00B8  
                         lcd_bar_create@F3913 00C0                           lcd_bar_create@F3905 00A0  
                         lcd_bar_create@F3915 0120                           lcd_bar_create@F3907 00A8  
                         lcd_bar_create@F3917 0128                           lcd_bar_create@F3909 00B0  
                         lcd_bar_create@F3919 0130                             Vout_set@digi_step 0020  
                                    _callsign 00D2                                      __ptext10 14DA  
                                    __ptext11 150D                                      __ptext20 1F55  
                                    __ptext12 07FF                                      __ptext21 1F4A  
                                    __ptext13 1441                                      __ptext30 1627  
                                    __ptext22 1589                                      __ptext14 0773  
                                    __ptext31 1408                                      __ptext23 13A2  
                                    __ptext15 0103                                      __ptext32 168B  
                                    __ptext24 1FA6                                      __ptext16 13D2  
                                    __ptext33 1424                                      __ptext25 1F3F  
                                    __ptext17 1F6D                                      __ptext34 1F60  
                                    __ptext26 14A7                                      __ptext18 1482  
                                    __ptext35 1F34                                      __ptext27 1F91  
                                    __ptext19 1F7E                                      __ptext36 1F2F  
                                    __ptext28 05DE                                      __ptext29 02EE  
                    __end_of_manage_read_byte 1460                                  _SSP1CON2bits 0216  
                                    _init_ADC 1F3F                                      _init_i2c 13A2  
            receive_data_bytes@usart_checksum 002F                                 __size_of_main 0AAA  
                          __end_of_init_uart1 1F55                            __end_of_init_uart2 1F60  
                                    _buzz_one 07FF                                  ?_ADC_get_val 0072  
                                 ??_clear_lcd 0073                           __end_of_print_error 1627  
                            _i2c_Write_string 1460                                      _ten_thou 007B  
                                  _RC2STAbits 0495                                      _tj_timer 005B  
                      __size_of_lcd_print_int 0085                      __size_of_i2c_second_line 0017  
                                    int$flags 007E                           __end_of_popup_delay 1002  
                                _SSP1STATbits 0214             __size_of_send_usart_packet_manage 0040  
                     __size_of_i2c_first_line 0017                     ?_send_usart_packet_manage 0073  
                          _uart_receive_timer 005D                      _usart_receive_state_main 0067  
                                  _INTCONbits 000B                receive_data_bytes@command_byte 0035  
send_usart_packet_manage@checksum_high_byte_4 0026                                      intlevel1 0000  
                              _lcd_set_cursor 1482                             lcd_set_cursor@col 0073  
                           lcd_set_cursor@row 0075                         __size_of_print_screen 0017  
                           __CFG_CLKOUTEN$OFF 0000                        power_supply_set@supply 0072  
                             ??_ten_thou_conv 0020       send_usart_packet_manage@data_low_byte_3 002A  
                      __size_of_EUSART1_Write 0007                manage_read_byte@timeout_enable 0072  
                                  _OPTION_REG 0095                                 _testjig_timer 0059  
                             _init_i2c_lcd_5v 1589                                 _lcd_print_int 0773  
                             _curent_sink_val 00D4                                  _print_screen 1FE9  
                                 _return_data 0065                        __end_of_lcd_set_cursor 14A7  
                                  _TX1STAbits 019E                                    _TX2STAbits 0496  
                           _init_current_sink 1FA6                                   _print_error 15D1  
                          ?_init_current_sink 0070                                   _popup_delay 1000  
                                ?_get_current 0042  
